LIBRARY NrxDbGate.dll
EXPORTS
  ??0?$CCSUnknownImpl@UIHostIntegratorExEngine@@@@QEAA@AEBV0@@Z
  ??0?$CCSUnknownImpl@UIHostIntegratorExEngine@@@@QEAA@XZ
  ??0?$HostArray@HV?$HostMemoryAllocator@H@@@@QEAA@$$QEAV0@@Z
  ??0?$HostArray@HV?$HostMemoryAllocator@H@@@@QEAA@AEBV0@@Z
  ??0?$HostArray@HV?$HostMemoryAllocator@H@@@@QEAA@IH@Z
  ??0?$HostArray@HV?$HostMemoryAllocator@H@@@@QEAA@XZ
  ??0?$HostArray@NV?$HostMemoryAllocator@N@@@@QEAA@$$QEAV0@@Z
  ??0?$HostArray@NV?$HostMemoryAllocator@N@@@@QEAA@AEBV0@@Z
  ??0?$HostArray@NV?$HostMemoryAllocator@N@@@@QEAA@IH@Z
  ??0?$HostArray@NV?$HostMemoryAllocator@N@@@@QEAA@XZ
  ??0?$HostArray@PEAUHINSTANCE__@@V?$HostObjectsAllocator@PEAUHINSTANCE__@@@@@@QEAA@$$QEAV0@@Z
  ??0?$HostArray@PEAUHINSTANCE__@@V?$HostObjectsAllocator@PEAUHINSTANCE__@@@@@@QEAA@AEBV0@@Z
  ??0?$HostArray@PEAUHINSTANCE__@@V?$HostObjectsAllocator@PEAUHINSTANCE__@@@@@@QEAA@IH@Z
  ??0?$HostArray@PEAUHINSTANCE__@@V?$HostObjectsAllocator@PEAUHINSTANCE__@@@@@@QEAA@XZ
  ??0?$HostArray@PEAVNcDb2dVertex@@V?$HostObjectsAllocator@PEAVNcDb2dVertex@@@@@@QEAA@$$QEAV0@@Z
  ??0?$HostArray@PEAVNcDb2dVertex@@V?$HostObjectsAllocator@PEAVNcDb2dVertex@@@@@@QEAA@AEBV0@@Z
  ??0?$HostArray@PEAVNcDb2dVertex@@V?$HostObjectsAllocator@PEAVNcDb2dVertex@@@@@@QEAA@IH@Z
  ??0?$HostArray@PEAVNcDb2dVertex@@V?$HostObjectsAllocator@PEAVNcDb2dVertex@@@@@@QEAA@XZ
  ??0?$HostArray@PEAVNcDb3dPolylineVertex@@V?$HostObjectsAllocator@PEAVNcDb3dPolylineVertex@@@@@@QEAA@$$QEAV0@@Z
  ??0?$HostArray@PEAVNcDb3dPolylineVertex@@V?$HostObjectsAllocator@PEAVNcDb3dPolylineVertex@@@@@@QEAA@AEBV0@@Z
  ??0?$HostArray@PEAVNcDb3dPolylineVertex@@V?$HostObjectsAllocator@PEAVNcDb3dPolylineVertex@@@@@@QEAA@IH@Z
  ??0?$HostArray@PEAVNcDb3dPolylineVertex@@V?$HostObjectsAllocator@PEAVNcDb3dPolylineVertex@@@@@@QEAA@XZ
  ??0?$HostArray@PEAVNcDbDimData@@V?$HostMemoryAllocator@PEAVNcDbDimData@@@@@@QEAA@$$QEAV0@@Z
  ??0?$HostArray@PEAVNcDbDimData@@V?$HostMemoryAllocator@PEAVNcDbDimData@@@@@@QEAA@AEBV0@@Z
  ??0?$HostArray@PEAVNcDbDimData@@V?$HostMemoryAllocator@PEAVNcDbDimData@@@@@@QEAA@IH@Z
  ??0?$HostArray@PEAVNcDbDimData@@V?$HostMemoryAllocator@PEAVNcDbDimData@@@@@@QEAA@XZ
  ??0?$HostArray@PEAVNcDbEntity@@V?$HostObjectsAllocator@PEAVNcDbEntity@@@@@@QEAA@$$QEAV0@@Z
  ??0?$HostArray@PEAVNcDbEntity@@V?$HostObjectsAllocator@PEAVNcDbEntity@@@@@@QEAA@AEBV0@@Z
  ??0?$HostArray@PEAVNcDbEntity@@V?$HostObjectsAllocator@PEAVNcDbEntity@@@@@@QEAA@IH@Z
  ??0?$HostArray@PEAVNcDbEntity@@V?$HostObjectsAllocator@PEAVNcDbEntity@@@@@@QEAA@XZ
  ??0?$HostArray@PEAVNcDbGripData@@V?$HostMemoryAllocator@PEAVNcDbGripData@@@@@@QEAA@$$QEAV0@@Z
  ??0?$HostArray@PEAVNcDbGripData@@V?$HostMemoryAllocator@PEAVNcDbGripData@@@@@@QEAA@AEBV0@@Z
  ??0?$HostArray@PEAVNcDbGripData@@V?$HostMemoryAllocator@PEAVNcDbGripData@@@@@@QEAA@IH@Z
  ??0?$HostArray@PEAVNcDbGripData@@V?$HostMemoryAllocator@PEAVNcDbGripData@@@@@@QEAA@XZ
  ??0?$HostArray@PEAVNcDbNurbSurface@@V?$HostObjectsAllocator@PEAVNcDbNurbSurface@@@@@@QEAA@$$QEAV0@@Z
  ??0?$HostArray@PEAVNcDbNurbSurface@@V?$HostObjectsAllocator@PEAVNcDbNurbSurface@@@@@@QEAA@AEBV0@@Z
  ??0?$HostArray@PEAVNcDbNurbSurface@@V?$HostObjectsAllocator@PEAVNcDbNurbSurface@@@@@@QEAA@IH@Z
  ??0?$HostArray@PEAVNcDbNurbSurface@@V?$HostObjectsAllocator@PEAVNcDbNurbSurface@@@@@@QEAA@XZ
  ??0?$HostArray@PEAVNcDbPolygonMeshVertex@@V?$HostObjectsAllocator@PEAVNcDbPolygonMeshVertex@@@@@@QEAA@$$QEAV0@@Z
  ??0?$HostArray@PEAVNcDbPolygonMeshVertex@@V?$HostObjectsAllocator@PEAVNcDbPolygonMeshVertex@@@@@@QEAA@AEBV0@@Z
  ??0?$HostArray@PEAVNcDbPolygonMeshVertex@@V?$HostObjectsAllocator@PEAVNcDbPolygonMeshVertex@@@@@@QEAA@IH@Z
  ??0?$HostArray@PEAVNcDbPolygonMeshVertex@@V?$HostObjectsAllocator@PEAVNcDbPolygonMeshVertex@@@@@@QEAA@XZ
  ??0?$HostArray@PEAVNcDbVertex@@V?$HostObjectsAllocator@PEAVNcDbVertex@@@@@@QEAA@$$QEAV0@@Z
  ??0?$HostArray@PEAVNcDbVertex@@V?$HostObjectsAllocator@PEAVNcDbVertex@@@@@@QEAA@AEBV0@@Z
  ??0?$HostArray@PEAVNcDbVertex@@V?$HostObjectsAllocator@PEAVNcDbVertex@@@@@@QEAA@IH@Z
  ??0?$HostArray@PEAVNcDbVertex@@V?$HostObjectsAllocator@PEAVNcDbVertex@@@@@@QEAA@XZ
  ??0?$HostArray@PEAVNcLyLayerFilter@@V?$HostObjectsAllocator@PEAVNcLyLayerFilter@@@@@@QEAA@$$QEAV0@@Z
  ??0?$HostArray@PEAVNcLyLayerFilter@@V?$HostObjectsAllocator@PEAVNcLyLayerFilter@@@@@@QEAA@AEBV0@@Z
  ??0?$HostArray@PEAVNcLyLayerFilter@@V?$HostObjectsAllocator@PEAVNcLyLayerFilter@@@@@@QEAA@IH@Z
  ??0?$HostArray@PEAVNcLyLayerFilter@@V?$HostObjectsAllocator@PEAVNcLyLayerFilter@@@@@@QEAA@XZ
  ??0?$HostArray@PEAVNcTransaction@@V?$HostObjectsAllocator@PEAVNcTransaction@@@@@@QEAA@$$QEAV0@@Z
  ??0?$HostArray@PEAVNcTransaction@@V?$HostObjectsAllocator@PEAVNcTransaction@@@@@@QEAA@AEBV0@@Z
  ??0?$HostArray@PEAVNcTransaction@@V?$HostObjectsAllocator@PEAVNcTransaction@@@@@@QEAA@IH@Z
  ??0?$HostArray@PEAVNcTransaction@@V?$HostObjectsAllocator@PEAVNcTransaction@@@@@@QEAA@XZ
  ??0?$HostArray@PEAVNsdkHlrData@@V?$HostObjectsAllocator@PEAVNsdkHlrData@@@@@@QEAA@$$QEAV0@@Z
  ??0?$HostArray@PEAVNsdkHlrData@@V?$HostObjectsAllocator@PEAVNsdkHlrData@@@@@@QEAA@AEBV0@@Z
  ??0?$HostArray@PEAVNsdkHlrData@@V?$HostObjectsAllocator@PEAVNsdkHlrData@@@@@@QEAA@IH@Z
  ??0?$HostArray@PEAVNsdkHlrData@@V?$HostObjectsAllocator@PEAVNsdkHlrData@@@@@@QEAA@XZ
  ??0?$HostArray@PEAVOdDbEntity@@V?$HostObjectsAllocator@PEAVOdDbEntity@@@@@@QEAA@$$QEAV0@@Z
  ??0?$HostArray@PEAVOdDbEntity@@V?$HostObjectsAllocator@PEAVOdDbEntity@@@@@@QEAA@AEBV0@@Z
  ??0?$HostArray@PEAVOdDbEntity@@V?$HostObjectsAllocator@PEAVOdDbEntity@@@@@@QEAA@IH@Z
  ??0?$HostArray@PEAVOdDbEntity@@V?$HostObjectsAllocator@PEAVOdDbEntity@@@@@@QEAA@XZ
  ??0?$HostArray@PEAXV?$HostMemoryAllocator@PEAX@@@@QEAA@$$QEAV0@@Z
  ??0?$HostArray@PEAXV?$HostMemoryAllocator@PEAX@@@@QEAA@AEBV0@@Z
  ??0?$HostArray@PEAXV?$HostMemoryAllocator@PEAX@@@@QEAA@IH@Z
  ??0?$HostArray@PEAXV?$HostMemoryAllocator@PEAX@@@@QEAA@XZ
  ??0?$HostArray@VMcGeVector2d@@V?$HostMemoryAllocator@VMcGeVector2d@@@@@@QEAA@$$QEAV0@@Z
  ??0?$HostArray@VMcGeVector2d@@V?$HostMemoryAllocator@VMcGeVector2d@@@@@@QEAA@AEBV0@@Z
  ??0?$HostArray@VMcGeVector2d@@V?$HostMemoryAllocator@VMcGeVector2d@@@@@@QEAA@IH@Z
  ??0?$HostArray@VMcGeVector2d@@V?$HostMemoryAllocator@VMcGeVector2d@@@@@@QEAA@XZ
  ??0?$HostArray@VNcDbEvalVariant@@V?$HostMemoryAllocator@VNcDbEvalVariant@@@@@@QEAA@$$QEAV0@@Z
  ??0?$HostArray@VNcDbEvalVariant@@V?$HostMemoryAllocator@VNcDbEvalVariant@@@@@@QEAA@AEBV0@@Z
  ??0?$HostArray@VNcDbEvalVariant@@V?$HostMemoryAllocator@VNcDbEvalVariant@@@@@@QEAA@IH@Z
  ??0?$HostArray@VNcDbEvalVariant@@V?$HostMemoryAllocator@VNcDbEvalVariant@@@@@@QEAA@XZ
  ??0?$HostArray@VNcDbFullSubentPath@@V?$HostObjectsAllocator@VNcDbFullSubentPath@@@@@@QEAA@$$QEAV0@@Z
  ??0?$HostArray@VNcDbFullSubentPath@@V?$HostObjectsAllocator@VNcDbFullSubentPath@@@@@@QEAA@AEBV0@@Z
  ??0?$HostArray@VNcDbFullSubentPath@@V?$HostObjectsAllocator@VNcDbFullSubentPath@@@@@@QEAA@IH@Z
  ??0?$HostArray@VNcDbFullSubentPath@@V?$HostObjectsAllocator@VNcDbFullSubentPath@@@@@@QEAA@XZ
  ??0?$HostArray@VNcDbObjectId@@V?$HostObjectsAllocator@VNcDbObjectId@@@@@@QEAA@$$QEAV0@@Z
  ??0?$HostArray@VNcDbObjectId@@V?$HostObjectsAllocator@VNcDbObjectId@@@@@@QEAA@AEBV0@@Z
  ??0?$HostArray@VNcDbObjectId@@V?$HostObjectsAllocator@VNcDbObjectId@@@@@@QEAA@IH@Z
  ??0?$HostArray@VNcDbObjectId@@V?$HostObjectsAllocator@VNcDbObjectId@@@@@@QEAA@XZ
  ??0?$HostArray@VNcGePoint2d@@V?$HostMemoryAllocator@VNcGePoint2d@@@@@@QEAA@$$QEAV0@@Z
  ??0?$HostArray@VNcGePoint2d@@V?$HostMemoryAllocator@VNcGePoint2d@@@@@@QEAA@AEBV0@@Z
  ??0?$HostArray@VNcGePoint2d@@V?$HostMemoryAllocator@VNcGePoint2d@@@@@@QEAA@IH@Z
  ??0?$HostArray@VNcGePoint2d@@V?$HostMemoryAllocator@VNcGePoint2d@@@@@@QEAA@XZ
  ??0?$HostArray@VNcGePoint3d@@V?$HostMemoryAllocator@VNcGePoint3d@@@@@@QEAA@$$QEAV0@@Z
  ??0?$HostArray@VNcGePoint3d@@V?$HostMemoryAllocator@VNcGePoint3d@@@@@@QEAA@AEBV0@@Z
  ??0?$HostArray@VNcGePoint3d@@V?$HostMemoryAllocator@VNcGePoint3d@@@@@@QEAA@IH@Z
  ??0?$HostArray@VNcGePoint3d@@V?$HostMemoryAllocator@VNcGePoint3d@@@@@@QEAA@XZ
  ??0?$HostArray@VNcGeVector3d@@V?$HostMemoryAllocator@VNcGeVector3d@@@@@@QEAA@$$QEAV0@@Z
  ??0?$HostArray@VNcGeVector3d@@V?$HostMemoryAllocator@VNcGeVector3d@@@@@@QEAA@AEBV0@@Z
  ??0?$HostArray@VNcGeVector3d@@V?$HostMemoryAllocator@VNcGeVector3d@@@@@@QEAA@IH@Z
  ??0?$HostArray@VNcGeVector3d@@V?$HostMemoryAllocator@VNcGeVector3d@@@@@@QEAA@XZ
  ??0?$HostArray@_JV?$HostMemoryAllocator@_J@@@@QEAA@$$QEAV0@@Z
  ??0?$HostArray@_JV?$HostMemoryAllocator@_J@@@@QEAA@AEBV0@@Z
  ??0?$HostArray@_JV?$HostMemoryAllocator@_J@@@@QEAA@IH@Z
  ??0?$HostArray@_JV?$HostMemoryAllocator@_J@@@@QEAA@XZ
  ??0?$NcArray@HV?$HostMemoryAllocator@H@@@@QEAA@AEBV0@@Z
  ??0?$NcArray@HV?$HostMemoryAllocator@H@@@@QEAA@HH@Z
  ??0?$NcArray@NV?$HostMemoryAllocator@N@@@@QEAA@AEBV0@@Z
  ??0?$NcArray@NV?$HostMemoryAllocator@N@@@@QEAA@HH@Z
  ??0?$NcArray@PEAUHINSTANCE__@@V?$HostObjectsAllocator@PEAUHINSTANCE__@@@@@@QEAA@AEBV0@@Z
  ??0?$NcArray@PEAUHINSTANCE__@@V?$HostObjectsAllocator@PEAUHINSTANCE__@@@@@@QEAA@HH@Z
  ??0?$NcArray@PEAVNcDb2dVertex@@V?$HostObjectsAllocator@PEAVNcDb2dVertex@@@@@@QEAA@AEBV0@@Z
  ??0?$NcArray@PEAVNcDb2dVertex@@V?$HostObjectsAllocator@PEAVNcDb2dVertex@@@@@@QEAA@HH@Z
  ??0?$NcArray@PEAVNcDb3dPolylineVertex@@V?$HostObjectsAllocator@PEAVNcDb3dPolylineVertex@@@@@@QEAA@AEBV0@@Z
  ??0?$NcArray@PEAVNcDb3dPolylineVertex@@V?$HostObjectsAllocator@PEAVNcDb3dPolylineVertex@@@@@@QEAA@HH@Z
  ??0?$NcArray@PEAVNcDbDimData@@V?$HostMemoryAllocator@PEAVNcDbDimData@@@@@@QEAA@AEBV0@@Z
  ??0?$NcArray@PEAVNcDbDimData@@V?$HostMemoryAllocator@PEAVNcDbDimData@@@@@@QEAA@HH@Z
  ??0?$NcArray@PEAVNcDbEntity@@V?$HostObjectsAllocator@PEAVNcDbEntity@@@@@@QEAA@AEBV0@@Z
  ??0?$NcArray@PEAVNcDbEntity@@V?$HostObjectsAllocator@PEAVNcDbEntity@@@@@@QEAA@HH@Z
  ??0?$NcArray@PEAVNcDbGripData@@V?$HostMemoryAllocator@PEAVNcDbGripData@@@@@@QEAA@AEBV0@@Z
  ??0?$NcArray@PEAVNcDbGripData@@V?$HostMemoryAllocator@PEAVNcDbGripData@@@@@@QEAA@HH@Z
  ??0?$NcArray@PEAVNcDbNurbSurface@@V?$HostObjectsAllocator@PEAVNcDbNurbSurface@@@@@@QEAA@AEBV0@@Z
  ??0?$NcArray@PEAVNcDbNurbSurface@@V?$HostObjectsAllocator@PEAVNcDbNurbSurface@@@@@@QEAA@HH@Z
  ??0?$NcArray@PEAVNcDbPolygonMeshVertex@@V?$HostObjectsAllocator@PEAVNcDbPolygonMeshVertex@@@@@@QEAA@AEBV0@@Z
  ??0?$NcArray@PEAVNcDbPolygonMeshVertex@@V?$HostObjectsAllocator@PEAVNcDbPolygonMeshVertex@@@@@@QEAA@HH@Z
  ??0?$NcArray@PEAVNcDbVertex@@V?$HostObjectsAllocator@PEAVNcDbVertex@@@@@@QEAA@AEBV0@@Z
  ??0?$NcArray@PEAVNcDbVertex@@V?$HostObjectsAllocator@PEAVNcDbVertex@@@@@@QEAA@HH@Z
  ??0?$NcArray@PEAVNcLyLayerFilter@@V?$HostObjectsAllocator@PEAVNcLyLayerFilter@@@@@@QEAA@AEBV0@@Z
  ??0?$NcArray@PEAVNcLyLayerFilter@@V?$HostObjectsAllocator@PEAVNcLyLayerFilter@@@@@@QEAA@HH@Z
  ??0?$NcArray@PEAVNcTransaction@@V?$HostObjectsAllocator@PEAVNcTransaction@@@@@@QEAA@AEBV0@@Z
  ??0?$NcArray@PEAVNcTransaction@@V?$HostObjectsAllocator@PEAVNcTransaction@@@@@@QEAA@HH@Z
  ??0?$NcArray@PEAVNsdkHlrData@@V?$HostObjectsAllocator@PEAVNsdkHlrData@@@@@@QEAA@AEBV0@@Z
  ??0?$NcArray@PEAVNsdkHlrData@@V?$HostObjectsAllocator@PEAVNsdkHlrData@@@@@@QEAA@HH@Z
  ??0?$NcArray@PEAVOdDbEntity@@V?$HostObjectsAllocator@PEAVOdDbEntity@@@@@@QEAA@AEBV0@@Z
  ??0?$NcArray@PEAVOdDbEntity@@V?$HostObjectsAllocator@PEAVOdDbEntity@@@@@@QEAA@HH@Z
  ??0?$NcArray@PEAXV?$HostMemoryAllocator@PEAX@@@@QEAA@AEBV0@@Z
  ??0?$NcArray@PEAXV?$HostMemoryAllocator@PEAX@@@@QEAA@HH@Z
  ??0?$NcArray@VMcGeVector2d@@V?$HostMemoryAllocator@VMcGeVector2d@@@@@@QEAA@AEBV0@@Z
  ??0?$NcArray@VMcGeVector2d@@V?$HostMemoryAllocator@VMcGeVector2d@@@@@@QEAA@HH@Z
  ??0?$NcArray@VNcDbEvalVariant@@V?$HostMemoryAllocator@VNcDbEvalVariant@@@@@@QEAA@AEBV0@@Z
  ??0?$NcArray@VNcDbEvalVariant@@V?$HostMemoryAllocator@VNcDbEvalVariant@@@@@@QEAA@HH@Z
  ??0?$NcArray@VNcDbFullSubentPath@@V?$HostObjectsAllocator@VNcDbFullSubentPath@@@@@@QEAA@AEBV0@@Z
  ??0?$NcArray@VNcDbFullSubentPath@@V?$HostObjectsAllocator@VNcDbFullSubentPath@@@@@@QEAA@HH@Z
  ??0?$NcArray@VNcDbObjectId@@V?$HostObjectsAllocator@VNcDbObjectId@@@@@@QEAA@AEBV0@@Z
  ??0?$NcArray@VNcDbObjectId@@V?$HostObjectsAllocator@VNcDbObjectId@@@@@@QEAA@HH@Z
  ??0?$NcArray@VNcGePoint2d@@V?$HostMemoryAllocator@VNcGePoint2d@@@@@@QEAA@AEBV0@@Z
  ??0?$NcArray@VNcGePoint2d@@V?$HostMemoryAllocator@VNcGePoint2d@@@@@@QEAA@HH@Z
  ??0?$NcArray@VNcGePoint3d@@V?$HostMemoryAllocator@VNcGePoint3d@@@@@@QEAA@AEBV0@@Z
  ??0?$NcArray@VNcGePoint3d@@V?$HostMemoryAllocator@VNcGePoint3d@@@@@@QEAA@HH@Z
  ??0?$NcArray@VNcGeVector3d@@V?$HostMemoryAllocator@VNcGeVector3d@@@@@@QEAA@AEBV0@@Z
  ??0?$NcArray@VNcGeVector3d@@V?$HostMemoryAllocator@VNcGeVector3d@@@@@@QEAA@HH@Z
  ??0?$NcArray@_JV?$HostMemoryAllocator@_J@@@@QEAA@AEBV0@@Z
  ??0?$NcArray@_JV?$HostMemoryAllocator@_J@@@@QEAA@HH@Z
  ??0?$NcGiCommonDrawHostImpl@VNcGiViewportDrawNrx@@@@QEAA@AEBV0@@Z
  ??0?$NcGiCommonDrawHostImpl@VNcGiViewportDrawNrx@@@@QEAA@PEAVOdRxObject@@@Z
  ??0?$NcGiCommonDrawHostImpl@VNcGiViewportDrawNrx@@@@QEAA@XZ
  ??0?$NcGiCommonDrawHostImpl@VNcGiWorldDraw@@@@QEAA@AEBV0@@Z
  ??0?$NcGiCommonDrawHostImpl@VNcGiWorldDraw@@@@QEAA@PEAVOdRxObject@@@Z
  ??0?$NcGiCommonDrawHostImpl@VNcGiWorldDraw@@@@QEAA@XZ
  ??0AddictedModules@@QEAA@$$QEAU0@@Z
  ??0AddictedModules@@QEAA@AEBU0@@Z
  ??0AddictedModules@@QEAA@XZ
  ??0BitonalModel@Ntil@@QEAA@AEBV01@@Z
  ??0BitonalModel@Ntil@@QEAA@XZ
  ??0BmpFormatCodec@Ntil@@QEAA@AEBV01@@Z
  ??0BmpFormatCodec@Ntil@@QEAA@XZ
  ??0BoundingBox@Ntil@@QEAA@HPEBVOffset@1@@Z
  ??0BoundingBox@Ntil@@QEAA@VOffset@1@0@Z
  ??0BoundingBox@Ntil@@QEAA@VOffset@1@VSize@1@@Z
  ??0BoundingBox@Ntil@@QEAA@XZ
  ??0CNcExtensionModule@@QEAA@XZ
  ??0CNcModuleResourceOverride@@QEAA@PEAUHINSTANCE__@@@Z
  ??0CNsiApproxNum@@IEAA@XZ
  ??0CNsiApproxNum@@QEAA@AEBV0@@Z
  ??0CNsiBinary@@QEAA@AEBV0@@Z
  ??0CNsiBinary@@QEAA@I@Z
  ??0CNsiBinary@@QEAA@XZ
  ??0CNsiBlob@@QEAA@AEBV0@@Z
  ??0CNsiBlob@@QEAA@XZ
  ??0CNsiChar@@QEAA@AEBV0@@Z
  ??0CNsiChar@@QEAA@I@Z
  ??0CNsiChar@@QEAA@XZ
  ??0CNsiColumn@@QEAA@AEBV0@@Z
  ??0CNsiColumn@@QEAA@AEBVCNsiIdent@@0@Z
  ??0CNsiColumn@@QEAA@AEBVCNsiIdent@@@Z
  ??0CNsiColumn@@QEAA@AEBVCNsiIdent@@AEBVCNsiBinary@@@Z
  ??0CNsiColumn@@QEAA@AEBVCNsiIdent@@AEBVCNsiChar@@@Z
  ??0CNsiColumn@@QEAA@AEBVCNsiIdent@@AEBVCNsiDT@@@Z
  ??0CNsiColumn@@QEAA@AEBVCNsiIdent@@AEBVCNsiDate@@@Z
  ??0CNsiColumn@@QEAA@AEBVCNsiIdent@@AEBVCNsiDecimal@@@Z
  ??0CNsiColumn@@QEAA@AEBVCNsiIdent@@AEBVCNsiDouble@@@Z
  ??0CNsiColumn@@QEAA@AEBVCNsiIdent@@AEBVCNsiFloat@@@Z
  ??0CNsiColumn@@QEAA@AEBVCNsiIdent@@AEBVCNsiInt@@@Z
  ??0CNsiColumn@@QEAA@AEBVCNsiIdent@@AEBVCNsiNumeric@@@Z
  ??0CNsiColumn@@QEAA@AEBVCNsiIdent@@AEBVCNsiReal@@@Z
  ??0CNsiColumn@@QEAA@AEBVCNsiIdent@@AEBVCNsiSmallInt@@@Z
  ??0CNsiColumn@@QEAA@AEBVCNsiIdent@@AEBVCNsiTime@@@Z
  ??0CNsiColumn@@QEAA@AEBVCNsiIdent@@AEBVCNsiTimeStamp@@@Z
  ??0CNsiColumn@@QEAA@AEBVCNsiIdent@@AEBVCNsiYM@@@Z
  ??0CNsiColumn@@QEAA@AEBVCNsiIdent@@PEAVCNsiData@@@Z
  ??0CNsiColumn@@QEAA@PEBUtagDBCOLUMNINFO@@@Z
  ??0CNsiColumn@@QEAA@XZ
  ??0CNsiDT@@QEAA@AEBV0@@Z
  ??0CNsiDT@@QEAA@W4ENsiIType@@@Z
  ??0CNsiDT@@QEAA@W4ENsiIType@@I@Z
  ??0CNsiDT@@QEAA@W4ENsiIType@@II@Z
  ??0CNsiDT@@QEAA@XZ
  ??0CNsiData@@QEAA@AEBV0@@Z
  ??0CNsiData@@QEAA@XZ
  ??0CNsiDate@@QEAA@AEBV0@@Z
  ??0CNsiDate@@QEAA@XZ
  ??0CNsiDatetime@@QEAA@AEBV0@@Z
  ??0CNsiDatetime@@QEAA@XZ
  ??0CNsiDecimal@@QEAA@AEBV0@@Z
  ??0CNsiDecimal@@QEAA@I@Z
  ??0CNsiDecimal@@QEAA@II@Z
  ??0CNsiDecimal@@QEAA@XZ
  ??0CNsiDouble@@QEAA@AEBV0@@Z
  ??0CNsiDouble@@QEAA@XZ
  ??0CNsiExactNum@@IEAA@XZ
  ??0CNsiExactNum@@QEAA@AEBV0@@Z
  ??0CNsiFloat@@QEAA@AEBV0@@Z
  ??0CNsiFloat@@QEAA@I@Z
  ??0CNsiFloat@@QEAA@XZ
  ??0CNsiHostBuffer@@QEAA@AEBV0@@Z
  ??0CNsiHostBuffer@@QEAA@XZ
  ??0CNsiIQualifier@@QEAA@AEBV0@@Z
  ??0CNsiIQualifier@@QEAA@W4ENsiIType@@@Z
  ??0CNsiIQualifier@@QEAA@W4ENsiIType@@I@Z
  ??0CNsiIQualifier@@QEAA@W4ENsiIType@@II@Z
  ??0CNsiIQualifier@@QEAA@XZ
  ??0CNsiIRow@@QEAA@AEBV0@@Z
  ??0CNsiIRow@@QEAA@H@Z
  ??0CNsiIRow@@QEAA@XZ
  ??0CNsiIdent@@QEAA@AEBV0@@Z
  ??0CNsiIdent@@QEAA@AEBVCNsiUcStr@@0@Z
  ??0CNsiIdent@@QEAA@AEBVCNsiUcStr@@@Z
  ??0CNsiIdent@@QEAA@PEBD@Z
  ??0CNsiIdent@@QEAA@QEA_W@Z
  ??0CNsiIdent@@QEAA@XZ
  ??0CNsiInt@@QEAA@AEBV0@@Z
  ??0CNsiInt@@QEAA@XZ
  ??0CNsiInterval@@QEAA@AEBV0@@Z
  ??0CNsiInterval@@QEAA@XZ
  ??0CNsiList@@QEAA@AEBV0@@Z
  ??0CNsiList@@QEAA@XZ
  ??0CNsiNum@@IEAA@XZ
  ??0CNsiNum@@QEAA@AEBV0@@Z
  ??0CNsiNumeric@@QEAA@AEBV0@@Z
  ??0CNsiNumeric@@QEAA@I@Z
  ??0CNsiNumeric@@QEAA@II@Z
  ??0CNsiNumeric@@QEAA@XZ
  ??0CNsiObject@@QEAA@AEBV0@@Z
  ??0CNsiObject@@QEAA@XZ
  ??0CNsiParameter@@QEAA@AEBV0@@Z
  ??0CNsiParameter@@QEAA@PEBUtagDBPARAMINFO@@@Z
  ??0CNsiParameter@@QEAA@XZ
  ??0CNsiReal@@QEAA@AEBV0@@Z
  ??0CNsiReal@@QEAA@XZ
  ??0CNsiRow@@QEAA@AEBV0@@Z
  ??0CNsiRow@@QEAA@H@Z
  ??0CNsiSmallInt@@QEAA@AEBV0@@Z
  ??0CNsiSmallInt@@QEAA@XZ
  ??0CNsiTime@@QEAA@AEBV0@@Z
  ??0CNsiTime@@QEAA@AEBVCNsiDT@@@Z
  ??0CNsiTime@@QEAA@I@Z
  ??0CNsiTime@@QEAA@IAEBVCNsiDT@@@Z
  ??0CNsiTime@@QEAA@XZ
  ??0CNsiTimeStamp@@QEAA@AEBV0@@Z
  ??0CNsiTimeStamp@@QEAA@AEBVCNsiDT@@@Z
  ??0CNsiTimeStamp@@QEAA@I@Z
  ??0CNsiTimeStamp@@QEAA@IAEBVCNsiDT@@@Z
  ??0CNsiTimeStamp@@QEAA@XZ
  ??0CNsiUcStr@@QEAA@AEBV0@@Z
  ??0CNsiUcStr@@QEAA@PEBD0@Z
  ??0CNsiUcStr@@QEAA@PEBD@Z
  ??0CNsiUcStr@@QEAA@PEBDK@Z
  ??0CNsiUcStr@@QEAA@PEBV0@@Z
  ??0CNsiUcStr@@QEAA@PEB_W@Z
  ??0CNsiUcStr@@QEAA@XZ
  ??0CNsiYM@@QEAA@AEBV0@@Z
  ??0CNsiYM@@QEAA@W4ENsiIType@@@Z
  ??0CNsiYM@@QEAA@W4ENsiIType@@I@Z
  ??0CNsiYM@@QEAA@XZ
  ??0ColorModelInterface@Ntil@@QEAA@AEBV01@@Z
  ??0ColorModelInterface@Ntil@@QEAA@XZ
  ??0DataBuffer@Ntil@@QEAA@AEBV01@@Z
  ??0DataBuffer@Ntil@@QEAA@H@Z
  ??0DataBuffer@Ntil@@QEAA@XZ
  ??0DataModel@Ntil@@IEAA@W4DataModelType@DataModelAttributes@1@W4DataType@31@W4BitsPerPixel@31@@Z
  ??0DataModel@Ntil@@IEAA@W4DataModelType@DataModelAttributes@1@W4DataType@31@W4BitsPerPixel@31@H@Z
  ??0DataModel@Ntil@@IEAA@XZ
  ??0DataModel@Ntil@@QEAA@AEBV01@@Z
  ??0DataModel@Ntil@@QEAA@W4DataType@DataModelAttributes@1@W4BitsPerPixel@31@H@Z
  ??0DataModelAttributes@Ntil@@QEAA@AEBV01@@Z
  ??0DataModelAttributes@Ntil@@QEAA@XZ
  ??0DataStreamInterface@Ntil@@QEAA@AEBV01@@Z
  ??0DataStreamInterface@Ntil@@QEAA@XZ
  ??0DatabaseStorage@@IEAA@XZ
  ??0DatabaseStorage@@QEAA@AEBV0@@Z
  ??0DocumentStorage@@IEAA@XZ
  ??0DocumentStorage@@QEAA@AEBV0@@Z
  ??0FileReadDescriptor@Ntil@@QEAA@AEBV01@@Z
  ??0FileReadDescriptor@Ntil@@QEAA@AEBVFileSpecifier@1@@Z
  ??0FileReadDescriptor@Ntil@@QEAA@AEBVFileSpecifier@1@PEAVFindFileInterface@1@@Z
  ??0FileReadDescriptor@Ntil@@QEAA@AEBVFileSpecifier@1@PEBVImageFormatCodec@1@@Z
  ??0FileReadDescriptor@Ntil@@QEAA@AEBVFileSpecifier@1@PEBVImageFormatCodec@1@PEAVFindFileInterface@1@@Z
  ??0FileReadDescriptor@Ntil@@QEAA@PEAVDataStreamInterface@1@PEBVImageFormatCodec@1@@Z
  ??0FileReadDescriptorRep@Ntil@@QEAA@AEBV01@@Z
  ??0FileReadDescriptorRep@Ntil@@QEAA@XZ
  ??0FileSpecifier@Ntil@@QEAA@AEBV01@@Z
  ??0FileSpecifier@Ntil@@QEAA@AEBVStringBuffer@1@W4Type@01@@Z
  ??0FileSpecifier@Ntil@@QEAA@XZ
  ??0FileWriteDescriptor@Ntil@@QEAA@AEBV01@@Z
  ??0FileWriteDescriptor@Ntil@@QEAA@PEBVImageFormatCodec@1@@Z
  ??0FileWriteDescriptorRep@Ntil@@QEAA@AEBV01@@Z
  ??0FileWriteDescriptorRep@Ntil@@QEAA@XZ
  ??0FormatCodecAssociation@Ntil@@IEAA@W4AssociationType@01@H@Z
  ??0FormatCodecAssociation@Ntil@@QEAA@AEBV01@@Z
  ??0FormatCodecBooleanProperty@Ntil@@QEAA@AEBV01@@Z
  ??0FormatCodecBooleanProperty@Ntil@@QEAA@XZ
  ??0FormatCodecBooleanProperty@Ntil@@QEAA@_N@Z
  ??0FormatCodecColorProperty@Ntil@@QEAA@AEBV01@@Z
  ??0FormatCodecColorProperty@Ntil@@QEAA@W4ColorType@01@@Z
  ??0FormatCodecDensity@Ntil@@QEAA@AEBN0W4Units@01@@Z
  ??0FormatCodecDensity@Ntil@@QEAA@AEBV01@@Z
  ??0FormatCodecDoubleProperty@Ntil@@IEAA@AEBN00@Z
  ??0FormatCodecDoubleProperty@Ntil@@IEAA@XZ
  ??0FormatCodecDoubleProperty@Ntil@@QEAA@AEBV01@@Z
  ??0FormatCodecExclusivePropertySetInterface@Ntil@@IEAA@AEBV01@@Z
  ??0FormatCodecExclusivePropertySetInterface@Ntil@@IEAA@H@Z
  ??0FormatCodecExclusivePropertySetInterface@Ntil@@IEAA@XZ
  ??0FormatCodecInclusivePropertySetInterface@Ntil@@IEAA@AEBV01@@Z
  ??0FormatCodecInclusivePropertySetInterface@Ntil@@IEAA@H@Z
  ??0FormatCodecInclusivePropertySetInterface@Ntil@@IEAA@XZ
  ??0FormatCodecIntProperty@Ntil@@IEAA@HHH@Z
  ??0FormatCodecIntProperty@Ntil@@IEAA@XZ
  ??0FormatCodecIntProperty@Ntil@@QEAA@AEBV01@@Z
  ??0FormatCodecPropertyInterface@Ntil@@IEAA@AEBV01@@Z
  ??0FormatCodecPropertyInterface@Ntil@@IEAA@XZ
  ??0FormatCodecPropertySetIterator@Ntil@@IEAA@AEBV01@@Z
  ??0FormatCodecPropertySetIterator@Ntil@@IEAA@H@Z
  ??0FormatCodecPropertySetIterator@Ntil@@IEAA@XZ
  ??0FormatCodecStringProperty@Ntil@@IEAA@AEBVStringBuffer@1@H@Z
  ??0FormatCodecStringProperty@Ntil@@IEAA@XZ
  ??0FormatCodecStringProperty@Ntil@@QEAA@AEBV01@@Z
  ??0FormatCodecTransparency@Ntil@@IEAA@AEBV01@@Z
  ??0FormatCodecTransparency@Ntil@@IEAA@W4Model@01@@Z
  ??0INativeExtension@@QEAA@XZ
  ??0INcPcDataBuffer@@QEAA@AEBV0@@Z
  ??0INcPcDataBuffer@@QEAA@XZ
  ??0INcPcIndexProgress@@QEAA@$$QEAV0@@Z
  ??0INcPcIndexProgress@@QEAA@AEBV0@@Z
  ??0INcPcIndexProgress@@QEAA@XZ
  ??0INcPcPointFilter@@QEAA@$$QEAV0@@Z
  ??0INcPcPointFilter@@QEAA@AEBV0@@Z
  ??0INcPcPointFilter@@QEAA@XZ
  ??0INcPcPointProcessor@@QEAA@$$QEAV0@@Z
  ??0INcPcPointProcessor@@QEAA@AEBV0@@Z
  ??0INcPcPointProcessor@@QEAA@XZ
  ??0IWrapperQuery@@QEAA@XZ
  ??0Image@Ntil@@QEAA@AEAVFileReadDescriptor@1@W4TileSize@DataModel@1@@Z
  ??0Image@Ntil@@QEAA@AEBV01@@Z
  ??0Image@Ntil@@QEAA@AEBVSize@1@PEBVDataModel@1@UImagePixel@1@W4TileSize@31@@Z
  ??0Image@Ntil@@QEAA@PEAVRowProviderInterface@1@W4Orientation@1@W4TileSize@DataModel@1@@Z
  ??0Image@Ntil@@QEAA@PEAVRowProviderInterface@1@W4TileSize@DataModel@1@@Z
  ??0Image@Ntil@@QEAA@PEAXHHAEBVSize@1@PEBVDataModel@1@@Z
  ??0Image@Ntil@@QEAA@XZ
  ??0ImageConstructionException@Ntil@@QEAA@AEBV01@@Z
  ??0ImageConstructionException@Ntil@@QEAA@AEBVStringBuffer@1@W4ExceptionType@01@@Z
  ??0ImageContext@Ntil@@AEAA@PEAVImageContextRep@1@@Z
  ??0ImageContextException@Ntil@@QEAA@AEBV01@@Z
  ??0ImageContextException@Ntil@@QEAA@AEBVStringBuffer@1@W4ExceptionType@01@@Z
  ??0ImageContextRep@Ntil@@QEAA@AEBV01@@Z
  ??0ImageContextRep@Ntil@@QEAA@XZ
  ??0ImageException@Ntil@@QEAA@AEBV01@@Z
  ??0ImageException@Ntil@@QEAA@AEBVStringBuffer@1@W4ExceptionType@01@@Z
  ??0ImageFilter@Ntil@@IEAA@XZ
  ??0ImageFilter@Ntil@@QEAA@AEBV01@@Z
  ??0ImageFilterException@Ntil@@QEAA@AEBV01@@Z
  ??0ImageFilterException@Ntil@@QEAA@AEBVStringBuffer@1@W4ExceptionType@01@@Z
  ??0ImageFormatCodec@Ntil@@QEAA@AEBV01@@Z
  ??0ImageFormatCodec@Ntil@@QEAA@XZ
  ??0ImageFormatCodecStreamingInterface@Ntil@@QEAA@AEBV01@@Z
  ??0ImageFormatCodecStreamingInterface@Ntil@@QEAA@XZ
  ??0ImagePixel@Ntil@@QEAA@W4PixelType@DataModelAttributes@1@@Z
  ??0ImageReactorInterface@Ntil@@QEAA@AEBV01@@Z
  ??0ImageReactorInterface@Ntil@@QEAA@XZ
  ??0ImageRep@Ntil@@QEAA@AEBV01@@Z
  ??0ImageRep@Ntil@@QEAA@XZ
  ??0ImageView@Ntil@@QEAA@AEBV01@@Z
  ??0ImageView@Ntil@@QEAA@AEBVImage@1@AEBVSize@1@@Z
  ??0ImageView@Ntil@@QEAA@AEBVSize@1@UImagePixel@1@0@Z
  ??0JfifFormatCodec@Ntil@@QEAA@AEBV01@@Z
  ??0JfifFormatCodec@Ntil@@QEAA@XZ
  ??0LoadModuleMonitor@@QEAA@XZ
  ??0Matrix2d@Ntil@@QEAA@AEBV01@@Z
  ??0Matrix2d@Ntil@@QEAA@XZ
  ??0NTILException@Ntil@@QEAA@AEBV01@@Z
  ??0NTILException@Ntil@@QEAA@AEBVStringBuffer@1@@Z
  ??0NTILException@Ntil@@QEAA@XZ
  ??0Nc3PointAngleConstraint@@QEAA@$$QEAV0@@Z
  ??0Nc3PointAngleConstraint@@QEAA@AEBV0@@Z
  ??0Nc3PointAngleConstraint@@QEAA@W4SectorType@NcAngleConstraint@@@Z
  ??0Nc3PointAngleConstraint@@QEAA@XZ
  ??0NcAngleConstraint@@QEAA@$$QEAV0@@Z
  ??0NcAngleConstraint@@QEAA@AEBV0@@Z
  ??0NcAngleConstraint@@QEAA@W4SectorType@0@@Z
  ??0NcAngleConstraint@@QEAA@XZ
  ??0NcApDocManager@@QEAA@AEBV0@@Z
  ??0NcApDocManager@@QEAA@PEAVOdRxObject@@@Z
  ??0NcApDocManagerReactor@@QEAA@AEBV0@@Z
  ??0NcApDocManagerReactor@@QEAA@PEAVOdRxObject@@@Z
  ??0NcApDocManagerReactor@@QEAA@XZ
  ??0NcApDocument@@QEAA@AEBV0@@Z
  ??0NcApDocument@@QEAA@PEAVOdRxObject@@@Z
  ??0NcApDocumentIterator@@QEAA@$$QEAV0@@Z
  ??0NcApDocumentIterator@@QEAA@AEBV0@@Z
  ??0NcApDocumentIterator@@QEAA@PEAVOdRxObject@@@Z
  ??0NcApLayoutManager@@QEAA@$$QEAV0@@Z
  ??0NcApLayoutManager@@QEAA@AEBV0@@Z
  ??0NcApLayoutManager@@QEAA@PEAVOdRxObject@@@Z
  ??0NcApLongTransactionManager@@QEAA@$$QEAV0@@Z
  ??0NcApLongTransactionManager@@QEAA@AEBV0@@Z
  ??0NcApLongTransactionManager@@QEAA@PEAVOdRxObject@@@Z
  ??0NcApLongTransactionReactor@@QEAA@$$QEAV0@@Z
  ??0NcApLongTransactionReactor@@QEAA@AEBV0@@Z
  ??0NcApLongTransactionReactor@@QEAA@XZ
  ??0NcAutoConstrainEvaluationCallback@@QEAA@$$QEAV0@@Z
  ??0NcAutoConstrainEvaluationCallback@@QEAA@AEBV0@@Z
  ??0NcAutoConstrainEvaluationCallback@@QEAA@XZ
  ??0NcAxDocLock@@QEAA@AEBVNcDbObjectId@@W4DocLockType@0@@Z
  ??0NcAxDocLock@@QEAA@PEAVNcDbDatabase@@W4DocLockType@0@@Z
  ??0NcAxDocLock@@QEAA@XZ
  ??0NcAxMatrix3d@@QEAA@$$QEAV0@@Z
  ??0NcAxMatrix3d@@QEAA@AEBUtagVARIANT@@@Z
  ??0NcAxMatrix3d@@QEAA@AEBV0@@Z
  ??0NcAxMatrix3d@@QEAA@PEBUtagSAFEARRAY@@@Z
  ??0NcAxMatrix3d@@QEAA@PEBUtagVARIANT@@@Z
  ??0NcAxMatrix3d@@QEAA@XZ
  ??0NcAxObjectRef@@QEAA@AEAPEAVNcDbObject@@@Z
  ??0NcAxObjectRef@@QEAA@VNcDbObjectId@@@Z
  ??0NcAxObjectRef@@QEAA@XZ
  ??0NcAxPoint2d@@QEAA@$$QEAV0@@Z
  ??0NcAxPoint2d@@QEAA@AEBUtagVARIANT@@@Z
  ??0NcAxPoint2d@@QEAA@AEBV0@@Z
  ??0NcAxPoint2d@@QEAA@AEBVMcGeVector2d@@@Z
  ??0NcAxPoint2d@@QEAA@AEBVNcGePoint2d@@@Z
  ??0NcAxPoint2d@@QEAA@NN@Z
  ??0NcAxPoint2d@@QEAA@PEBUtagSAFEARRAY@@@Z
  ??0NcAxPoint2d@@QEAA@PEBUtagVARIANT@@@Z
  ??0NcAxPoint2d@@QEAA@XZ
  ??0NcAxPoint2dArray@@QEAA@$$QEAV0@@Z
  ??0NcAxPoint2dArray@@QEAA@AEBV0@@Z
  ??0NcAxPoint2dArray@@QEAA@XZ
  ??0NcAxPoint3d@@QEAA@$$QEAV0@@Z
  ??0NcAxPoint3d@@QEAA@AEBUtagVARIANT@@@Z
  ??0NcAxPoint3d@@QEAA@AEBV0@@Z
  ??0NcAxPoint3d@@QEAA@AEBVNcGePoint3d@@@Z
  ??0NcAxPoint3d@@QEAA@AEBVNcGeVector3d@@@Z
  ??0NcAxPoint3d@@QEAA@NNN@Z
  ??0NcAxPoint3d@@QEAA@PEBUtagSAFEARRAY@@@Z
  ??0NcAxPoint3d@@QEAA@PEBUtagVARIANT@@@Z
  ??0NcAxPoint3d@@QEAA@XZ
  ??0NcAxPoint3dArray@@QEAA@$$QEAV0@@Z
  ??0NcAxPoint3dArray@@QEAA@AEBV0@@Z
  ??0NcAxPoint3dArray@@QEAA@XZ
  ??0NcBaseObjectPtr@@IEAA@PEBVOdRxObject@@@Z
  ??0NcBaseObjectPtr@@IEAA@XZ
  ??0NcBrBrep@@QEAA@AEBV0@@Z
  ??0NcBrBrep@@QEAA@PEAVOdBrEntity@@@Z
  ??0NcBrBrep@@QEAA@XZ
  ??0NcBrBrepComplexTraverser@@QEAA@AEBV0@@Z
  ??0NcBrBrepComplexTraverser@@QEAA@XZ
  ??0NcBrBrepEdgeTraverser@@QEAA@AEBV0@@Z
  ??0NcBrBrepEdgeTraverser@@QEAA@XZ
  ??0NcBrBrepFaceTraverser@@QEAA@AEBV0@@Z
  ??0NcBrBrepFaceTraverser@@QEAA@XZ
  ??0NcBrBrepShellTraverser@@QEAA@AEBV0@@Z
  ??0NcBrBrepShellTraverser@@QEAA@XZ
  ??0NcBrBrepVertexTraverser@@QEAA@AEBV0@@Z
  ??0NcBrBrepVertexTraverser@@QEAA@XZ
  ??0NcBrComplex@@QEAA@AEBV0@@Z
  ??0NcBrComplex@@QEAA@PEAVOdBrComplex@@@Z
  ??0NcBrComplex@@QEAA@XZ
  ??0NcBrComplexShellTraverser@@QEAA@AEBV0@@Z
  ??0NcBrComplexShellTraverser@@QEAA@XZ
  ??0NcBrEdge@@QEAA@AEBV0@@Z
  ??0NcBrEdge@@QEAA@PEAVOdBrEntity@@@Z
  ??0NcBrEdge@@QEAA@XZ
  ??0NcBrEdgeLoopTraverser@@QEAA@AEBV0@@Z
  ??0NcBrEdgeLoopTraverser@@QEAA@XZ
  ??0NcBrElement2d@@QEAA@AEBV0@@Z
  ??0NcBrElement2d@@QEAA@XZ
  ??0NcBrElement2dNodeTraverser@@QEAA@AEBV0@@Z
  ??0NcBrElement2dNodeTraverser@@QEAA@XZ
  ??0NcBrElement@@IEAA@AEBV0@@Z
  ??0NcBrElement@@IEAA@XZ
  ??0NcBrEntity@@IEAA@AEBV0@@Z
  ??0NcBrEntity@@IEAA@XZ
  ??0NcBrEntity@@QEAA@PEAVOdBrEntity@@@Z
  ??0NcBrFace@@QEAA@AEBV0@@Z
  ??0NcBrFace@@QEAA@PEAVOdBrEntity@@@Z
  ??0NcBrFace@@QEAA@XZ
  ??0NcBrFaceLoopTraverser@@QEAA@AEBV0@@Z
  ??0NcBrFaceLoopTraverser@@QEAA@XZ
  ??0NcBrHit@@QEAA@AEBV0@@Z
  ??0NcBrHit@@QEAA@XZ
  ??0NcBrLoop@@QEAA@AEBV0@@Z
  ??0NcBrLoop@@QEAA@PEAVOdBrEntity@@@Z
  ??0NcBrLoop@@QEAA@XZ
  ??0NcBrLoopEdgeTraverser@@QEAA@AEBV0@@Z
  ??0NcBrLoopEdgeTraverser@@QEAA@XZ
  ??0NcBrLoopVertexTraverser@@QEAA@AEBV0@@Z
  ??0NcBrLoopVertexTraverser@@QEAA@XZ
  ??0NcBrMesh2d@@QEAA@AEBV0@@Z
  ??0NcBrMesh2d@@QEAA@XZ
  ??0NcBrMesh2dControl@@QEAA@AEBV0@@Z
  ??0NcBrMesh2dControl@@QEAA@XZ
  ??0NcBrMesh2dElement2dTraverser@@QEAA@AEBV0@@Z
  ??0NcBrMesh2dElement2dTraverser@@QEAA@XZ
  ??0NcBrMesh2dFilter@@AEAA@AEBV0@@Z
  ??0NcBrMesh2dFilter@@QEAA@XZ
  ??0NcBrMesh@@IEAA@AEBV0@@Z
  ??0NcBrMesh@@IEAA@XZ
  ??0NcBrMeshControl@@IEAA@AEBV0@@Z
  ??0NcBrMeshControl@@IEAA@XZ
  ??0NcBrMeshEntity@@IEAA@AEBV0@@Z
  ??0NcBrMeshEntity@@IEAA@XZ
  ??0NcBrNode@@QEAA@AEBV0@@Z
  ??0NcBrNode@@QEAA@XZ
  ??0NcBrShell@@QEAA@AEBV0@@Z
  ??0NcBrShell@@QEAA@PEAVOdBrEntity@@@Z
  ??0NcBrShell@@QEAA@XZ
  ??0NcBrShellFaceTraverser@@QEAA@AEBV0@@Z
  ??0NcBrShellFaceTraverser@@QEAA@XZ
  ??0NcBrTraverser@@IEAA@AEBV0@@Z
  ??0NcBrTraverser@@IEAA@XZ
  ??0NcBrTraverser@@QEAA@PEAVOdBrTraverser@@@Z
  ??0NcBrVertex@@QEAA@AEBV0@@Z
  ??0NcBrVertex@@QEAA@XZ
  ??0NcBrVertexEdgeTraverser@@QEAA@AEBV0@@Z
  ??0NcBrVertexEdgeTraverser@@QEAA@XZ
  ??0NcBrVertexLoopTraverser@@QEAA@AEBV0@@Z
  ??0NcBrVertexLoopTraverser@@QEAA@XZ
  ??0NcCenterPointConstraint@@QEAA@$$QEAV0@@Z
  ??0NcCenterPointConstraint@@QEAA@AEBV0@@Z
  ??0NcCenterPointConstraint@@QEAA@XZ
  ??0NcCmColor@@QEAA@$$QEAV0@@Z
  ??0NcCmColor@@QEAA@AEBV0@@Z
  ??0NcCmColor@@QEAA@AEBVNcCmColorBase@@@Z
  ??0NcCmColor@@QEAA@AEBVOdCmColor@@@Z
  ??0NcCmColor@@QEAA@PEBVOdCmColor@@@Z
  ??0NcCmColor@@QEAA@XZ
  ??0NcCmColorBase@@QEAA@AEBV0@@Z
  ??0NcCmColorBase@@QEAA@PEAVOdCmColorBase@@@Z
  ??0NcCmComplexColor@@QEAA@$$QEAV0@@Z
  ??0NcCmComplexColor@@QEAA@AEBV0@@Z
  ??0NcCmComplexColor@@QEAA@XZ
  ??0NcCmEntityColor@@QEAA@AEBV0@@Z
  ??0NcCmEntityColor@@QEAA@AEBVOdCmEntityColor@@@Z
  ??0NcCmEntityColor@@QEAA@EEE@Z
  ??0NcCmEntityColor@@QEAA@W4ColorMethod@0@@Z
  ??0NcCmEntityColor@@QEAA@XZ
  ??0NcCmTransparency@@QEAA@AEBVOdCmTransparency@@@Z
  ??0NcCmTransparency@@QEAA@E@Z
  ??0NcCmTransparency@@QEAA@N@Z
  ??0NcCmTransparency@@QEAA@W4transparencyMethod@0@@Z
  ??0NcCmTransparency@@QEAA@XZ
  ??0NcColinearConstraint@@QEAA@$$QEAV0@@Z
  ??0NcColinearConstraint@@QEAA@AEBV0@@Z
  ??0NcColinearConstraint@@QEAA@XZ
  ??0NcCompositeConstraint@@IEAA@XZ
  ??0NcCompositeConstraint@@QEAA@$$QEAV0@@Z
  ??0NcCompositeConstraint@@QEAA@AEBV0@@Z
  ??0NcConcentricConstraint@@QEAA@$$QEAV0@@Z
  ??0NcConcentricConstraint@@QEAA@AEBV0@@Z
  ??0NcConcentricConstraint@@QEAA@XZ
  ??0NcConstrained2PointsConstructionLine@@QEAA@$$QEAV0@@Z
  ??0NcConstrained2PointsConstructionLine@@QEAA@AEBV0@@Z
  ??0NcConstrained2PointsConstructionLine@@QEAA@AEBVNcGePoint3d@@0@Z
  ??0NcConstrained2PointsConstructionLine@@QEAA@XZ
  ??0NcConstrainedArc@@QEAA@$$QEAV0@@Z
  ??0NcConstrainedArc@@QEAA@AEBV0@@Z
  ??0NcConstrainedArc@@QEAA@VNcDbObjectId@@@Z
  ??0NcConstrainedArc@@QEAA@XZ
  ??0NcConstrainedBoundedEllipse@@QEAA@$$QEAV0@@Z
  ??0NcConstrainedBoundedEllipse@@QEAA@AEBV0@@Z
  ??0NcConstrainedBoundedEllipse@@QEAA@VNcDbObjectId@@@Z
  ??0NcConstrainedBoundedEllipse@@QEAA@XZ
  ??0NcConstrainedBoundedLine@@QEAA@$$QEAV0@@Z
  ??0NcConstrainedBoundedLine@@QEAA@AEBV0@@Z
  ??0NcConstrainedBoundedLine@@QEAA@VNcDbObjectId@@_N@Z
  ??0NcConstrainedBoundedLine@@QEAA@XZ
  ??0NcConstrainedCircle@@QEAA@$$QEAV0@@Z
  ??0NcConstrainedCircle@@QEAA@AEBV0@@Z
  ??0NcConstrainedCircle@@QEAA@VNcDbObjectId@@@Z
  ??0NcConstrainedCircle@@QEAA@_N@Z
  ??0NcConstrainedConstructionLine@@IEAA@XZ
  ??0NcConstrainedConstructionLine@@QEAA@$$QEAV0@@Z
  ??0NcConstrainedConstructionLine@@QEAA@AEBV0@@Z
  ??0NcConstrainedCurve@@IEAA@XZ
  ??0NcConstrainedCurve@@QEAA@$$QEAV0@@Z
  ??0NcConstrainedCurve@@QEAA@AEBV0@@Z
  ??0NcConstrainedDatumLine@@QEAA@$$QEAV0@@Z
  ??0NcConstrainedDatumLine@@QEAA@AEBV0@@Z
  ??0NcConstrainedDatumLine@@QEAA@AEBVNcGePoint3d@@AEBVNcGeVector3d@@@Z
  ??0NcConstrainedDatumLine@@QEAA@XZ
  ??0NcConstrainedEllipse@@QEAA@$$QEAV0@@Z
  ??0NcConstrainedEllipse@@QEAA@AEBV0@@Z
  ??0NcConstrainedEllipse@@QEAA@VNcDbObjectId@@@Z
  ??0NcConstrainedEllipse@@QEAA@_N@Z
  ??0NcConstrainedGeometry@@IEAA@XZ
  ??0NcConstrainedGeometry@@QEAA@$$QEAV0@@Z
  ??0NcConstrainedGeometry@@QEAA@AEBV0@@Z
  ??0NcConstrainedImplicitPoint@@QEAA@$$QEAV0@@Z
  ??0NcConstrainedImplicitPoint@@QEAA@AEBV0@@Z
  ??0NcConstrainedImplicitPoint@@QEAA@KW4ImplicitPointType@0@H@Z
  ??0NcConstrainedImplicitPoint@@QEAA@XZ
  ??0NcConstrainedLine@@QEAA@$$QEAV0@@Z
  ??0NcConstrainedLine@@QEAA@AEBV0@@Z
  ??0NcConstrainedLine@@QEAA@VNcDbObjectId@@@Z
  ??0NcConstrainedLine@@QEAA@_N@Z
  ??0NcConstrainedPoint@@QEAA@$$QEAV0@@Z
  ??0NcConstrainedPoint@@QEAA@AEBV0@@Z
  ??0NcConstrainedPoint@@QEAA@VNcDbObjectId@@@Z
  ??0NcConstrainedPoint@@QEAA@_N@Z
  ??0NcConstrainedRigidSet@@QEAA@$$QEAV0@@Z
  ??0NcConstrainedRigidSet@@QEAA@AEBV0@@Z
  ??0NcConstrainedRigidSet@@QEAA@XZ
  ??0NcConstrainedRigidSet@@QEAA@_NAEBVNcGeMatrix3d@@@Z
  ??0NcConstrainedSpline@@QEAA@$$QEAV0@@Z
  ??0NcConstrainedSpline@@QEAA@AEBV0@@Z
  ??0NcConstrainedSpline@@QEAA@VNcDbObjectId@@AEBVNcGeNurbCurve3d@@@Z
  ??0NcConstrainedSpline@@QEAA@XZ
  ??0NcConstraintGroupNode@@IEAA@XZ
  ??0NcConstraintGroupNode@@QEAA@AEBV0@@Z
  ??0NcDb2LineAngularDimension@@QEAA@$$QEAV0@@Z
  ??0NcDb2LineAngularDimension@@QEAA@AEBV0@@Z
  ??0NcDb2LineAngularDimension@@QEAA@AEBVNcGePoint3d@@0000PEB_WVNcDbObjectId@@@Z
  ??0NcDb2LineAngularDimension@@QEAA@PEAVOdRxObject@@@Z
  ??0NcDb2LineAngularDimension@@QEAA@XZ
  ??0NcDb2dPolyline@@QEAA@AEBV0@@Z
  ??0NcDb2dPolyline@@QEAA@PEAVOdRxObject@@@Z
  ??0NcDb2dPolyline@@QEAA@W4Poly2dType@NcDb@@AEAV?$NcArray@VNcGePoint3d@@V?$HostMemoryAllocator@VNcGePoint3d@@@@@@NHNNPEAV?$NcArray@NV?$HostMemoryAllocator@N@@@@PEAV?$NcArray@JV?$HostObjectsAllocator@J@@@@@Z
  ??0NcDb2dPolyline@@QEAA@XZ
  ??0NcDb2dVertex@@QEAA@$$QEAV0@@Z
  ??0NcDb2dVertex@@QEAA@AEBV0@@Z
  ??0NcDb2dVertex@@QEAA@AEBVNcGePoint3d@@NNNNJ@Z
  ??0NcDb2dVertex@@QEAA@PEAVOdRxObject@@@Z
  ??0NcDb2dVertex@@QEAA@XZ
  ??0NcDb3PointAngularDimension@@QEAA@$$QEAV0@@Z
  ??0NcDb3PointAngularDimension@@QEAA@AEBV0@@Z
  ??0NcDb3PointAngularDimension@@QEAA@AEBVNcGePoint3d@@000PEB_WVNcDbObjectId@@@Z
  ??0NcDb3PointAngularDimension@@QEAA@PEAVOdRxObject@@@Z
  ??0NcDb3PointAngularDimension@@QEAA@XZ
  ??0NcDb3dPolyline@@QEAA@AEBV0@@Z
  ??0NcDb3dPolyline@@QEAA@PEAVOdRxObject@@@Z
  ??0NcDb3dPolyline@@QEAA@W4Poly3dType@NcDb@@AEAV?$NcArray@VNcGePoint3d@@V?$HostMemoryAllocator@VNcGePoint3d@@@@@@H@Z
  ??0NcDb3dPolyline@@QEAA@XZ
  ??0NcDb3dPolylineVertex@@QEAA@$$QEAV0@@Z
  ??0NcDb3dPolylineVertex@@QEAA@AEBV0@@Z
  ??0NcDb3dPolylineVertex@@QEAA@AEBVNcGePoint3d@@@Z
  ??0NcDb3dPolylineVertex@@QEAA@PEAVOdRxObject@@@Z
  ??0NcDb3dPolylineVertex@@QEAA@XZ
  ??0NcDb3dProfile@@QEAA@AEBV0@@Z
  ??0NcDb3dProfile@@QEAA@AEBVNcDbFullSubentPath@@@Z
  ??0NcDb3dProfile@@QEAA@AEBVNcDbPathRef@@@Z
  ??0NcDb3dProfile@@QEAA@AEBVNcDbVertexRef@@@Z
  ??0NcDb3dProfile@@QEAA@PEAVNcDbEntity@@@Z
  ??0NcDb3dProfile@@QEAA@XZ
  ??0NcDb3dSolid@@QEAA@$$QEAV0@@Z
  ??0NcDb3dSolid@@QEAA@AEBV0@@Z
  ??0NcDb3dSolid@@QEAA@PEAVOdRxObject@@@Z
  ??0NcDb3dSolid@@QEAA@XZ
  ??0NcDbAbstractViewTable@@QEAA@$$QEAV0@@Z
  ??0NcDbAbstractViewTable@@QEAA@AEBV0@@Z
  ??0NcDbAbstractViewTable@@QEAA@PEAVOdRxObject@@@Z
  ??0NcDbAbstractViewTableIterator@@QEAA@$$QEAV0@@Z
  ??0NcDbAbstractViewTableIterator@@QEAA@AEBV0@@Z
  ??0NcDbAbstractViewTableIterator@@QEAA@XZ
  ??0NcDbAbstractViewTableRecord@@QEAA@$$QEAV0@@Z
  ??0NcDbAbstractViewTableRecord@@QEAA@AEBV0@@Z
  ??0NcDbAbstractViewTableRecord@@QEAA@PEAVOdRxObject@@@Z
  ??0NcDbActionsToEvaluateCallback@@QEAA@AEBV0@@Z
  ??0NcDbActionsToEvaluateCallback@@QEAA@XZ
  ??0NcDbAlignedDimension@@QEAA@$$QEAV0@@Z
  ??0NcDbAlignedDimension@@QEAA@AEBV0@@Z
  ??0NcDbAlignedDimension@@QEAA@AEBVNcGePoint3d@@00PEB_WVNcDbObjectId@@@Z
  ??0NcDbAlignedDimension@@QEAA@PEAVOdRxObject@@@Z
  ??0NcDbAlignedDimension@@QEAA@XZ
  ??0NcDbAlignment@@QEAA@$$QEAV0@@Z
  ??0NcDbAlignment@@QEAA@AEBV0@@Z
  ??0NcDbAlignment@@QEAA@XZ
  ??0NcDbAnnotationScale@@QEAA@AEBV0@@Z
  ??0NcDbAnnotationScale@@QEAA@PEAVOdRxObject@@@Z
  ??0NcDbAnnotationScale@@QEAA@XZ
  ??0NcDbAnnotationScale@@QEAA@_N@Z
  ??0NcDbAnnotationScaleReactor@@QEAA@$$QEAV0@@Z
  ??0NcDbAnnotationScaleReactor@@QEAA@AEBV0@@Z
  ??0NcDbAnnotationScaleReactor@@QEAA@XZ
  ??0NcDbAnnotativeObjectPE@@QEAA@$$QEAV0@@Z
  ??0NcDbAnnotativeObjectPE@@QEAA@AEBV0@@Z
  ??0NcDbAnnotativeObjectPE@@QEAA@PEAVOdRxObject@@@Z
  ??0NcDbAppEntityGrips@@QEAA@$$QEAV0@@Z
  ??0NcDbAppEntityGrips@@QEAA@AEBV0@@Z
  ??0NcDbAppEntityGrips@@QEAA@XZ
  ??0NcDbAppSystemVariables@@QEAA@XZ
  ??0NcDbArc@@QEAA@$$QEAV0@@Z
  ??0NcDbArc@@QEAA@AEBV0@@Z
  ??0NcDbArc@@QEAA@AEBVNcGePoint3d@@AEBVNcGeVector3d@@NNN@Z
  ??0NcDbArc@@QEAA@AEBVNcGePoint3d@@NNN@Z
  ??0NcDbArc@@QEAA@PEAVOdRxObject@@@Z
  ??0NcDbArc@@QEAA@XZ
  ??0NcDbArcDimension@@QEAA@$$QEAV0@@Z
  ??0NcDbArcDimension@@QEAA@AEBV0@@Z
  ??0NcDbArcDimension@@QEAA@AEBVNcGePoint3d@@000PEB_WVNcDbObjectId@@@Z
  ??0NcDbArcDimension@@QEAA@PEAVOdRxObject@@@Z
  ??0NcDbArcDimension@@QEAA@XZ
  ??0NcDbAssoc2dConstraintGroup@@QEAA@$$QEAV0@@Z
  ??0NcDbAssoc2dConstraintGroup@@QEAA@AEBV0@@Z
  ??0NcDbAssoc2dConstraintGroup@@QEAA@AEBVNcGePlane@@@Z
  ??0NcDbAssocAction@@QEAA@$$QEAV0@@Z
  ??0NcDbAssocAction@@QEAA@AEBV0@@Z
  ??0NcDbAssocAction@@QEAA@W4NcDbAssocCreateImpObject@@@Z
  ??0NcDbAssocActionBody@@QEAA@AEBV0@@Z
  ??0NcDbAssocActionBody@@QEAA@W4NcDbAssocCreateImpObject@@@Z
  ??0NcDbAssocActionParam@@QEAA@$$QEAV0@@Z
  ??0NcDbAssocActionParam@@QEAA@AEBV0@@Z
  ??0NcDbAssocActionParam@@QEAA@W4NcDbAssocCreateImpObject@@@Z
  ??0NcDbAssocAsmBodyActionParam@@QEAA@$$QEAV0@@Z
  ??0NcDbAssocAsmBodyActionParam@@QEAA@AEBV0@@Z
  ??0NcDbAssocAsmBodyActionParam@@QEAA@W4NcDbAssocCreateImpObject@@@Z
  ??0NcDbAssocBlendSurfaceActionBody@@QEAA@$$QEAV0@@Z
  ??0NcDbAssocBlendSurfaceActionBody@@QEAA@AEBV0@@Z
  ??0NcDbAssocBlendSurfaceActionBody@@QEAA@W4NcDbAssocCreateImpObject@@@Z
  ??0NcDbAssocCompoundActionParam@@QEAA@$$QEAV0@@Z
  ??0NcDbAssocCompoundActionParam@@QEAA@AEBV0@@Z
  ??0NcDbAssocCompoundActionParam@@QEAA@W4NcDbAssocCreateImpObject@@@Z
  ??0NcDbAssocDependency@@QEAA@$$QEAV0@@Z
  ??0NcDbAssocDependency@@QEAA@AEBV0@@Z
  ??0NcDbAssocDependency@@QEAA@W4NcDbAssocCreateImpObject@@@Z
  ??0NcDbAssocDependencyBody@@QEAA@AEBV0@@Z
  ??0NcDbAssocDependencyBody@@QEAA@W4NcDbAssocCreateImpObject@@@Z
  ??0NcDbAssocDependencyNotificationDisabler@@QEAA@_N@Z
  ??0NcDbAssocDependencyPE@@QEAA@$$QEAV0@@Z
  ??0NcDbAssocDependencyPE@@QEAA@AEBV0@@Z
  ??0NcDbAssocDependencyPE@@QEAA@XZ
  ??0NcDbAssocDimDependencyBody@@QEAA@AEBV0@@Z
  ??0NcDbAssocDimDependencyBody@@QEAA@XZ
  ??0NcDbAssocDimDependencyBodyBase@@QEAA@AEBV0@@Z
  ??0NcDbAssocDimDependencyBodyBase@@QEAA@W4NcDbAssocCreateImpObject@@@Z
  ??0NcDbAssocEdgeActionParam@@QEAA@$$QEAV0@@Z
  ??0NcDbAssocEdgeActionParam@@QEAA@AEBV0@@Z
  ??0NcDbAssocEdgeActionParam@@QEAA@W4NcDbAssocCreateImpObject@@@Z
  ??0NcDbAssocEdgeChamferActionBody@@QEAA@$$QEAV0@@Z
  ??0NcDbAssocEdgeChamferActionBody@@QEAA@AEBV0@@Z
  ??0NcDbAssocEdgeChamferActionBody@@QEAA@W4NcDbAssocCreateImpObject@@@Z
  ??0NcDbAssocEdgeFilletActionBody@@QEAA@$$QEAV0@@Z
  ??0NcDbAssocEdgeFilletActionBody@@QEAA@AEBV0@@Z
  ??0NcDbAssocEdgeFilletActionBody@@QEAA@W4NcDbAssocCreateImpObject@@@Z
  ??0NcDbAssocEdgePersSubentId@@QEAA@$$QEAV0@@Z
  ??0NcDbAssocEdgePersSubentId@@QEAA@AEBV0@@Z
  ??0NcDbAssocEdgePersSubentId@@QEAA@JJ@Z
  ??0NcDbAssocEdgePersSubentId@@QEAA@XZ
  ??0NcDbAssocEvaluationCallback@@QEAA@AEBV0@@Z
  ??0NcDbAssocEvaluationCallback@@QEAA@XZ
  ??0NcDbAssocExtendSurfaceActionBody@@QEAA@$$QEAV0@@Z
  ??0NcDbAssocExtendSurfaceActionBody@@QEAA@AEBV0@@Z
  ??0NcDbAssocExtendSurfaceActionBody@@QEAA@W4NcDbAssocCreateImpObject@@@Z
  ??0NcDbAssocExtrudedSurfaceActionBody@@QEAA@$$QEAV0@@Z
  ??0NcDbAssocExtrudedSurfaceActionBody@@QEAA@AEBV0@@Z
  ??0NcDbAssocExtrudedSurfaceActionBody@@QEAA@W4NcDbAssocCreateImpObject@@@Z
  ??0NcDbAssocFaceActionParam@@QEAA@$$QEAV0@@Z
  ??0NcDbAssocFaceActionParam@@QEAA@AEBV0@@Z
  ??0NcDbAssocFaceActionParam@@QEAA@W4NcDbAssocCreateImpObject@@@Z
  ??0NcDbAssocGeomDependency@@QEAA@$$QEAV0@@Z
  ??0NcDbAssocGeomDependency@@QEAA@AEBV0@@Z
  ??0NcDbAssocGeomDependency@@QEAA@W4NcDbAssocCreateImpObject@@@Z
  ??0NcDbAssocLoftedSurfaceActionBody@@QEAA@$$QEAV0@@Z
  ??0NcDbAssocLoftedSurfaceActionBody@@QEAA@AEBV0@@Z
  ??0NcDbAssocLoftedSurfaceActionBody@@QEAA@W4NcDbAssocCreateImpObject@@@Z
  ??0NcDbAssocManager@@QEAA@$$QEAV0@@Z
  ??0NcDbAssocManager@@QEAA@AEBV0@@Z
  ??0NcDbAssocManager@@QEAA@XZ
  ??0NcDbAssocNetwork@@QEAA@$$QEAV0@@Z
  ??0NcDbAssocNetwork@@QEAA@AEBV0@@Z
  ??0NcDbAssocNetwork@@QEAA@W4NcDbAssocCreateImpObject@@@Z
  ??0NcDbAssocNetworkEvaluationDisabler@@QEAA@PEAVNcDbDatabase@@_N@Z
  ??0NcDbAssocNetworkIterator@@QEAA@PEBVNcDbAssocNetwork@@@Z
  ??0NcDbAssocNetworkSurfaceActionBody@@QEAA@$$QEAV0@@Z
  ??0NcDbAssocNetworkSurfaceActionBody@@QEAA@AEBV0@@Z
  ??0NcDbAssocNetworkSurfaceActionBody@@QEAA@W4NcDbAssocCreateImpObject@@@Z
  ??0NcDbAssocOffsetSurfaceActionBody@@QEAA@$$QEAV0@@Z
  ??0NcDbAssocOffsetSurfaceActionBody@@QEAA@AEBV0@@Z
  ??0NcDbAssocOffsetSurfaceActionBody@@QEAA@W4NcDbAssocCreateImpObject@@@Z
  ??0NcDbAssocParamBasedActionBody@@QEAA@$$QEAV0@@Z
  ??0NcDbAssocParamBasedActionBody@@QEAA@AEBV0@@Z
  ??0NcDbAssocParamBasedActionBody@@QEAA@W4NcDbAssocCreateImpObject@@@Z
  ??0NcDbAssocPatchSurfaceActionBody@@QEAA@$$QEAV0@@Z
  ??0NcDbAssocPatchSurfaceActionBody@@QEAA@AEBV0@@Z
  ??0NcDbAssocPatchSurfaceActionBody@@QEAA@W4NcDbAssocCreateImpObject@@@Z
  ??0NcDbAssocPathActionParam@@QEAA@$$QEAV0@@Z
  ??0NcDbAssocPathActionParam@@QEAA@AEBV0@@Z
  ??0NcDbAssocPathActionParam@@QEAA@W4NcDbAssocCreateImpObject@@@Z
  ??0NcDbAssocPathBasedSurfaceActionBody@@QEAA@$$QEAV0@@Z
  ??0NcDbAssocPathBasedSurfaceActionBody@@QEAA@AEBV0@@Z
  ??0NcDbAssocPathBasedSurfaceActionBody@@QEAA@W4NcDbAssocCreateImpObject@@@Z
  ??0NcDbAssocPersSubentId@@QEAA@AEBV0@@Z
  ??0NcDbAssocPersSubentId@@QEAA@XZ
  ??0NcDbAssocPersSubentIdPE@@QEAA@$$QEAV0@@Z
  ??0NcDbAssocPersSubentIdPE@@QEAA@AEBV0@@Z
  ??0NcDbAssocPersSubentIdPE@@QEAA@XZ
  ??0NcDbAssocPlaneSurfaceActionBody@@QEAA@$$QEAV0@@Z
  ??0NcDbAssocPlaneSurfaceActionBody@@QEAA@AEBV0@@Z
  ??0NcDbAssocPlaneSurfaceActionBody@@QEAA@W4NcDbAssocCreateImpObject@@@Z
  ??0NcDbAssocRevolvedSurfaceActionBody@@QEAA@$$QEAV0@@Z
  ??0NcDbAssocRevolvedSurfaceActionBody@@QEAA@AEBV0@@Z
  ??0NcDbAssocRevolvedSurfaceActionBody@@QEAA@W4NcDbAssocCreateImpObject@@@Z
  ??0NcDbAssocSimplePersSubentId@@QEAA@$$QEAV0@@Z
  ??0NcDbAssocSimplePersSubentId@@QEAA@AEBV0@@Z
  ??0NcDbAssocSimplePersSubentId@@QEAA@VNcDbSubentId@@@Z
  ??0NcDbAssocSingleEdgePersSubentId@@QEAA@$$QEAV0@@Z
  ??0NcDbAssocSingleEdgePersSubentId@@QEAA@AEBV0@@Z
  ??0NcDbAssocSingleEdgePersSubentId@@QEAA@XZ
  ??0NcDbAssocSurfaceActionBody@@QEAA@$$QEAV0@@Z
  ??0NcDbAssocSurfaceActionBody@@QEAA@AEBV0@@Z
  ??0NcDbAssocSurfaceActionBody@@QEAA@W4NcDbAssocCreateImpObject@@@Z
  ??0NcDbAssocSweptSurfaceActionBody@@QEAA@$$QEAV0@@Z
  ??0NcDbAssocSweptSurfaceActionBody@@QEAA@AEBV0@@Z
  ??0NcDbAssocSweptSurfaceActionBody@@QEAA@W4NcDbAssocCreateImpObject@@@Z
  ??0NcDbAssocTrimSurfaceActionBody@@QEAA@$$QEAV0@@Z
  ??0NcDbAssocTrimSurfaceActionBody@@QEAA@AEBV0@@Z
  ??0NcDbAssocTrimSurfaceActionBody@@QEAA@W4NcDbAssocCreateImpObject@@@Z
  ??0NcDbAssocValueDependency@@QEAA@$$QEAV0@@Z
  ??0NcDbAssocValueDependency@@QEAA@AEBV0@@Z
  ??0NcDbAssocValueDependency@@QEAA@W4NcDbAssocCreateImpObject@@@Z
  ??0NcDbAssocValueProviderPE@@QEAA@$$QEAV0@@Z
  ??0NcDbAssocValueProviderPE@@QEAA@AEBV0@@Z
  ??0NcDbAssocValueProviderPE@@QEAA@XZ
  ??0NcDbAssocVariable@@QEAA@$$QEAV0@@Z
  ??0NcDbAssocVariable@@QEAA@AEBV0@@Z
  ??0NcDbAssocVariable@@QEAA@W4NcDbAssocCreateImpObject@@@Z
  ??0NcDbAssocVertexActionParam@@QEAA@$$QEAV0@@Z
  ??0NcDbAssocVertexActionParam@@QEAA@AEBV0@@Z
  ??0NcDbAssocVertexActionParam@@QEAA@W4NcDbAssocCreateImpObject@@@Z
  ??0NcDbAttribute@@QEAA@AEBV0@@Z
  ??0NcDbAttribute@@QEAA@AEBVNcGePoint3d@@PEB_W1VNcDbObjectId@@@Z
  ??0NcDbAttribute@@QEAA@PEAVOdRxObject@@@Z
  ??0NcDbAttribute@@QEAA@XZ
  ??0NcDbAttributeDefinition@@QEAA@$$QEAV0@@Z
  ??0NcDbAttributeDefinition@@QEAA@AEBV0@@Z
  ??0NcDbAttributeDefinition@@QEAA@AEBVNcGePoint3d@@PEB_W11VNcDbObjectId@@@Z
  ??0NcDbAttributeDefinition@@QEAA@PEAVOdRxObject@@@Z
  ??0NcDbAttributeDefinition@@QEAA@XZ
  ??0NcDbAuditInfo@@IEAA@PEAX@Z
  ??0NcDbAuditInfo@@QEAA@XZ
  ??0NcDbAuditRecreatePE@@QEAA@$$QEAV0@@Z
  ??0NcDbAuditRecreatePE@@QEAA@AEBV0@@Z
  ??0NcDbAuditRecreatePE@@QEAA@XZ
  ??0NcDbBackground@@QEAA@AEBV0@@Z
  ??0NcDbBackground@@QEAA@XZ
  ??0NcDbBlendOptions@@QEAA@XZ
  ??0NcDbBlockBegin@@QEAA@$$QEAV0@@Z
  ??0NcDbBlockBegin@@QEAA@AEBV0@@Z
  ??0NcDbBlockBegin@@QEAA@PEAVOdRxObject@@@Z
  ??0NcDbBlockBegin@@QEAA@XZ
  ??0NcDbBlockChangeIterator@@AEAA@AEBV0@@Z
  ??0NcDbBlockChangeIterator@@AEAA@VNcDbObjectId@@PEAVNcDbIndexUpdateData@@@Z
  ??0NcDbBlockChangeIterator@@AEAA@XZ
  ??0NcDbBlockEnd@@QEAA@$$QEAV0@@Z
  ??0NcDbBlockEnd@@QEAA@AEBV0@@Z
  ??0NcDbBlockEnd@@QEAA@PEAVOdRxObject@@@Z
  ??0NcDbBlockEnd@@QEAA@XZ
  ??0NcDbBlockInsertionPoints@@QEAA@$$QEAV0@@Z
  ??0NcDbBlockInsertionPoints@@QEAA@AEBV0@@Z
  ??0NcDbBlockInsertionPoints@@QEAA@XZ
  ??0NcDbBlockReference@@QEAA@$$QEAV0@@Z
  ??0NcDbBlockReference@@QEAA@AEBV0@@Z
  ??0NcDbBlockReference@@QEAA@AEBVNcGePoint3d@@VNcDbObjectId@@@Z
  ??0NcDbBlockReference@@QEAA@PEAVOdRxObject@@@Z
  ??0NcDbBlockReference@@QEAA@XZ
  ??0NcDbBlockReferenceIdIterator@@AEAA@XZ
  ??0NcDbBlockReferenceIdIterator@@QEAA@AEBV0@@Z
  ??0NcDbBlockTable@@QEAA@$$QEAV0@@Z
  ??0NcDbBlockTable@@QEAA@AEBV0@@Z
  ??0NcDbBlockTable@@QEAA@PEAVOdRxObject@@@Z
  ??0NcDbBlockTable@@QEAA@XZ
  ??0NcDbBlockTableIterator@@QEAA@$$QEAV0@@Z
  ??0NcDbBlockTableIterator@@QEAA@AEBV0@@Z
  ??0NcDbBlockTableIterator@@QEAA@PEAVOdDbSymbolTableIterator@@@Z
  ??0NcDbBlockTableRecord@@QEAA@AEBV0@@Z
  ??0NcDbBlockTableRecord@@QEAA@PEAVOdRxObject@@@Z
  ??0NcDbBlockTableRecord@@QEAA@XZ
  ??0NcDbBlockTableRecordIterator@@QEAA@AEBV0@@Z
  ??0NcDbBlockTableRecordIterator@@QEAA@PEAVOdDbObjectIterator@@@Z
  ??0NcDbBody@@QEAA@$$QEAV0@@Z
  ??0NcDbBody@@QEAA@AEBV0@@Z
  ??0NcDbBody@@QEAA@PEAVOdRxObject@@@Z
  ??0NcDbBody@@QEAA@XZ
  ??0NcDbBreakData@@QEAA@AEBV0@@Z
  ??0NcDbBreakData@@QEAA@XZ
  ??0NcDbBreakPointRef@@QEAA@AEBV0@@Z
  ??0NcDbBreakPointRef@@QEAA@XZ
  ??0NcDbCamera@@QEAA@AEBV0@@Z
  ??0NcDbCamera@@QEAA@XZ
  ??0NcDbCircle@@QEAA@$$QEAV0@@Z
  ??0NcDbCircle@@QEAA@AEBV0@@Z
  ??0NcDbCircle@@QEAA@AEBVNcGePoint3d@@AEBVNcGeVector3d@@N@Z
  ??0NcDbCircle@@QEAA@PEAVOdRxObject@@@Z
  ??0NcDbCircle@@QEAA@XZ
  ??0NcDbClassIterator@@IEAA@XZ
  ??0NcDbClassIterator@@QEAA@AEBV0@@Z
  ??0NcDbColor@@QEAA@AEBV0@@Z
  ??0NcDbColor@@QEAA@XZ
  ??0NcDbCompositeFilteredBlockIterator@@AEAA@AEBV0@@Z
  ??0NcDbCompositeFilteredBlockIterator@@IEAA@XZ
  ??0NcDbCompoundObjectId@@QEAA@AEBV0@@Z
  ??0NcDbCompoundObjectId@@QEAA@AEBVNcDbObjectId@@AEBV?$NcArray@VNcDbObjectId@@V?$HostObjectsAllocator@VNcDbObjectId@@@@@@PEAVNcDbDatabase@@@Z
  ??0NcDbCompoundObjectId@@QEAA@AEBVNcDbObjectId@@PEAVNcDbDatabase@@@Z
  ??0NcDbCompoundObjectId@@QEAA@XZ
  ??0NcDbCurve@@IEAA@XZ
  ??0NcDbCurve@@QEAA@$$QEAV0@@Z
  ??0NcDbCurve@@QEAA@AEBV0@@Z
  ??0NcDbCurve@@QEAA@PEAVOdRxObject@@@Z
  ??0NcDbCurvePath@@QEAA@AEBV0@@Z
  ??0NcDbCurvePath@@QEAA@XZ
  ??0NcDbCustomOsnapInfo@@QEAA@$$QEAV0@@Z
  ??0NcDbCustomOsnapInfo@@QEAA@AEBV0@@Z
  ??0NcDbCustomOsnapInfo@@QEAA@XZ
  ??0NcDbCustomOsnapMode2@@QEAA@$$QEAV0@@Z
  ??0NcDbCustomOsnapMode2@@QEAA@AEBV0@@Z
  ??0NcDbCustomOsnapMode2@@QEAA@XZ
  ??0NcDbCustomOsnapMode@@QEAA@AEBV0@@Z
  ??0NcDbCustomOsnapMode@@QEAA@XZ
  ??0NcDbDataCell@@QEAA@AEBV0@@Z
  ??0NcDbDataCell@@QEAA@AEBVNcDbHardOwnershipId@@@Z
  ??0NcDbDataCell@@QEAA@AEBVNcDbHardPointerId@@@Z
  ??0NcDbDataCell@@QEAA@AEBVNcDbObjectId@@@Z
  ??0NcDbDataCell@@QEAA@AEBVNcDbSoftOwnershipId@@@Z
  ??0NcDbDataCell@@QEAA@AEBVNcDbSoftPointerId@@@Z
  ??0NcDbDataCell@@QEAA@AEBVNcGePoint3d@@@Z
  ??0NcDbDataCell@@QEAA@AEBVNcGeVector3d@@@Z
  ??0NcDbDataCell@@QEAA@H@Z
  ??0NcDbDataCell@@QEAA@N@Z
  ??0NcDbDataCell@@QEAA@PEAVOdRxObject@@@Z
  ??0NcDbDataCell@@QEAA@PEB_W@Z
  ??0NcDbDataCell@@QEAA@XZ
  ??0NcDbDataCell@@QEAA@_N@Z
  ??0NcDbDataColumn@@QEAA@AEBV0@@Z
  ??0NcDbDataColumn@@QEAA@W4CellType@NcDbDataCell@@PEB_W@Z
  ??0NcDbDataColumn@@QEAA@XZ
  ??0NcDbDataLink@@QEAA@XZ
  ??0NcDbDataLinkManager@@IEAA@XZ
  ??0NcDbDataTable@@QEAA@AEBV0@@Z
  ??0NcDbDataTable@@QEAA@PEAVOdRxObject@@@Z
  ??0NcDbDataTable@@QEAA@XZ
  ??0NcDbDatabase@@QEAA@AEBV0@@Z
  ??0NcDbDatabase@@QEAA@PEAVOdRxObject@@@Z
  ??0NcDbDatabase@@QEAA@_N0@Z
  ??0NcDbDatabaseReactor@@QEAA@$$QEAV0@@Z
  ??0NcDbDatabaseReactor@@QEAA@AEBV0@@Z
  ??0NcDbDatabaseReactor@@QEAA@PEAVOdRxObject@@@Z
  ??0NcDbDatabaseReactor@@QEAA@XZ
  ??0NcDbDatabaseSummaryInfo@@IEAA@XZ
  ??0NcDbDatabaseSummaryInfo@@QEAA@AEBV0@@Z
  ??0NcDbDatabaseSummaryInfo@@QEAA@PEAVNcDbDatabase@@@Z
  ??0NcDbDate@@QEAA@AEBV0@@Z
  ??0NcDbDate@@QEAA@PEBVOdDbDate@@@Z
  ??0NcDbDate@@QEAA@W4InitialValue@0@@Z
  ??0NcDbDate@@QEAA@XZ
  ??0NcDbDeepCloneFiler@@QEAA@AEBV0@@Z
  ??0NcDbDeepCloneFiler@@QEAA@PEAVOdRxObject@@@Z
  ??0NcDbDeepCloneFiler@@QEAA@XZ
  ??0NcDbDgnDefinition@@QEAA@AEBV0@@Z
  ??0NcDbDgnDefinition@@QEAA@XZ
  ??0NcDbDgnRefFileData@@QEAA@$$QEAV0@@Z
  ??0NcDbDgnRefFileData@@QEAA@AEBV0@@Z
  ??0NcDbDgnRefFileData@@QEAA@XZ
  ??0NcDbDgnRefFileRepath@@QEAA@XZ
  ??0NcDbDgnReference@@QEAA@AEBV0@@Z
  ??0NcDbDgnReference@@QEAA@XZ
  ??0NcDbDgnUnderlayItem@@QEAA@$$QEAV0@@Z
  ??0NcDbDgnUnderlayItem@@QEAA@AEBV0@@Z
  ??0NcDbDgnUnderlayItem@@QEAA@XZ
  ??0NcDbDiametricDimension@@QEAA@$$QEAV0@@Z
  ??0NcDbDiametricDimension@@QEAA@AEBV0@@Z
  ??0NcDbDiametricDimension@@QEAA@AEBVNcGePoint3d@@0NPEB_WVNcDbObjectId@@@Z
  ??0NcDbDiametricDimension@@QEAA@PEAVOdRxObject@@@Z
  ??0NcDbDiametricDimension@@QEAA@XZ
  ??0NcDbDictionary@@QEAA@$$QEAV0@@Z
  ??0NcDbDictionary@@QEAA@AEBV0@@Z
  ??0NcDbDictionary@@QEAA@PEAVOdRxObject@@@Z
  ??0NcDbDictionary@@QEAA@XZ
  ??0NcDbDictionaryIterator@@QEAA@$$QEAV0@@Z
  ??0NcDbDictionaryIterator@@QEAA@AEBV0@@Z
  ??0NcDbDictionaryIterator@@QEAA@PEAVOdRxObject@@@Z
  ??0NcDbDictionaryWithDefault@@QEAA@$$QEAV0@@Z
  ??0NcDbDictionaryWithDefault@@QEAA@AEBV0@@Z
  ??0NcDbDictionaryWithDefault@@QEAA@PEAVOdRxObject@@@Z
  ??0NcDbDictionaryWithDefault@@QEAA@XZ
  ??0NcDbDimAssoc@@QEAA@AEBV0@@Z
  ??0NcDbDimAssoc@@QEAA@PEAVOdRxObject@@@Z
  ??0NcDbDimAssoc@@QEAA@XZ
  ??0NcDbDimData@@QEAA@AEBV0@@Z
  ??0NcDbDimData@@QEAA@PEAVNcDbDimension@@P6A?AVNcGeVector3d@@PEAV0@PEAVNcDbEntity@@NAEBV2@@ZIPEAXP6A?AV2@12PEB_W3@Z@Z
  ??0NcDbDimData@@QEAA@XZ
  ??0NcDbDimStyleTable@@QEAA@$$QEAV0@@Z
  ??0NcDbDimStyleTable@@QEAA@AEBV0@@Z
  ??0NcDbDimStyleTable@@QEAA@PEAVOdRxObject@@@Z
  ??0NcDbDimStyleTableIterator@@QEAA@$$QEAV0@@Z
  ??0NcDbDimStyleTableIterator@@QEAA@AEBV0@@Z
  ??0NcDbDimStyleTableIterator@@QEAA@XZ
  ??0NcDbDimStyleTableRecord@@QEAA@$$QEAV0@@Z
  ??0NcDbDimStyleTableRecord@@QEAA@AEBV0@@Z
  ??0NcDbDimStyleTableRecord@@QEAA@PEAVOdRxObject@@@Z
  ??0NcDbDimStyleTableRecord@@QEAA@XZ
  ??0NcDbDimension@@QEAA@$$QEAV0@@Z
  ??0NcDbDimension@@QEAA@AEBV0@@Z
  ??0NcDbDimension@@QEAA@PEAVOdRxObject@@@Z
  ??0NcDbDimension@@QEAA@XZ
  ??0NcDbDimensionStyleOverrule@@QEAA@$$QEAV0@@Z
  ??0NcDbDimensionStyleOverrule@@QEAA@AEBV0@@Z
  ??0NcDbDimensionStyleOverrule@@QEAA@XZ
  ??0NcDbDisableAnnoAutoScale@@QEAA@XZ
  ??0NcDbDoubleClickEdit@@QEAA@$$QEAV0@@Z
  ??0NcDbDoubleClickEdit@@QEAA@AEBV0@@Z
  ??0NcDbDoubleClickEdit@@QEAA@XZ
  ??0NcDbDwfDefinition@@QEAA@AEBV0@@Z
  ??0NcDbDwfDefinition@@QEAA@XZ
  ??0NcDbDwfReference@@QEAA@AEBV0@@Z
  ??0NcDbDwfReference@@QEAA@XZ
  ??0NcDbDwgFiler@@QEAA@AEBV0@@Z
  ??0NcDbDwgFiler@@QEAA@PEAVOdRxObject@@@Z
  ??0NcDbDwgFiler@@QEAA@XZ
  ??0NcDbDxfFiler@@QEAA@$$QEAV0@@Z
  ??0NcDbDxfFiler@@QEAA@AEBV0@@Z
  ??0NcDbDxfFiler@@QEAA@PEAVOdRxObject@@@Z
  ??0NcDbDxfFiler@@QEAA@XZ
  ??0NcDbDynBlockReference@@AEAA@XZ
  ??0NcDbDynBlockReference@@QEAA@AEBV0@@Z
  ??0NcDbDynBlockReference@@QEAA@PEAVNcDbBlockReference@@@Z
  ??0NcDbDynBlockReference@@QEAA@VNcDbObjectId@@@Z
  ??0NcDbDynBlockReferenceProperty@@QEAA@AEBV0@@Z
  ??0NcDbDynBlockReferenceProperty@@QEAA@XZ
  ??0NcDbDynBlockTableRecord@@QEAA@VNcDbObjectId@@@Z
  ??0NcDbDynamicUCSPE@@QEAA@$$QEAV0@@Z
  ??0NcDbDynamicUCSPE@@QEAA@AEBV0@@Z
  ??0NcDbDynamicUCSPE@@QEAA@XZ
  ??0NcDbEdgeRef@@QEAA@AEBV0@@Z
  ??0NcDbEdgeRef@@QEAA@AEBVNcDbCompoundObjectId@@AEBVNcDbSubentId@@1PEBVNcGeCurve3d@@@Z
  ??0NcDbEdgeRef@@QEAA@AEBVNcDbFullSubentPath@@@Z
  ??0NcDbEdgeRef@@QEAA@PEBVNcDbEntity@@@Z
  ??0NcDbEdgeRef@@QEAA@PEBVNcGeCurve3d@@@Z
  ??0NcDbEdgeRef@@QEAA@XZ
  ??0NcDbEllipse@@QEAA@$$QEAV0@@Z
  ??0NcDbEllipse@@QEAA@AEBV0@@Z
  ??0NcDbEllipse@@QEAA@AEBVNcGePoint3d@@AEBVNcGeVector3d@@1NNN@Z
  ??0NcDbEllipse@@QEAA@PEAVOdRxObject@@@Z
  ??0NcDbEllipse@@QEAA@XZ
  ??0NcDbEntity@@IEAA@XZ
  ??0NcDbEntity@@QEAA@AEBV0@@Z
  ??0NcDbEntity@@QEAA@PEAVOdRxObject@@@Z
  ??0NcDbEntityHyperlinkPE@@QEAA@$$QEAV0@@Z
  ??0NcDbEntityHyperlinkPE@@QEAA@AEBV0@@Z
  ??0NcDbEntityHyperlinkPE@@QEAA@XZ
  ??0NcDbEntityReactor@@QEAA@$$QEAV0@@Z
  ??0NcDbEntityReactor@@QEAA@AEBV0@@Z
  ??0NcDbEntityReactor@@QEAA@PEAVOdRxObject@@@Z
  ??0NcDbEntityReactor@@QEAA@XZ
  ??0NcDbEvalConnectable@@IEAA@XZ
  ??0NcDbEvalConnectable@@QEAA@AEBV0@@Z
  ??0NcDbEvalContext@@QEAA@AEBV0@@Z
  ??0NcDbEvalContext@@QEAA@XZ
  ??0NcDbEvalContextIterator@@AEAA@PEAVNcDbEvalContext@@@Z
  ??0NcDbEvalContextIterator@@QEAA@AEBV0@@Z
  ??0NcDbEvalContextIterator@@QEAA@XZ
  ??0NcDbEvalContextPair@@QEAA@AEBV0@@Z
  ??0NcDbEvalContextPair@@QEAA@PEB_WPEAX@Z
  ??0NcDbEvalContextPair@@QEAA@XZ
  ??0NcDbEvalEdgeInfo@@QEAA@KKJK@Z
  ??0NcDbEvalEdgeInfo@@QEAA@XZ
  ??0NcDbEvalExpr@@QEAA@AEBV0@@Z
  ??0NcDbEvalExpr@@QEAA@XZ
  ??0NcDbEvalGraph@@QEAA@AEBV0@@Z
  ??0NcDbEvalGraph@@QEAA@XZ
  ??0NcDbEvalVariant@@QEAA@AEBN@Z
  ??0NcDbEvalVariant@@QEAA@AEBUresbuf@@@Z
  ??0NcDbEvalVariant@@QEAA@AEBV0@@Z
  ??0NcDbEvalVariant@@QEAA@AEBVNcDbObjectId@@@Z
  ??0NcDbEvalVariant@@QEAA@AEBVNcGePoint2d@@@Z
  ??0NcDbEvalVariant@@QEAA@AEBVNcGePoint3d@@@Z
  ??0NcDbEvalVariant@@QEAA@F@Z
  ??0NcDbEvalVariant@@QEAA@J@Z
  ??0NcDbEvalVariant@@QEAA@PEBV0@@Z
  ??0NcDbEvalVariant@@QEAA@PEB_W@Z
  ??0NcDbEvalVariant@@QEAA@XZ
  ??0NcDbExtents@@QEAA@AEBV0@@Z
  ??0NcDbExtents@@QEAA@AEBVNcGePoint3d@@0@Z
  ??0NcDbExtents@@QEAA@AEBVOdGeExtents3d@@@Z
  ??0NcDbExtents@@QEAA@XZ
  ??0NcDbExtrudedSurface@@QEAA@AEBV0@@Z
  ??0NcDbExtrudedSurface@@QEAA@PEAVOdRxObject@@@Z
  ??0NcDbExtrudedSurface@@QEAA@XZ
  ??0NcDbFace@@QEAA@$$QEAV0@@Z
  ??0NcDbFace@@QEAA@AEBV0@@Z
  ??0NcDbFace@@QEAA@AEBVNcGePoint3d@@000HHHH@Z
  ??0NcDbFace@@QEAA@AEBVNcGePoint3d@@00HHHH@Z
  ??0NcDbFace@@QEAA@PEAVOdRxObject@@@Z
  ??0NcDbFace@@QEAA@XZ
  ??0NcDbFaceRecord@@QEAA@$$QEAV0@@Z
  ??0NcDbFaceRecord@@QEAA@AEBV0@@Z
  ??0NcDbFaceRecord@@QEAA@FFFF@Z
  ??0NcDbFaceRecord@@QEAA@PEAVOdRxObject@@@Z
  ??0NcDbFaceRecord@@QEAA@XZ
  ??0NcDbFaceRef@@QEAA@AEBV0@@Z
  ??0NcDbFaceRef@@QEAA@AEBVNcDbCompoundObjectId@@AEBVNcDbSubentId@@PEAVBODY@@@Z
  ??0NcDbFaceRef@@QEAA@XZ
  ??0NcDbFcf@@QEAA@AEBV0@@Z
  ??0NcDbFcf@@QEAA@PEB_WAEBVNcGePoint3d@@AEBVNcGeVector3d@@2@Z
  ??0NcDbFcf@@QEAA@XZ
  ??0NcDbField@@QEAA@PEB_W_N@Z
  ??0NcDbField@@QEAA@XZ
  ??0NcDbFilter@@QEAA@AEBV0@@Z
  ??0NcDbFilter@@QEAA@XZ
  ??0NcDbFilteredBlockIterator@@QEAA@AEBV0@@Z
  ??0NcDbFilteredBlockIterator@@QEAA@XZ
  ??0NcDbFormattedTableData@@QEAA@AEBV0@@Z
  ??0NcDbFormattedTableData@@QEAA@XZ
  ??0NcDbFrame@@IEAA@XZ
  ??0NcDbFrame@@QEAA@AEBV0@@Z
  ??0NcDbFullSubentPath@@QEAA@AEBV0@@Z
  ??0NcDbFullSubentPath@@QEAA@K_J@Z
  ??0NcDbFullSubentPath@@QEAA@V?$NcArray@VNcDbObjectId@@V?$HostObjectsAllocator@VNcDbObjectId@@@@@@VNcDbSubentId@@@Z
  ??0NcDbFullSubentPath@@QEAA@VNcDbObjectId@@K_J@Z
  ??0NcDbFullSubentPath@@QEAA@VNcDbObjectId@@VNcDbSubentId@@@Z
  ??0NcDbFullSubentPath@@QEAA@XZ
  ??0NcDbGeoData@@QEAA@XZ
  ??0NcDbGeomRef@@QEAA@AEBV0@@Z
  ??0NcDbGeomRef@@QEAA@XZ
  ??0NcDbGeometryOverrule@@QEAA@AEBV0@@Z
  ??0NcDbGeometryOverrule@@QEAA@PEAVOdRxObject@@@Z
  ??0NcDbGeometryOverrule@@QEAA@XZ
  ??0NcDbGradientBackground@@QEAA@AEBV0@@Z
  ??0NcDbGradientBackground@@QEAA@XZ
  ??0NcDbGraph@@AEAA@AEBV0@@Z
  ??0NcDbGraph@@QEAA@PEAVNcDbGraphNode@@@Z
  ??0NcDbGraph@@QEAA@PEAVOdDbGraph@@@Z
  ??0NcDbGraphNode@@AEAA@AEBV0@@Z
  ??0NcDbGraphNode@@QEAA@PEAVOdDbGraphNode@@@Z
  ??0NcDbGraphNode@@QEAA@PEAX@Z
  ??0NcDbGraphStack@@QEAA@AEBV0@@Z
  ??0NcDbGraphStack@@QEAA@HH@Z
  ??0NcDbGripData@@QEAA@AEBV0@@Z
  ??0NcDbGripData@@QEAA@AEBVNcGePoint3d@@PEAXP6A?AW4ReturnValue@NcDbGripOperations@@PEAV0@AEBVNcDbObjectId@@H@Z4P6A?AW423@AEAV?$NcArray@VNcDbGripData@@V?$HostMemoryAllocator@VNcDbGripData@@@@@@AEBV?$NcArray@VNcDbObjectId@@V?$HostObjectsAllocator@VNcDbObjectId@@@@@@AEAPEA_WAEAPEAUHMENU__@@AEAP6AXI@Z@ZP6A_N2PEAVNcGiWorldDraw@@3W4DrawType@3@PEAV1@N@ZP6AX2PEAVNcGiViewportDrawNrx@@3W493@PEAV1@H@ZP6AX23W4GripStatus@3@@ZP6APEB_W2@ZP6AX23NAEAV?$NcArray@PEAVNcDbDimData@@V?$HostMemoryAllocator@PEAVNcDbDimData@@@@@@@ZP6AX23NAEAV?$NcArray@PEAVNcDbDimData@@V?$HostMemoryAllocator@PEAVNcDbDimData@@@@@@@ZIPEAV1@P6A?AW423@23AEA_NAEAV1@AEBVNcGiViewport@@3_NH00000W4OsnapMask@NcDb@@AEBV?$NcArray@PEAVNcDbCustomOsnapMode@@V?$HostObjectsAllocator@PEAVNcDbCustomOsnapMode@@@@@@W4OsnapMask@NcDb@@AEBV?$NcArray@PEAVNcDbCustomOsnapMode@@V?$HostObjectsAllocator@PEAVNcDbCustomOsnapMode@@@@@@6AEBV?$NcArray@V?$NcArray@VNcDbObjectId@@V?$HostObjectsAllocator@VNcDbObjectId@@@@@@V?$HostObjectsAllocator@V?$NcArray@VNcDbObjectId@@V?$HostObjectsAllocator@VNcDbObjectId@@@@@@@@@@AEBV?$NcArray@_JV?$HostMemoryAllocator@_J@@@@6AEBV?$NcArray@V?$NcArray@VNcDbObjectId@@V?$HostObjectsAllocator@VNcDbObjectId@@@@@@V?$HostObjectsAllocator@V?$NcArray@VNcDbObjectId@@V?$HostObjectsAllocator@VNcDbObjectId@@@@@@@@@@AEBV?$NcArray@_JV?$HostMemoryAllocator@_J@@@@AEBV?$NcArray@PEAVNcGeCurve3d@@V?$HostObjectsAllocator@PEAVNcGeCurve3d@@@@@@0@Z@Z
  ??0NcDbGripData@@QEAA@AEBVNcGePoint3d@@PEAXPEAVNcRxClass@@P6A?AW4ReturnValue@NcDbGripOperations@@PEAV0@AEBVNcDbObjectId@@H@Z5P6A?AW434@AEAV?$NcArray@VNcDbGripData@@V?$HostMemoryAllocator@VNcDbGripData@@@@@@AEBV?$NcArray@VNcDbObjectId@@V?$HostObjectsAllocator@VNcDbObjectId@@@@@@AEAPEA_WAEAPEAUHMENU__@@AEAP6AXI@Z@ZP6A_N3PEAVNcGiWorldDraw@@4W4DrawType@4@PEAV1@N@ZP6AX3PEAVNcGiViewportDrawNrx@@4W4DrawType@4@PEAV1@H@ZP6AX34W4GripStatus@4@@ZP6APEB_W3@ZP6AX34NAEAV?$NcArray@PEAVNcDbDimData@@V?$HostMemoryAllocator@PEAVNcDbDimData@@@@@@@ZP6AX34NAEAV?$NcArray@PEAVNcDbDimData@@V?$HostMemoryAllocator@PEAVNcDbDimData@@@@@@@ZIPEAV1@P6A?AW434@34AEA_NAEAV1@AEBVNcGiViewport@@4_NH00000W4OsnapMask@NcDb@@AEBV?$NcArray@PEAVNcDbCustomOsnapMode@@V?$HostObjectsAllocator@PEAVNcDbCustomOsnapMode@@@@@@W4OsnapMask@NcDb@@AEBV?$NcArray@PEAVNcDbCustomOsnapMode@@V?$HostObjectsAllocator@PEAVNcDbCustomOsnapMode@@@@@@7AEBV?$NcArray@V?$NcArray@VNcDbObjectId@@V?$HostObjectsAllocator@VNcDbObjectId@@@@@@V?$HostObjectsAllocator@V?$NcArray@VNcDbObjectId@@V?$HostObjectsAllocator@VNcDbObjectId@@@@@@@@@@AEBV?$NcArray@_JV?$HostMemoryAllocator@_J@@@@7AEBV?$NcArray@V?$NcArray@VNcDbObjectId@@V?$HostObjectsAllocator@VNcDbObjectId@@@@@@V?$HostObjectsAllocator@V?$NcArray@VNcDbObjectId@@V?$HostObjectsAllocator@VNcDbObjectId@@@@@@@@@@AEBV?$NcArray@_JV?$HostMemoryAllocator@_J@@@@AEBV?$NcArray@PEAVNcGeCurve3d@@V?$HostObjectsAllocator@PEAVNcGeCurve3d@@@@@@0@Z@Z
  ??0NcDbGripData@@QEAA@AEBVOdDbGripData@@@Z
  ??0NcDbGripData@@QEAA@XZ
  ??0NcDbGripOverrule@@QEAA@$$QEAV0@@Z
  ??0NcDbGripOverrule@@QEAA@AEBV0@@Z
  ??0NcDbGripOverrule@@QEAA@XZ
  ??0NcDbGroundPlaneBackground@@QEAA@AEBV0@@Z
  ??0NcDbGroundPlaneBackground@@QEAA@XZ
  ??0NcDbGroup@@QEAA@$$QEAV0@@Z
  ??0NcDbGroup@@QEAA@AEBV0@@Z
  ??0NcDbGroup@@QEAA@PEAVOdRxObject@@@Z
  ??0NcDbGroup@@QEAA@PEB_W_N@Z
  ??0NcDbGroup@@QEAA@XZ
  ??0NcDbGroupIterator@@QEAA@$$QEAV0@@Z
  ??0NcDbGroupIterator@@QEAA@AEBV0@@Z
  ??0NcDbGroupIterator@@QEAA@PEAVOdRxObject@@@Z
  ??0NcDbHandle@@QEAA@AEBV0@@Z
  ??0NcDbHandle@@QEAA@AEB_K@Z
  ??0NcDbHandle@@QEAA@HH@Z
  ??0NcDbHandle@@QEAA@PEBVOdDbHandle@@@Z
  ??0NcDbHandle@@QEAA@PEB_K@Z
  ??0NcDbHandle@@QEAA@PEB_W@Z
  ??0NcDbHandle@@QEAA@XZ
  ??0NcDbHardOwnershipId@@QEAA@AEBVNcDbObjectId@@@Z
  ??0NcDbHardOwnershipId@@QEAA@PEBVOdDbStub@@@Z
  ??0NcDbHardOwnershipId@@QEAA@XZ
  ??0NcDbHardPointerId@@QEAA@AEBVNcDbObjectId@@@Z
  ??0NcDbHardPointerId@@QEAA@PEBVOdDbStub@@@Z
  ??0NcDbHardPointerId@@QEAA@XZ
  ??0NcDbHatch@@QEAA@AEBV0@@Z
  ??0NcDbHatch@@QEAA@PEAVOdRxObject@@@Z
  ??0NcDbHatch@@QEAA@XZ
  ??0NcDbHelix@@QEAA@AEBV0@@Z
  ??0NcDbHelix@@QEAA@XZ
  ??0NcDbHighlightOverrule@@QEAA@AEBV0@@Z
  ??0NcDbHighlightOverrule@@QEAA@PEAVOdRxObject@@@Z
  ??0NcDbHighlightOverrule@@QEAA@XZ
  ??0NcDbHighlightStateOverrule@@QEAA@$$QEAV0@@Z
  ??0NcDbHighlightStateOverrule@@QEAA@AEBV0@@Z
  ??0NcDbHighlightStateOverrule@@QEAA@XZ
  ??0NcDbHomeView@@QEAA@AEBV0@@Z
  ??0NcDbHomeView@@QEAA@XZ
  ??0NcDbHostApplicationProgressMeter@@QEAA@AEBV0@@Z
  ??0NcDbHostApplicationProgressMeter@@QEAA@PEAVOdDbHostAppProgressMeter@@@Z
  ??0NcDbHostApplicationServices@@QEAA@AEBV0@@Z
  ??0NcDbHostApplicationServices@@QEAA@H@Z
  ??0NcDbHostApplicationServices@@QEAA@PEAVOdRxObject@@@Z
  ??0NcDbIdMapping@@QEAA@$$QEAV0@@Z
  ??0NcDbIdMapping@@QEAA@AEBV0@@Z
  ??0NcDbIdMapping@@QEAA@PEAVOdRxObject@@@Z
  ??0NcDbIdMapping@@QEAA@XZ
  ??0NcDbIdMappingIter@@QEAA@$$QEAV0@@Z
  ??0NcDbIdMappingIter@@QEAA@AEBV0@@Z
  ??0NcDbIdMappingIter@@QEAA@AEBVNcDbIdMapping@@@Z
  ??0NcDbIdPair@@QEAA@AEBV0@@Z
  ??0NcDbIdPair@@QEAA@VNcDbObjectId@@0_N11@Z
  ??0NcDbIdPair@@QEAA@XZ
  ??0NcDbImage@@QEAA@$$QEAV0@@Z
  ??0NcDbImage@@QEAA@AEBV0@@Z
  ??0NcDbImage@@QEAA@PEAVOdRxObject@@@Z
  ??0NcDbImage@@QEAA@XZ
  ??0NcDbImageBackground@@QEAA@AEBV0@@Z
  ??0NcDbImageBackground@@QEAA@XZ
  ??0NcDbIndex@@QEAA@AEBV0@@Z
  ??0NcDbIndex@@QEAA@XZ
  ??0NcDbIndexUpdateDataIterator@@QEAA@PEBVNcDbIndexUpdateData@@@Z
  ??0NcDbInterferencePE@@QEAA@$$QEAV0@@Z
  ??0NcDbInterferencePE@@QEAA@AEBV0@@Z
  ??0NcDbInterferencePE@@QEAA@XZ
  ??0NcDbJoinEntityPE@@QEAA@$$QEAV0@@Z
  ??0NcDbJoinEntityPE@@QEAA@AEBV0@@Z
  ??0NcDbJoinEntityPE@@QEAA@XZ
  ??0NcDbLayerFilter@@QEAA@AEBV0@@Z
  ??0NcDbLayerFilter@@QEAA@XZ
  ??0NcDbLayerIndex@@QEAA@AEBV0@@Z
  ??0NcDbLayerIndex@@QEAA@XZ
  ??0NcDbLayerIndexIterator@@QEAA@AEBV0@@Z
  ??0NcDbLayerIndexIterator@@QEAA@PEBVNcDbLayerIndex@@PEBVNcDbLayerFilter@@@Z
  ??0NcDbLayerStateManager@@QEAA@AEBV0@@Z
  ??0NcDbLayerStateManager@@QEAA@PEAVNcDbDatabase@@@Z
  ??0NcDbLayerStateManager@@QEAA@XZ
  ??0NcDbLayerStateManagerReactor@@QEAA@$$QEAV0@@Z
  ??0NcDbLayerStateManagerReactor@@QEAA@AEBV0@@Z
  ??0NcDbLayerStateManagerReactor@@QEAA@XZ
  ??0NcDbLayerTable@@QEAA@$$QEAV0@@Z
  ??0NcDbLayerTable@@QEAA@AEBV0@@Z
  ??0NcDbLayerTable@@QEAA@PEAVOdRxObject@@@Z
  ??0NcDbLayerTable@@QEAA@XZ
  ??0NcDbLayerTableIterator@@QEAA@$$QEAV0@@Z
  ??0NcDbLayerTableIterator@@QEAA@AEBV0@@Z
  ??0NcDbLayerTableIterator@@QEAA@XZ
  ??0NcDbLayerTableRecord@@QEAA@$$QEAV0@@Z
  ??0NcDbLayerTableRecord@@QEAA@AEBV0@@Z
  ??0NcDbLayerTableRecord@@QEAA@PEAVOdRxObject@@@Z
  ??0NcDbLayerTableRecord@@QEAA@XZ
  ??0NcDbLayout@@QEAA@$$QEAV0@@Z
  ??0NcDbLayout@@QEAA@AEBV0@@Z
  ??0NcDbLayout@@QEAA@PEAVOdRxObject@@@Z
  ??0NcDbLayout@@QEAA@XZ
  ??0NcDbLayoutManager@@QEAA@$$QEAV0@@Z
  ??0NcDbLayoutManager@@QEAA@AEBV0@@Z
  ??0NcDbLayoutManager@@QEAA@PEAVOdRxObject@@@Z
  ??0NcDbLayoutManagerReactor@@QEAA@AEBV0@@Z
  ??0NcDbLayoutManagerReactor@@QEAA@PEAVOdRxObject@@@Z
  ??0NcDbLayoutManagerReactor@@QEAA@XZ
  ??0NcDbLeader@@QEAA@$$QEAV0@@Z
  ??0NcDbLeader@@QEAA@AEBV0@@Z
  ??0NcDbLeader@@QEAA@PEAVOdRxObject@@@Z
  ??0NcDbLeader@@QEAA@XZ
  ??0NcDbLight@@QEAA@AEBV0@@Z
  ??0NcDbLight@@QEAA@XZ
  ??0NcDbLine@@QEAA@$$QEAV0@@Z
  ??0NcDbLine@@QEAA@AEBV0@@Z
  ??0NcDbLine@@QEAA@AEBVNcGePoint3d@@0@Z
  ??0NcDbLine@@QEAA@PEAVOdRxObject@@@Z
  ??0NcDbLine@@QEAA@XZ
  ??0NcDbLinetypeTable@@QEAA@$$QEAV0@@Z
  ??0NcDbLinetypeTable@@QEAA@AEBV0@@Z
  ??0NcDbLinetypeTable@@QEAA@PEAVOdRxObject@@@Z
  ??0NcDbLinetypeTable@@QEAA@XZ
  ??0NcDbLinetypeTableIterator@@QEAA@$$QEAV0@@Z
  ??0NcDbLinetypeTableIterator@@QEAA@AEBV0@@Z
  ??0NcDbLinetypeTableIterator@@QEAA@XZ
  ??0NcDbLinetypeTableRecord@@QEAA@$$QEAV0@@Z
  ??0NcDbLinetypeTableRecord@@QEAA@AEBV0@@Z
  ??0NcDbLinetypeTableRecord@@QEAA@PEAVOdRxObject@@@Z
  ??0NcDbLinetypeTableRecord@@QEAA@XZ
  ??0NcDbLinkedData@@QEAA@AEBV0@@Z
  ??0NcDbLinkedData@@QEAA@XZ
  ??0NcDbLinkedTableData@@QEAA@AEBV0@@Z
  ??0NcDbLinkedTableData@@QEAA@XZ
  ??0NcDbLoftOptions@@QEAA@AEBV0@@Z
  ??0NcDbLoftOptions@@QEAA@XZ
  ??0NcDbLoftProfile@@QEAA@AEBV0@@Z
  ??0NcDbLoftProfile@@QEAA@AEBVNcDbPathRef@@@Z
  ??0NcDbLoftProfile@@QEAA@AEBVNcGePoint3d@@@Z
  ??0NcDbLoftProfile@@QEAA@PEAVNcDbEntity@@@Z
  ??0NcDbLoftProfile@@QEAA@XZ
  ??0NcDbLongTransWorkSetIterator@@QEAA@$$QEAV0@@Z
  ??0NcDbLongTransWorkSetIterator@@QEAA@AEBV0@@Z
  ??0NcDbLongTransWorkSetIterator@@QEAA@PEAVOdRxObject@@@Z
  ??0NcDbLongTransaction@@QEAA@$$QEAV0@@Z
  ??0NcDbLongTransaction@@QEAA@AEBV0@@Z
  ??0NcDbLongTransaction@@QEAA@PEAVOdRxObject@@@Z
  ??0NcDbLongTransaction@@QEAA@XZ
  ??0NcDbMInsertBlock@@QEAA@$$QEAV0@@Z
  ??0NcDbMInsertBlock@@QEAA@AEBV0@@Z
  ??0NcDbMInsertBlock@@QEAA@AEBVNcGePoint3d@@VNcDbObjectId@@GGNN@Z
  ??0NcDbMInsertBlock@@QEAA@PEAVOdRxObject@@@Z
  ??0NcDbMInsertBlock@@QEAA@XZ
  ??0NcDbMLeader@@QEAA@AEBV0@@Z
  ??0NcDbMLeader@@QEAA@PEAVOdRxObject@@@Z
  ??0NcDbMLeader@@QEAA@XZ
  ??0NcDbMLeaderStyle@@QEAA@$$QEAV0@@Z
  ??0NcDbMLeaderStyle@@QEAA@AEBV0@@Z
  ??0NcDbMLeaderStyle@@QEAA@PEAVOdRxObject@@@Z
  ??0NcDbMLeaderStyle@@QEAA@XZ
  ??0NcDbMPolygon@@QEAA@$$QEAV0@@Z
  ??0NcDbMPolygon@@QEAA@AEBV0@@Z
  ??0NcDbMPolygon@@QEAA@PEAVOdRxObject@@@Z
  ??0NcDbMPolygon@@QEAA@XZ
  ??0NcDbMText@@QEAA@$$QEAV0@@Z
  ??0NcDbMText@@QEAA@AEBV0@@Z
  ??0NcDbMText@@QEAA@PEAVOdRxObject@@@Z
  ??0NcDbMText@@QEAA@XZ
  ??0NcDbMatchProperties@@QEAA@AEBV0@@Z
  ??0NcDbMatchProperties@@QEAA@PEAVOdRxObject@@@Z
  ??0NcDbMatchProperties@@QEAA@XZ
  ??0NcDbMaterial@@QEAA@AEBV0@@Z
  ??0NcDbMaterial@@QEAA@PEAVOdRxObject@@@Z
  ??0NcDbMaterial@@QEAA@XZ
  ??0NcDbMentalRayRenderSettings@@QEAA@AEBV0@@Z
  ??0NcDbMentalRayRenderSettings@@QEAA@XZ
  ??0NcDbMline@@QEAA@AEBV0@@Z
  ??0NcDbMline@@QEAA@PEAVOdRxObject@@@Z
  ??0NcDbMline@@QEAA@XZ
  ??0NcDbMlineStyle@@QEAA@$$QEAV0@@Z
  ??0NcDbMlineStyle@@QEAA@AEBV0@@Z
  ??0NcDbMlineStyle@@QEAA@PEAVOdRxObject@@@Z
  ??0NcDbMlineStyle@@QEAA@XZ
  ??0NcDbMotionPath@@QEAA@AEBV0@@Z
  ??0NcDbMotionPath@@QEAA@XZ
  ??0NcDbMultiModesGripPE@@QEAA@$$QEAV0@@Z
  ??0NcDbMultiModesGripPE@@QEAA@AEBV0@@Z
  ??0NcDbMultiModesGripPE@@QEAA@XZ
  ??0NcDbNamedPath@@QEAA@AEBV0@@Z
  ??0NcDbNamedPath@@QEAA@XZ
  ??0NcDbNurbSurface@@QEAA@AEBV0@@Z
  ??0NcDbNurbSurface@@QEAA@HH_NHHAEBV?$NcArray@VNcGePoint3d@@V?$HostMemoryAllocator@VNcGePoint3d@@@@@@AEBV?$NcArray@NV?$HostMemoryAllocator@N@@@@AEBVNcGeKnotVector@@3@Z
  ??0NcDbNurbSurface@@QEAA@XZ
  ??0NcDbObject@@IEAA@XZ
  ??0NcDbObject@@QEAA@AEBV0@@Z
  ??0NcDbObject@@QEAA@PEAVOdRxObject@@@Z
  ??0NcDbObjectContext@@QEAA@$$QEAV0@@Z
  ??0NcDbObjectContext@@QEAA@AEBV0@@Z
  ??0NcDbObjectContext@@QEAA@PEAVOdRxObject@@@Z
  ??0NcDbObjectContext@@QEAA@XZ
  ??0NcDbObjectContextCollection@@QEAA@$$QEAV0@@Z
  ??0NcDbObjectContextCollection@@QEAA@AEBV0@@Z
  ??0NcDbObjectContextCollection@@QEAA@PEAVOdRxObject@@@Z
  ??0NcDbObjectContextCollectionIterator@@QEAA@$$QEAV0@@Z
  ??0NcDbObjectContextCollectionIterator@@QEAA@AEBV0@@Z
  ??0NcDbObjectContextCollectionIterator@@QEAA@XZ
  ??0NcDbObjectContextInterface@@QEAA@$$QEAV0@@Z
  ??0NcDbObjectContextInterface@@QEAA@AEBV0@@Z
  ??0NcDbObjectContextInterface@@QEAA@PEAVOdRxObject@@@Z
  ??0NcDbObjectContextManager@@QEAA@$$QEAV0@@Z
  ??0NcDbObjectContextManager@@QEAA@AEBV0@@Z
  ??0NcDbObjectContextManager@@QEAA@PEAVOdRxObject@@@Z
  ??0NcDbObjectId@@QEAA@PEBVOdDbStub@@@Z
  ??0NcDbObjectId@@QEAA@XZ
  ??0NcDbObjectIdGraph@@QEAA@PEAVOdDbGraph@@@Z
  ??0NcDbObjectIdGraph@@QEAA@XZ
  ??0NcDbObjectIdGraphNode@@QEAA@VNcDbObjectId@@@Z
  ??0NcDbObjectIterator@@QEAA@AEBV0@@Z
  ??0NcDbObjectIterator@@QEAA@PEAVOdRxObject@@@Z
  ??0NcDbObjectOverrule@@QEAA@$$QEAV0@@Z
  ??0NcDbObjectOverrule@@QEAA@AEBV0@@Z
  ??0NcDbObjectOverrule@@QEAA@XZ
  ??0NcDbObjectReactor@@QEAA@AEBV0@@Z
  ??0NcDbObjectReactor@@QEAA@PEAVOdRxObject@@@Z
  ??0NcDbObjectReactor@@QEAA@XZ
  ??0NcDbOle2Frame@@QEAA@AEBV0@@Z
  ??0NcDbOle2Frame@@QEAA@XZ
  ??0NcDbOleFrame@@QEAA@AEBV0@@Z
  ??0NcDbOleFrame@@QEAA@XZ
  ??0NcDbOrdinateDimension@@QEAA@$$QEAV0@@Z
  ??0NcDbOrdinateDimension@@QEAA@AEBV0@@Z
  ??0NcDbOrdinateDimension@@QEAA@HAEBVNcGePoint3d@@0PEB_WVNcDbObjectId@@@Z
  ??0NcDbOrdinateDimension@@QEAA@PEAVOdRxObject@@@Z
  ??0NcDbOrdinateDimension@@QEAA@XZ
  ??0NcDbOsnapOverrule@@QEAA@AEBV0@@Z
  ??0NcDbOsnapOverrule@@QEAA@PEAVOdRxObject@@@Z
  ??0NcDbOsnapOverrule@@QEAA@XZ
  ??0NcDbOsnapPointRef@@QEAA@AEBV0@@Z
  ??0NcDbOsnapPointRef@@QEAA@AEBVNcGePoint3d@@@Z
  ??0NcDbOsnapPointRef@@QEAA@PEAVOdRxObject@@@Z
  ??0NcDbOsnapPointRef@@QEAA@W4OsnapType@NcDbPointRef@@PEBVNcDbFullSubentPath@@1PEBVNcGePoint3d@@PEAV2@@Z
  ??0NcDbOsnapPointRef@@QEAA@XZ
  ??0NcDbPaperOrientationPE@@QEAA@$$QEAV0@@Z
  ??0NcDbPaperOrientationPE@@QEAA@AEBV0@@Z
  ??0NcDbPaperOrientationPE@@QEAA@XZ
  ??0NcDbPathRef@@QEAA@AEBV0@@Z
  ??0NcDbPathRef@@QEAA@AEBV?$NcArray@VNcDbEdgeRef@@V?$HostObjectsAllocator@VNcDbEdgeRef@@@@@@@Z
  ??0NcDbPathRef@@QEAA@AEBV?$NcArray@VNcDbFullSubentPath@@V?$HostObjectsAllocator@VNcDbFullSubentPath@@@@@@0@Z
  ??0NcDbPathRef@@QEAA@XZ
  ??0NcDbPdfDefinition@@QEAA@XZ
  ??0NcDbPdfReference@@QEAA@XZ
  ??0NcDbPlaceHolder@@QEAA@$$QEAV0@@Z
  ??0NcDbPlaceHolder@@QEAA@AEBV0@@Z
  ??0NcDbPlaceHolder@@QEAA@PEAVOdRxObject@@@Z
  ??0NcDbPlaceHolder@@QEAA@XZ
  ??0NcDbPlaneSurface@@QEAA@AEBV0@@Z
  ??0NcDbPlaneSurface@@QEAA@XZ
  ??0NcDbPlotSettings@@QEAA@$$QEAV0@@Z
  ??0NcDbPlotSettings@@QEAA@AEBV0@@Z
  ??0NcDbPlotSettings@@QEAA@PEAVOdRxObject@@@Z
  ??0NcDbPlotSettings@@QEAA@_N@Z
  ??0NcDbPlotSettingsValidator@@QEAA@AEBV0@@Z
  ??0NcDbPlotSettingsValidator@@QEAA@PEAVOdDbPlotSettingsValidator@@@Z
  ??0NcDbPoint@@QEAA@$$QEAV0@@Z
  ??0NcDbPoint@@QEAA@AEBV0@@Z
  ??0NcDbPoint@@QEAA@AEBVNcGePoint3d@@@Z
  ??0NcDbPoint@@QEAA@PEAVOdRxObject@@@Z
  ??0NcDbPoint@@QEAA@XZ
  ??0NcDbPointPath@@QEAA@AEBV0@@Z
  ??0NcDbPointPath@@QEAA@XZ
  ??0NcDbPointRef@@QEAA@AEBV0@@Z
  ??0NcDbPointRef@@QEAA@PEAVOdRxObject@@@Z
  ??0NcDbPointRef@@QEAA@XZ
  ??0NcDbPolyFaceMesh@@QEAA@AEBV0@@Z
  ??0NcDbPolyFaceMesh@@QEAA@PEAVOdRxObject@@@Z
  ??0NcDbPolyFaceMesh@@QEAA@XZ
  ??0NcDbPolyFaceMeshVertex@@QEAA@$$QEAV0@@Z
  ??0NcDbPolyFaceMeshVertex@@QEAA@AEBV0@@Z
  ??0NcDbPolyFaceMeshVertex@@QEAA@AEBVNcGePoint3d@@@Z
  ??0NcDbPolyFaceMeshVertex@@QEAA@PEAVOdRxObject@@@Z
  ??0NcDbPolyFaceMeshVertex@@QEAA@XZ
  ??0NcDbPolygonMesh@@QEAA@AEBV0@@Z
  ??0NcDbPolygonMesh@@QEAA@PEAVOdRxObject@@@Z
  ??0NcDbPolygonMesh@@QEAA@W4PolyMeshType@NcDb@@FFAEBV?$NcArray@VNcGePoint3d@@V?$HostMemoryAllocator@VNcGePoint3d@@@@@@HH@Z
  ??0NcDbPolygonMesh@@QEAA@XZ
  ??0NcDbPolygonMeshVertex@@QEAA@$$QEAV0@@Z
  ??0NcDbPolygonMeshVertex@@QEAA@AEBV0@@Z
  ??0NcDbPolygonMeshVertex@@QEAA@AEBVNcGePoint3d@@@Z
  ??0NcDbPolygonMeshVertex@@QEAA@PEAVOdRxObject@@@Z
  ??0NcDbPolygonMeshVertex@@QEAA@XZ
  ??0NcDbPolyline@@QEAA@$$QEAV0@@Z
  ??0NcDbPolyline@@QEAA@AEBV0@@Z
  ??0NcDbPolyline@@QEAA@I@Z
  ??0NcDbPolyline@@QEAA@PEAVOdRxObject@@@Z
  ??0NcDbPolyline@@QEAA@XZ
  ??0NcDbPropertiesOverrule@@QEAA@$$QEAV0@@Z
  ??0NcDbPropertiesOverrule@@QEAA@AEBV0@@Z
  ??0NcDbPropertiesOverrule@@QEAA@XZ
  ??0NcDbPropertyFilterCustomizationPE@@QEAA@$$QEAV0@@Z
  ??0NcDbPropertyFilterCustomizationPE@@QEAA@AEBV0@@Z
  ??0NcDbPropertyFilterCustomizationPE@@QEAA@XZ
  ??0NcDbProxyEntity@@QEAA@$$QEAV0@@Z
  ??0NcDbProxyEntity@@QEAA@AEBV0@@Z
  ??0NcDbProxyEntity@@QEAA@PEAVOdRxObject@@@Z
  ??0NcDbProxyObject@@QEAA@$$QEAV0@@Z
  ??0NcDbProxyObject@@QEAA@AEBV0@@Z
  ??0NcDbProxyObject@@QEAA@PEAVOdRxObject@@@Z
  ??0NcDbR13ObjectId@@QEAA@XZ
  ??0NcDbRadialDimension@@QEAA@$$QEAV0@@Z
  ??0NcDbRadialDimension@@QEAA@AEBV0@@Z
  ??0NcDbRadialDimension@@QEAA@AEBVNcGePoint3d@@0NPEB_WVNcDbObjectId@@@Z
  ??0NcDbRadialDimension@@QEAA@PEAVOdRxObject@@@Z
  ??0NcDbRadialDimension@@QEAA@XZ
  ??0NcDbRadialDimensionLarge@@QEAA@$$QEAV0@@Z
  ??0NcDbRadialDimensionLarge@@QEAA@AEBV0@@Z
  ??0NcDbRadialDimensionLarge@@QEAA@AEBVNcGePoint3d@@000NPEB_WVNcDbObjectId@@@Z
  ??0NcDbRadialDimensionLarge@@QEAA@PEAVOdRxObject@@@Z
  ??0NcDbRadialDimensionLarge@@QEAA@XZ
  ??0NcDbRasterImage@@QEAA@AEBV0@@Z
  ??0NcDbRasterImage@@QEAA@PEAVOdRxObject@@@Z
  ??0NcDbRasterImage@@QEAA@XZ
  ??0NcDbRasterImageDef@@QEAA@AEBV0@@Z
  ??0NcDbRasterImageDef@@QEAA@PEAVOdRxObject@@@Z
  ??0NcDbRasterImageDef@@QEAA@XZ
  ??0NcDbRasterImageDefFileAccessReactor@@QEAA@AEBV0@@Z
  ??0NcDbRasterImageDefFileAccessReactor@@QEAA@XZ
  ??0NcDbRasterImageDefReactor@@QEAA@$$QEAV0@@Z
  ??0NcDbRasterImageDefReactor@@QEAA@AEBV0@@Z
  ??0NcDbRasterImageDefReactor@@QEAA@PEAVOdRxObject@@@Z
  ??0NcDbRasterImageDefReactor@@QEAA@XZ
  ??0NcDbRasterImageDefTransReactor@@QEAA@AEBV0@@Z
  ??0NcDbRasterImageDefTransReactor@@QEAA@XZ
  ??0NcDbRasterVariables@@QEAA@AEBV0@@Z
  ??0NcDbRasterVariables@@QEAA@XZ
  ??0NcDbRay@@QEAA@$$QEAV0@@Z
  ??0NcDbRay@@QEAA@AEBV0@@Z
  ??0NcDbRay@@QEAA@PEAVOdRxObject@@@Z
  ??0NcDbRay@@QEAA@XZ
  ??0NcDbRecoverCallBack@@QEAA@AEBV0@@Z
  ??0NcDbRecoverCallBack@@QEAA@XZ
  ??0NcDbRegAppTable@@QEAA@$$QEAV0@@Z
  ??0NcDbRegAppTable@@QEAA@AEBV0@@Z
  ??0NcDbRegAppTable@@QEAA@PEAVOdRxObject@@@Z
  ??0NcDbRegAppTableIterator@@QEAA@$$QEAV0@@Z
  ??0NcDbRegAppTableIterator@@QEAA@AEBV0@@Z
  ??0NcDbRegAppTableIterator@@QEAA@XZ
  ??0NcDbRegAppTableRecord@@QEAA@$$QEAV0@@Z
  ??0NcDbRegAppTableRecord@@QEAA@AEBV0@@Z
  ??0NcDbRegAppTableRecord@@QEAA@PEAVOdRxObject@@@Z
  ??0NcDbRegAppTableRecord@@QEAA@XZ
  ??0NcDbRegion@@QEAA@$$QEAV0@@Z
  ??0NcDbRegion@@QEAA@AEBV0@@Z
  ??0NcDbRegion@@QEAA@PEAVOdRxObject@@@Z
  ??0NcDbRegion@@QEAA@XZ
  ??0NcDbRenderEnvironment@@QEAA@AEBV0@@Z
  ??0NcDbRenderEnvironment@@QEAA@XZ
  ??0NcDbRenderGlobal@@QEAA@AEBV0@@Z
  ??0NcDbRenderGlobal@@QEAA@XZ
  ??0NcDbRenderSettings@@QEAA@AEBV0@@Z
  ??0NcDbRenderSettings@@QEAA@XZ
  ??0NcDbRevolveOptions@@QEAA@AEBV0@@Z
  ??0NcDbRevolveOptions@@QEAA@XZ
  ??0NcDbRevolvedSurface@@QEAA@AEBV0@@Z
  ??0NcDbRevolvedSurface@@QEAA@XZ
  ??0NcDbRotatedDimension@@QEAA@$$QEAV0@@Z
  ??0NcDbRotatedDimension@@QEAA@AEBV0@@Z
  ??0NcDbRotatedDimension@@QEAA@NAEBVNcGePoint3d@@00PEB_WVNcDbObjectId@@@Z
  ??0NcDbRotatedDimension@@QEAA@PEAVOdRxObject@@@Z
  ??0NcDbRotatedDimension@@QEAA@XZ
  ??0NcDbSection@@QEAA@AEBV?$NcArray@VNcGePoint3d@@V?$HostMemoryAllocator@VNcGePoint3d@@@@@@AEBVNcGeVector3d@@1@Z
  ??0NcDbSection@@QEAA@AEBV?$NcArray@VNcGePoint3d@@V?$HostMemoryAllocator@VNcGePoint3d@@@@@@AEBVNcGeVector3d@@@Z
  ??0NcDbSection@@QEAA@XZ
  ??0NcDbSectionManager@@QEAA@XZ
  ??0NcDbSectionManagerIterator@@IEAA@PEAVNcDbSectionManager@@@Z
  ??0NcDbSelectGrip@@QEAA@$$QEAV0@@Z
  ??0NcDbSelectGrip@@QEAA@AEBV0@@Z
  ??0NcDbSelectGrip@@QEAA@XZ
  ??0NcDbSequenceEnd@@QEAA@$$QEAV0@@Z
  ??0NcDbSequenceEnd@@QEAA@AEBV0@@Z
  ??0NcDbSequenceEnd@@QEAA@PEAVOdRxObject@@@Z
  ??0NcDbSequenceEnd@@QEAA@XZ
  ??0NcDbServices@@QEAA@$$QEAV0@@Z
  ??0NcDbServices@@QEAA@AEBV0@@Z
  ??0NcDbServices@@QEAA@XZ
  ??0NcDbShape@@QEAA@$$QEAV0@@Z
  ??0NcDbShape@@QEAA@AEBV0@@Z
  ??0NcDbShape@@QEAA@AEBVNcGePoint3d@@NNN@Z
  ??0NcDbShape@@QEAA@PEAVOdRxObject@@@Z
  ??0NcDbShape@@QEAA@XZ
  ??0NcDbSkyBackground@@QEAA@AEBV0@@Z
  ??0NcDbSkyBackground@@QEAA@XZ
  ??0NcDbSoftOwnershipId@@QEAA@AEBVNcDbObjectId@@@Z
  ??0NcDbSoftOwnershipId@@QEAA@PEBVOdDbStub@@@Z
  ??0NcDbSoftOwnershipId@@QEAA@XZ
  ??0NcDbSoftPointerId@@QEAA@AEBVNcDbObjectId@@@Z
  ??0NcDbSoftPointerId@@QEAA@PEBVOdDbStub@@@Z
  ??0NcDbSoftPointerId@@QEAA@XZ
  ??0NcDbSolid@@QEAA@$$QEAV0@@Z
  ??0NcDbSolid@@QEAA@AEBV0@@Z
  ??0NcDbSolid@@QEAA@AEBVNcGePoint3d@@000@Z
  ??0NcDbSolid@@QEAA@AEBVNcGePoint3d@@00@Z
  ??0NcDbSolid@@QEAA@PEAVOdRxObject@@@Z
  ??0NcDbSolid@@QEAA@XZ
  ??0NcDbSolidBackground@@QEAA@AEBV0@@Z
  ??0NcDbSolidBackground@@QEAA@XZ
  ??0NcDbSortentsTable@@QEAA@AEBV0@@Z
  ??0NcDbSortentsTable@@QEAA@XZ
  ??0NcDbSpatialFilter@@QEAA@AEBV0@@Z
  ??0NcDbSpatialFilter@@QEAA@AEBV?$NcArray@VNcGePoint2d@@V?$HostMemoryAllocator@VNcGePoint2d@@@@@@AEBVNcGeVector3d@@NNNH@Z
  ??0NcDbSpatialFilter@@QEAA@XZ
  ??0NcDbSpatialIndex@@QEAA@AEBV0@@Z
  ??0NcDbSpatialIndex@@QEAA@XZ
  ??0NcDbSpatialIndexIterator@@QEAA@AEBV0@@Z
  ??0NcDbSpatialIndexIterator@@QEAA@PEBVNcDbSpatialIndex@@PEBVNcDbSpatialFilter@@@Z
  ??0NcDbSpline@@QEAA@$$QEAV0@@Z
  ??0NcDbSpline@@QEAA@AEBV0@@Z
  ??0NcDbSpline@@QEAA@AEBV?$NcArray@VNcGePoint3d@@V?$HostMemoryAllocator@VNcGePoint3d@@@@@@AEBVNcGeVector3d@@1HN@Z
  ??0NcDbSpline@@QEAA@AEBV?$NcArray@VNcGePoint3d@@V?$HostMemoryAllocator@VNcGePoint3d@@@@@@HN@Z
  ??0NcDbSpline@@QEAA@AEBVNcGePoint3d@@AEBVNcGeVector3d@@1NNN@Z
  ??0NcDbSpline@@QEAA@HHHHAEBV?$NcArray@VNcGePoint3d@@V?$HostMemoryAllocator@VNcGePoint3d@@@@@@AEBV?$NcArray@NV?$HostMemoryAllocator@N@@@@1NN@Z
  ??0NcDbSpline@@QEAA@PEAVOdRxObject@@@Z
  ??0NcDbSpline@@QEAA@XZ
  ??0NcDbSubDMesh@@QEAA@AEBV0@@Z
  ??0NcDbSubDMesh@@QEAA@PEAVOdRxObject@@@Z
  ??0NcDbSubDMesh@@QEAA@XZ
  ??0NcDbSubentGeometry@@QEAA@$$QEAV0@@Z
  ??0NcDbSubentGeometry@@QEAA@AEBV0@@Z
  ??0NcDbSubentGeometry@@QEAA@AEBVNcGePoint3d@@@Z
  ??0NcDbSubentGeometry@@QEAA@PEAVNcGeCurve3d@@@Z
  ??0NcDbSubentGeometry@@QEAA@XZ
  ??0NcDbSubentId@@QEAA@K_J@Z
  ??0NcDbSubentId@@QEAA@PEAVNcRxClass@@_J@Z
  ??0NcDbSubentId@@QEAA@XZ
  ??0NcDbSubentRef@@QEAA@AEBV0@@Z
  ??0NcDbSubentRef@@QEAA@AEBVNcDbCompoundObjectId@@AEBVNcDbSubentId@@@Z
  ??0NcDbSubentRef@@QEAA@XZ
  ??0NcDbSubentityOverrule@@QEAA@$$QEAV0@@Z
  ??0NcDbSubentityOverrule@@QEAA@AEBV0@@Z
  ??0NcDbSubentityOverrule@@QEAA@XZ
  ??0NcDbSun@@QEAA@AEBV0@@Z
  ??0NcDbSun@@QEAA@XZ
  ??0NcDbSurface@@QEAA@$$QEAV0@@Z
  ??0NcDbSurface@@QEAA@AEBV0@@Z
  ??0NcDbSurface@@QEAA@PEAVOdRxObject@@@Z
  ??0NcDbSurface@@QEAA@XZ
  ??0NcDbSurfaceTrimInfo@@QEAA@XZ
  ??0NcDbSweepOptions@@QEAA@AEBV0@@Z
  ??0NcDbSweepOptions@@QEAA@XZ
  ??0NcDbSymbolTable@@QEAA@$$QEAV0@@Z
  ??0NcDbSymbolTable@@QEAA@AEBV0@@Z
  ??0NcDbSymbolTable@@QEAA@PEAVOdRxObject@@@Z
  ??0NcDbSymbolTable@@QEAA@XZ
  ??0NcDbSymbolTableIterator@@IEAA@XZ
  ??0NcDbSymbolTableIterator@@QEAA@AEBV0@@Z
  ??0NcDbSymbolTableIterator@@QEAA@PEAVOdDbSymbolTableIterator@@@Z
  ??0NcDbSymbolTableRecord@@QEAA@$$QEAV0@@Z
  ??0NcDbSymbolTableRecord@@QEAA@AEBV0@@Z
  ??0NcDbSymbolTableRecord@@QEAA@PEAVOdRxObject@@@Z
  ??0NcDbSymbolTableRecord@@QEAA@XZ
  ??0NcDbTable@@QEAA@$$QEAV0@@Z
  ??0NcDbTable@@QEAA@AEBV0@@Z
  ??0NcDbTable@@QEAA@PEAVOdRxObject@@@Z
  ??0NcDbTable@@QEAA@PEBVNcDbLinkedTableData@@W4TableCopyOption@NcDb@@@Z
  ??0NcDbTable@@QEAA@XZ
  ??0NcDbTableContent@@QEAA@AEBV0@@Z
  ??0NcDbTableContent@@QEAA@XZ
  ??0NcDbTableIterator@@IEAA@XZ
  ??0NcDbTableIterator@@QEAA@AEBUNcCellRange@@@Z
  ??0NcDbTableIterator@@QEAA@AEBUNcCellRange@@W4TableIteratorOption@NcDb@@@Z
  ??0NcDbTableIterator@@QEAA@PEBVNcDbLinkedTableData@@@Z
  ??0NcDbTableIterator@@QEAA@PEBVNcDbLinkedTableData@@PEBUNcCellRange@@W4TableIteratorOption@NcDb@@@Z
  ??0NcDbTableIterator@@QEAA@PEBVNcDbTable@@@Z
  ??0NcDbTableIterator@@QEAA@PEBVNcDbTable@@PEBUNcCellRange@@W4TableIteratorOption@NcDb@@@Z
  ??0NcDbTableStyle@@QEAA@$$QEAV0@@Z
  ??0NcDbTableStyle@@QEAA@AEBV0@@Z
  ??0NcDbTableStyle@@QEAA@PEAVOdRxObject@@@Z
  ??0NcDbTableStyle@@QEAA@XZ
  ??0NcDbTableTemplate@@QEAA@AEBV0@@Z
  ??0NcDbTableTemplate@@QEAA@PEBVNcDbTable@@W4TableCopyOption@NcDb@@@Z
  ??0NcDbTableTemplate@@QEAA@XZ
  ??0NcDbText@@QEAA@$$QEAV0@@Z
  ??0NcDbText@@QEAA@AEBV0@@Z
  ??0NcDbText@@QEAA@AEBVNcGePoint3d@@PEB_WVNcDbObjectId@@NN@Z
  ??0NcDbText@@QEAA@PEAVOdRxObject@@@Z
  ??0NcDbText@@QEAA@XZ
  ??0NcDbTextFieldsPE@@QEAA@$$QEAV0@@Z
  ??0NcDbTextFieldsPE@@QEAA@AEBV0@@Z
  ??0NcDbTextFieldsPE@@QEAA@XZ
  ??0NcDbTextStyleTable@@QEAA@$$QEAV0@@Z
  ??0NcDbTextStyleTable@@QEAA@AEBV0@@Z
  ??0NcDbTextStyleTable@@QEAA@PEAVOdRxObject@@@Z
  ??0NcDbTextStyleTable@@QEAA@XZ
  ??0NcDbTextStyleTableIterator@@QEAA@$$QEAV0@@Z
  ??0NcDbTextStyleTableIterator@@QEAA@AEBV0@@Z
  ??0NcDbTextStyleTableIterator@@QEAA@XZ
  ??0NcDbTextStyleTableRecord@@QEAA@$$QEAV0@@Z
  ??0NcDbTextStyleTableRecord@@QEAA@AEBV0@@Z
  ??0NcDbTextStyleTableRecord@@QEAA@PEAVOdRxObject@@@Z
  ??0NcDbTextStyleTableRecord@@QEAA@XZ
  ??0NcDbTrace@@QEAA@$$QEAV0@@Z
  ??0NcDbTrace@@QEAA@AEBV0@@Z
  ??0NcDbTrace@@QEAA@AEBVNcGePoint3d@@000@Z
  ??0NcDbTrace@@QEAA@PEAVOdRxObject@@@Z
  ??0NcDbTrace@@QEAA@XZ
  ??0NcDbTransactionManager@@QEAA@AEBV0@@Z
  ??0NcDbTransactionManager@@QEAA@PEAVOdDbDatabase@@@Z
  ??0NcDbTransformOverrule@@QEAA@$$QEAV0@@Z
  ??0NcDbTransformOverrule@@QEAA@AEBV0@@Z
  ??0NcDbTransformOverrule@@QEAA@XZ
  ??0NcDbUCSTable@@QEAA@$$QEAV0@@Z
  ??0NcDbUCSTable@@QEAA@AEBV0@@Z
  ??0NcDbUCSTable@@QEAA@PEAVOdRxObject@@@Z
  ??0NcDbUCSTable@@QEAA@XZ
  ??0NcDbUCSTableIterator@@QEAA@$$QEAV0@@Z
  ??0NcDbUCSTableIterator@@QEAA@AEBV0@@Z
  ??0NcDbUCSTableIterator@@QEAA@XZ
  ??0NcDbUCSTableRecord@@QEAA@$$QEAV0@@Z
  ??0NcDbUCSTableRecord@@QEAA@AEBV0@@Z
  ??0NcDbUCSTableRecord@@QEAA@PEAVOdRxObject@@@Z
  ??0NcDbUCSTableRecord@@QEAA@XZ
  ??0NcDbUnderlayDefinition@@QEAA@AEBV0@@Z
  ??0NcDbUnderlayDefinition@@QEAA@XZ
  ??0NcDbUnderlayFile@@QEAA@AEBV0@@Z
  ??0NcDbUnderlayFile@@QEAA@XZ
  ??0NcDbUnderlayHost@@QEAA@AEBV0@@Z
  ??0NcDbUnderlayHost@@QEAA@XZ
  ??0NcDbUnderlayItem@@QEAA@AEBV0@@Z
  ??0NcDbUnderlayItem@@QEAA@XZ
  ??0NcDbUnderlayReference@@QEAA@AEBV0@@Z
  ??0NcDbUnderlayReference@@QEAA@XZ
  ??0NcDbVertex@@QEAA@AEBV0@@Z
  ??0NcDbVertex@@QEAA@PEAVOdRxObject@@@Z
  ??0NcDbVertex@@QEAA@XZ
  ??0NcDbVertexRef@@QEAA@AEBV0@@Z
  ??0NcDbVertexRef@@QEAA@AEBVNcDbCompoundObjectId@@AEBVNcDbSubentId@@AEBVNcGePoint3d@@@Z
  ??0NcDbVertexRef@@QEAA@AEBVNcDbFullSubentPath@@@Z
  ??0NcDbVertexRef@@QEAA@AEBVNcGePoint3d@@@Z
  ??0NcDbVertexRef@@QEAA@PEBVNcDbEntity@@@Z
  ??0NcDbVertexRef@@QEAA@XZ
  ??0NcDbViewTable@@QEAA@$$QEAV0@@Z
  ??0NcDbViewTable@@QEAA@AEBV0@@Z
  ??0NcDbViewTable@@QEAA@PEAVOdRxObject@@@Z
  ??0NcDbViewTable@@QEAA@XZ
  ??0NcDbViewTableIterator@@QEAA@$$QEAV0@@Z
  ??0NcDbViewTableIterator@@QEAA@AEBV0@@Z
  ??0NcDbViewTableIterator@@QEAA@XZ
  ??0NcDbViewTableRecord@@QEAA@$$QEAV0@@Z
  ??0NcDbViewTableRecord@@QEAA@AEBV0@@Z
  ??0NcDbViewTableRecord@@QEAA@PEAVOdRxObject@@@Z
  ??0NcDbViewTableRecord@@QEAA@XZ
  ??0NcDbViewport@@QEAA@$$QEAV0@@Z
  ??0NcDbViewport@@QEAA@AEBV0@@Z
  ??0NcDbViewport@@QEAA@PEAVOdRxObject@@@Z
  ??0NcDbViewport@@QEAA@XZ
  ??0NcDbViewportTable@@QEAA@$$QEAV0@@Z
  ??0NcDbViewportTable@@QEAA@AEBV0@@Z
  ??0NcDbViewportTable@@QEAA@PEAVOdRxObject@@@Z
  ??0NcDbViewportTableIterator@@IEAA@XZ
  ??0NcDbViewportTableIterator@@QEAA@$$QEAV0@@Z
  ??0NcDbViewportTableIterator@@QEAA@AEBV0@@Z
  ??0NcDbViewportTableRecord@@QEAA@$$QEAV0@@Z
  ??0NcDbViewportTableRecord@@QEAA@AEBV0@@Z
  ??0NcDbViewportTableRecord@@QEAA@PEAVOdRxObject@@@Z
  ??0NcDbViewportTableRecord@@QEAA@XZ
  ??0NcDbVisibilityOverrule@@QEAA@$$QEAV0@@Z
  ??0NcDbVisibilityOverrule@@QEAA@AEBV0@@Z
  ??0NcDbVisibilityOverrule@@QEAA@XZ
  ??0NcDbVisualStyle@@QEAA@AEBV0@@Z
  ??0NcDbVisualStyle@@QEAA@PEAVOdRxObject@@@Z
  ??0NcDbVisualStyle@@QEAA@XZ
  ??0NcDbWblockCloneFiler@@QEAA@AEBV0@@Z
  ??0NcDbWblockCloneFiler@@QEAA@PEAVOdRxObject@@@Z
  ??0NcDbWblockCloneFiler@@QEAA@XZ
  ??0NcDbWipeout@@QEAA@$$QEAV0@@Z
  ??0NcDbWipeout@@QEAA@AEBV0@@Z
  ??0NcDbWipeout@@QEAA@PEAVOdRxObject@@@Z
  ??0NcDbWipeout@@QEAA@XZ
  ??0NcDbXObject@@IEAA@XZ
  ??0NcDbXObject@@QEAA@$$QEAV0@@Z
  ??0NcDbXObject@@QEAA@AEBV0@@Z
  ??0NcDbXline@@QEAA@$$QEAV0@@Z
  ??0NcDbXline@@QEAA@AEBV0@@Z
  ??0NcDbXline@@QEAA@PEAVOdRxObject@@@Z
  ??0NcDbXline@@QEAA@XZ
  ??0NcDbXrecord@@QEAA@$$QEAV0@@Z
  ??0NcDbXrecord@@QEAA@AEBV0@@Z
  ??0NcDbXrecord@@QEAA@PEAVOdRxObject@@@Z
  ??0NcDbXrecord@@QEAA@XZ
  ??0NcDbXrecordIterator@@IEAA@XZ
  ??0NcDbXrecordIterator@@QEAA@AEBV0@@Z
  ??0NcDbXrecordIterator@@QEAA@PEBVNcDbXrecord@@@Z
  ??0NcDbXrefGraph@@QEAA@PEAVNcDbXrefGraphNode@@@Z
  ??0NcDbXrefGraphNode@@QEAA@PEB_WAEBVNcDbObjectId@@PEAVNcDbDatabase@@W4XrefStatus@NcDb@@@Z
  ??0NcDistanceConstraint@@QEAA@$$QEAV0@@Z
  ??0NcDistanceConstraint@@QEAA@AEBV0@@Z
  ??0NcDistanceConstraint@@QEAA@AEBVNcGeVector3d@@@Z
  ??0NcDistanceConstraint@@QEAA@KW4DirectionType@0@@Z
  ??0NcDistanceConstraint@@QEAA@XZ
  ??0NcEdInputContextReactor@@QEAA@AEBV0@@Z
  ??0NcEdInputContextReactor@@QEAA@PEAVHostEdInputContextReactor@@@Z
  ??0NcEdInputContextReactor@@QEAA@XZ
  ??0NcEdInputPointFilter@@QEAA@AEBV0@@Z
  ??0NcEdInputPointFilter@@QEAA@XZ
  ??0NcEdInputPointFilterResult@@QEAA@XZ
  ??0NcEdInputPointManager@@QEAA@AEBV0@@Z
  ??0NcEdInputPointManager@@QEAA@PEAVHostEdInputPointManager@@@Z
  ??0NcEdInputPointMonitor@@QEAA@AEBV0@@Z
  ??0NcEdInputPointMonitor@@QEAA@XZ
  ??0NcEdInputPointMonitorResult@@QEAA@$$QEAV0@@Z
  ??0NcEdInputPointMonitorResult@@QEAA@AEBV0@@Z
  ??0NcEdInputPointMonitorResult@@QEAA@XZ
  ??0NcEqualCurvatureConstraint@@QEAA@$$QEAV0@@Z
  ??0NcEqualCurvatureConstraint@@QEAA@AEBV0@@Z
  ??0NcEqualCurvatureConstraint@@QEAA@XZ
  ??0NcEqualDistanceConstraint@@QEAA@$$QEAV0@@Z
  ??0NcEqualDistanceConstraint@@QEAA@AEBV0@@Z
  ??0NcEqualDistanceConstraint@@QEAA@XZ
  ??0NcEqualHelpParameterConstraint@@QEAA@$$QEAV0@@Z
  ??0NcEqualHelpParameterConstraint@@QEAA@AEBV0@@Z
  ??0NcEqualHelpParameterConstraint@@QEAA@XZ
  ??0NcEqualLengthConstraint@@QEAA@$$QEAV0@@Z
  ??0NcEqualLengthConstraint@@QEAA@AEBV0@@Z
  ??0NcEqualLengthConstraint@@QEAA@XZ
  ??0NcEqualRadiusConstraint@@QEAA@$$QEAV0@@Z
  ??0NcEqualRadiusConstraint@@QEAA@AEBV0@@Z
  ??0NcEqualRadiusConstraint@@QEAA@XZ
  ??0NcExplicitConstraint@@IEAA@XZ
  ??0NcExplicitConstraint@@QEAA@$$QEAV0@@Z
  ??0NcExplicitConstraint@@QEAA@AEBV0@@Z
  ??0NcFdFieldEngine@@QEAA@XZ
  ??0NcFdFieldEvaluator@@QEAA@XZ
  ??0NcFdFieldEvaluatorLoader@@QEAA@PEAX@Z
  ??0NcFdFieldEvaluatorLoader@@QEAA@XZ
  ??0NcFdFieldReactor@@QEAA@$$QEAV0@@Z
  ??0NcFdFieldReactor@@QEAA@AEBV0@@Z
  ??0NcFdFieldReactor@@QEAA@XZ
  ??0NcFdFieldResult@@QEAA@$$QEAV0@@Z
  ??0NcFdFieldResult@@QEAA@AEBV0@@Z
  ??0NcFdFieldResult@@QEAA@XZ
  ??0NcFdFieldValue@@QEAA@AEBU_SYSTEMTIME@@@Z
  ??0NcFdFieldValue@@QEAA@AEBUresbuf@@@Z
  ??0NcFdFieldValue@@QEAA@AEBUtagVARIANT@@@Z
  ??0NcFdFieldValue@@QEAA@AEBV0@@Z
  ??0NcFdFieldValue@@QEAA@AEBVNcDbEvalVariant@@@Z
  ??0NcFdFieldValue@@QEAA@AEBVNcDbObjectId@@@Z
  ??0NcFdFieldValue@@QEAA@AEBVNcGePoint2d@@@Z
  ??0NcFdFieldValue@@QEAA@AEBVNcGePoint3d@@@Z
  ??0NcFdFieldValue@@QEAA@AEB_J@Z
  ??0NcFdFieldValue@@QEAA@J@Z
  ??0NcFdFieldValue@@QEAA@N@Z
  ??0NcFdFieldValue@@QEAA@NN@Z
  ??0NcFdFieldValue@@QEAA@NNN@Z
  ??0NcFdFieldValue@@QEAA@PEBXK@Z
  ??0NcFdFieldValue@@QEAA@PEB_W@Z
  ??0NcFdFieldValue@@QEAA@W4DataType@NcValue@@@Z
  ??0NcFdFieldValue@@QEAA@XZ
  ??0NcFileDependencyManager@@QEAA@AEBV0@@Z
  ??0NcFileDependencyManager@@QEAA@XZ
  ??0NcFixedConstraint@@QEAA@$$QEAV0@@Z
  ??0NcFixedConstraint@@QEAA@AEBV0@@Z
  ??0NcFixedConstraint@@QEAA@XZ
  ??0NcG2SmoothConstraint@@QEAA@$$QEAV0@@Z
  ??0NcG2SmoothConstraint@@QEAA@AEBV0@@Z
  ??0NcG2SmoothConstraint@@QEAA@XZ
  ??0NcGUID@@QEAA@AEAY0BA@$$CBE@Z
  ??0NcGUID@@QEAA@AEBV0@@Z
  ??0NcGUID@@QEAA@AEBVOdAnsiString@@@Z
  ??0NcGUID@@QEAA@AEBVOdGUID@@@Z
  ??0NcGUID@@QEAA@AEBVOdString@@@Z
  ??0NcGUID@@QEAA@JFFAEAY07$$CBE@Z
  ??0NcGUID@@QEAA@KGGEEEEEEEE@Z
  ??0NcGUID@@QEAA@PEBD@Z
  ??0NcGUID@@QEAA@XZ
  ??0NcGeAugPolyline3d@@QEAA@AEBV0@@Z
  ??0NcGeAugPolyline3d@@QEAA@AEBV?$NcArray@VNcGePoint3d@@V?$HostMemoryAllocator@VNcGePoint3d@@@@@@AEBV?$NcArray@VNcGeVector3d@@V?$HostMemoryAllocator@VNcGeVector3d@@@@@@@Z
  ??0NcGeAugPolyline3d@@QEAA@AEBVNcGeCurve3d@@NNN@Z
  ??0NcGeAugPolyline3d@@QEAA@AEBVNcGeKnotVector@@AEBV?$NcArray@VNcGePoint3d@@V?$HostMemoryAllocator@VNcGePoint3d@@@@@@AEBV?$NcArray@VNcGeVector3d@@V?$HostMemoryAllocator@VNcGeVector3d@@@@@@@Z
  ??0NcGeAugPolyline3d@@QEAA@XZ
  ??0NcGeBoundBlock2d@@QEAA@AEBV0@@Z
  ??0NcGeBoundBlock2d@@QEAA@AEBVMcGeBoundBlock3d@@@Z
  ??0NcGeBoundBlock2d@@QEAA@AEBVNcGePoint2d@@0@Z
  ??0NcGeBoundBlock2d@@QEAA@AEBVNcGePoint2d@@AEBVMcGeVector2d@@1@Z
  ??0NcGeBoundBlock2d@@QEAA@XZ
  ??0NcGeBoundedPlane@@QEAA@AEBV0@@Z
  ??0NcGeBoundedPlane@@QEAA@AEBVNcGePoint3d@@00@Z
  ??0NcGeBoundedPlane@@QEAA@AEBVNcGePoint3d@@AEBVNcGeVector3d@@1@Z
  ??0NcGeBoundedPlane@@QEAA@XZ
  ??0NcGeCircArc2d@@QEAA@AEBV0@@Z
  ??0NcGeCircArc2d@@QEAA@AEBVNcGePoint2d@@00@Z
  ??0NcGeCircArc2d@@QEAA@AEBVNcGePoint2d@@0NH@Z
  ??0NcGeCircArc2d@@QEAA@AEBVNcGePoint2d@@N@Z
  ??0NcGeCircArc2d@@QEAA@AEBVNcGePoint2d@@NNNAEBVMcGeVector2d@@H@Z
  ??0NcGeCircArc2d@@QEAA@PEAVMcGeCircArc3d@@@Z
  ??0NcGeCircArc2d@@QEAA@XZ
  ??0NcGeCircArc3d@@QEAA@AEBV0@@Z
  ??0NcGeCircArc3d@@QEAA@AEBVNcGePoint3d@@00@Z
  ??0NcGeCircArc3d@@QEAA@AEBVNcGePoint3d@@AEBVNcGeVector3d@@1NNN@Z
  ??0NcGeCircArc3d@@QEAA@AEBVNcGePoint3d@@AEBVNcGeVector3d@@N@Z
  ??0NcGeCircArc3d@@QEAA@PEAVMcGeCircArc3d@@@Z
  ??0NcGeCircArc3d@@QEAA@XZ
  ??0NcGeClipBoundary2d@@QEAA@AEBV0@@Z
  ??0NcGeClipBoundary2d@@QEAA@AEBV?$NcArray@VNcGePoint2d@@V?$HostMemoryAllocator@VNcGePoint2d@@@@@@@Z
  ??0NcGeClipBoundary2d@@QEAA@AEBVNcGePoint2d@@0@Z
  ??0NcGeClipBoundary2d@@QEAA@XZ
  ??0NcGeCompositeCurve2d@@QEAA@AEBV0@@Z
  ??0NcGeCompositeCurve2d@@QEAA@AEBV?$NcArray@PEAXV?$HostMemoryAllocator@PEAX@@@@@Z
  ??0NcGeCompositeCurve2d@@QEAA@AEBV?$NcArray@PEAXV?$HostMemoryAllocator@PEAX@@@@AEBV?$NcArray@HV?$HostMemoryAllocator@H@@@@@Z
  ??0NcGeCompositeCurve2d@@QEAA@PEAVMcGeCompositeCurve3d@@@Z
  ??0NcGeCompositeCurve2d@@QEAA@XZ
  ??0NcGeCompositeCurve3d@@QEAA@AEBV0@@Z
  ??0NcGeCompositeCurve3d@@QEAA@AEBV?$McsArray@PEAXPEAX@@@Z
  ??0NcGeCompositeCurve3d@@QEAA@AEBV?$McsArray@PEAXPEAX@@AEBV?$McsArray@HH@@@Z
  ??0NcGeCompositeCurve3d@@QEAA@AEBV?$NcArray@PEAXV?$HostMemoryAllocator@PEAX@@@@@Z
  ??0NcGeCompositeCurve3d@@QEAA@AEBV?$NcArray@PEAXV?$HostMemoryAllocator@PEAX@@@@AEBV?$NcArray@HV?$HostMemoryAllocator@H@@@@@Z
  ??0NcGeCompositeCurve3d@@QEAA@PEAVMcGeCompositeCurve3d@@@Z
  ??0NcGeCompositeCurve3d@@QEAA@XZ
  ??0NcGeCone@@QEAA@AEBV0@@Z
  ??0NcGeCone@@QEAA@NNAEBVNcGePoint3d@@NAEBVNcGeVector3d@@1AEBVNcGeInterval@@NN@Z
  ??0NcGeCone@@QEAA@NNAEBVNcGePoint3d@@NAEBVNcGeVector3d@@@Z
  ??0NcGeCone@@QEAA@XZ
  ??0NcGeCubicSplineCurve2d@@QEAA@AEBV0@@Z
  ??0NcGeCubicSplineCurve2d@@QEAA@AEBV?$NcArray@VNcGePoint2d@@V?$HostMemoryAllocator@VNcGePoint2d@@@@@@AEBVMcGeTol@@@Z
  ??0NcGeCubicSplineCurve2d@@QEAA@AEBV?$NcArray@VNcGePoint2d@@V?$HostMemoryAllocator@VNcGePoint2d@@@@@@AEBVMcGeVector2d@@1AEBVMcGeTol@@@Z
  ??0NcGeCubicSplineCurve2d@@QEAA@AEBVNcGeKnotVector@@AEBV?$NcArray@VNcGePoint2d@@V?$HostMemoryAllocator@VNcGePoint2d@@@@@@AEBV?$NcArray@VMcGeVector2d@@V?$HostMemoryAllocator@VMcGeVector2d@@@@@@H@Z
  ??0NcGeCubicSplineCurve2d@@QEAA@XZ
  ??0NcGeCubicSplineCurve3d@@QEAA@AEBV0@@Z
  ??0NcGeCubicSplineCurve3d@@QEAA@AEBV?$NcArray@VNcGePoint3d@@V?$HostMemoryAllocator@VNcGePoint3d@@@@@@AEBVMcGeTol@@@Z
  ??0NcGeCubicSplineCurve3d@@QEAA@AEBV?$NcArray@VNcGePoint3d@@V?$HostMemoryAllocator@VNcGePoint3d@@@@@@AEBVNcGeVector3d@@1AEBVMcGeTol@@@Z
  ??0NcGeCubicSplineCurve3d@@QEAA@AEBVNcGeKnotVector@@AEBV?$NcArray@VNcGePoint3d@@V?$HostMemoryAllocator@VNcGePoint3d@@@@@@AEBV?$NcArray@VNcGeVector3d@@V?$HostMemoryAllocator@VNcGeVector3d@@@@@@H@Z
  ??0NcGeCubicSplineCurve3d@@QEAA@XZ
  ??0NcGeCurve2d@@IEAA@XZ
  ??0NcGeCurve2d@@QEAA@AEBV0@@Z
  ??0NcGeCurve2d@@QEAA@PEAVMcGeCurve3d@@@Z
  ??0NcGeCurve3d@@IEAA@XZ
  ??0NcGeCurve3d@@QEAA@AEBV0@@Z
  ??0NcGeCurve3d@@QEAA@PEAVMcGeCurve3d@@@Z
  ??0NcGeCurveBoundary@@QEAA@AEBV0@@Z
  ??0NcGeCurveBoundary@@QEAA@HPEBQEBVNcGeEntity3d@@PEBQEBVNcGeCurve2d@@PEAH2H@Z
  ??0NcGeCurveBoundary@@QEAA@XZ
  ??0NcGeCurveCurveInt2d@@QEAA@AEBV0@@Z
  ??0NcGeCurveCurveInt2d@@QEAA@AEBVNcGeCurve2d@@0AEBVMcGeTol@@@Z
  ??0NcGeCurveCurveInt2d@@QEAA@AEBVNcGeCurve2d@@0AEBVNcGeInterval@@1AEBVMcGeTol@@@Z
  ??0NcGeCurveCurveInt2d@@QEAA@XZ
  ??0NcGeCurveCurveInt3d@@QEAA@AEBV0@@Z
  ??0NcGeCurveCurveInt3d@@QEAA@AEBVNcGeCurve3d@@0AEBVNcGeInterval@@1AEBVNcGeVector3d@@AEBVMcGeTol@@@Z
  ??0NcGeCurveCurveInt3d@@QEAA@AEBVNcGeCurve3d@@0AEBVNcGeVector3d@@AEBVMcGeTol@@@Z
  ??0NcGeCurveCurveInt3d@@QEAA@XZ
  ??0NcGeCurveSurfInt@@QEAA@AEBV0@@Z
  ??0NcGeCurveSurfInt@@QEAA@AEBVNcGeCurve3d@@AEBVNcGeSurface@@AEBVMcGeTol@@@Z
  ??0NcGeCurveSurfInt@@QEAA@XZ
  ??0NcGeCylinder@@QEAA@AEBV0@@Z
  ??0NcGeCylinder@@QEAA@NAEBVNcGePoint3d@@AEBVNcGeVector3d@@1AEBVNcGeInterval@@NN@Z
  ??0NcGeCylinder@@QEAA@NAEBVNcGePoint3d@@AEBVNcGeVector3d@@@Z
  ??0NcGeCylinder@@QEAA@XZ
  ??0NcGeEllipArc2d@@QEAA@AEBV0@@Z
  ??0NcGeEllipArc2d@@QEAA@AEBVNcGeCircArc2d@@@Z
  ??0NcGeEllipArc2d@@QEAA@AEBVNcGePoint2d@@AEBVMcGeVector2d@@1NN@Z
  ??0NcGeEllipArc2d@@QEAA@AEBVNcGePoint2d@@AEBVMcGeVector2d@@1NNNN@Z
  ??0NcGeEllipArc2d@@QEAA@PEAVMcGeCurve3d@@@Z
  ??0NcGeEllipArc2d@@QEAA@XZ
  ??0NcGeEllipArc3d@@QEAA@AEBV0@@Z
  ??0NcGeEllipArc3d@@QEAA@AEBVNcGeCircArc3d@@@Z
  ??0NcGeEllipArc3d@@QEAA@AEBVNcGePoint3d@@AEBVNcGeVector3d@@1NN@Z
  ??0NcGeEllipArc3d@@QEAA@AEBVNcGePoint3d@@AEBVNcGeVector3d@@1NNNN@Z
  ??0NcGeEllipArc3d@@QEAA@PEAVMcGeEllipArc3d@@@Z
  ??0NcGeEllipArc3d@@QEAA@XZ
  ??0NcGeEntity2d@@IEAA@XZ
  ??0NcGeEntity2d@@QEAA@AEBV0@@Z
  ??0NcGeEntity2d@@QEAA@PEAVMcGeEntity3d@@@Z
  ??0NcGeEntity3d@@IEAA@XZ
  ??0NcGeEntity3d@@QEAA@AEBV0@@Z
  ??0NcGeEntity3d@@QEAA@PEAVMcGeEntity3d@@@Z
  ??0NcGeExternalBoundedSurface@@QEAA@AEBV0@@Z
  ??0NcGeExternalBoundedSurface@@QEAA@PEAXW4ExternalEntityKind@McGe@@H@Z
  ??0NcGeExternalBoundedSurface@@QEAA@XZ
  ??0NcGeExternalCurve2d@@QEAA@AEBV0@@Z
  ??0NcGeExternalCurve2d@@QEAA@PEAXW4ExternalEntityKind@McGe@@H@Z
  ??0NcGeExternalCurve2d@@QEAA@XZ
  ??0NcGeExternalCurve3d@@QEAA@AEBV0@@Z
  ??0NcGeExternalCurve3d@@QEAA@PEAXW4ExternalEntityKind@McGe@@H@Z
  ??0NcGeExternalCurve3d@@QEAA@XZ
  ??0NcGeExternalSurface@@QEAA@AEBV0@@Z
  ??0NcGeExternalSurface@@QEAA@PEAXW4ExternalEntityKind@McGe@@H@Z
  ??0NcGeExternalSurface@@QEAA@XZ
  ??0NcGeFiler@@IEAA@XZ
  ??0NcGeFiler@@QEAA@$$QEAV0@@Z
  ??0NcGeFiler@@QEAA@AEBV0@@Z
  ??0NcGeInterval@@QEAA@AEBV0@@Z
  ??0NcGeInterval@@QEAA@AEBVMcGeInterval@@@Z
  ??0NcGeInterval@@QEAA@HNN@Z
  ??0NcGeInterval@@QEAA@N@Z
  ??0NcGeInterval@@QEAA@NNN@Z
  ??0NcGeKnotVector@@QEAA@AEBV0@@Z
  ??0NcGeKnotVector@@QEAA@AEBV?$NcArray@NV?$HostMemoryAllocator@N@@@@N@Z
  ??0NcGeKnotVector@@QEAA@AEBVMcGeKnotVector@@@Z
  ??0NcGeKnotVector@@QEAA@HAEBV0@@Z
  ??0NcGeKnotVector@@QEAA@HHN@Z
  ??0NcGeKnotVector@@QEAA@HQEBNN@Z
  ??0NcGeKnotVector@@QEAA@N@Z
  ??0NcGeKnotVector@@QEAA@PEAVMcGeKnotVector@@@Z
  ??0NcGeLibVersion@@QEAA@AEBV0@@Z
  ??0NcGeLibVersion@@QEAA@EEEE@Z
  ??0NcGeLibVersion@@QEAA@XZ
  ??0NcGeLine2d@@QEAA@AEBV0@@Z
  ??0NcGeLine2d@@QEAA@AEBVNcGePoint2d@@0@Z
  ??0NcGeLine2d@@QEAA@AEBVNcGePoint2d@@AEBVMcGeVector2d@@@Z
  ??0NcGeLine2d@@QEAA@PEAVMcGeLine3d@@@Z
  ??0NcGeLine2d@@QEAA@XZ
  ??0NcGeLine3d@@QEAA@AEBV0@@Z
  ??0NcGeLine3d@@QEAA@AEBVNcGePoint3d@@0@Z
  ??0NcGeLine3d@@QEAA@AEBVNcGePoint3d@@AEBVNcGeVector3d@@@Z
  ??0NcGeLine3d@@QEAA@PEAVMcGeLine3d@@@Z
  ??0NcGeLine3d@@QEAA@XZ
  ??0NcGeLineSeg2d@@QEAA@AEBV0@@Z
  ??0NcGeLineSeg2d@@QEAA@AEBVNcGePoint2d@@0@Z
  ??0NcGeLineSeg2d@@QEAA@AEBVNcGePoint2d@@AEBVMcGeVector2d@@@Z
  ??0NcGeLineSeg2d@@QEAA@PEAVMcGeLineSeg3d@@@Z
  ??0NcGeLineSeg2d@@QEAA@XZ
  ??0NcGeLineSeg3d@@QEAA@AEBV0@@Z
  ??0NcGeLineSeg3d@@QEAA@AEBVNcGePoint3d@@0@Z
  ??0NcGeLineSeg3d@@QEAA@AEBVNcGePoint3d@@AEBVNcGeVector3d@@@Z
  ??0NcGeLineSeg3d@@QEAA@PEAVMcGeLineSeg3d@@@Z
  ??0NcGeLineSeg3d@@QEAA@XZ
  ??0NcGeLinearEnt2d@@IEAA@XZ
  ??0NcGeLinearEnt2d@@QEAA@AEBV0@@Z
  ??0NcGeLinearEnt2d@@QEAA@PEAVMcGeLinearEnt3d@@@Z
  ??0NcGeLinearEnt3d@@IEAA@XZ
  ??0NcGeLinearEnt3d@@QEAA@AEBV0@@Z
  ??0NcGeLinearEnt3d@@QEAA@PEAVMcGeLinearEnt3d@@@Z
  ??0NcGeMatrix2d@@QEAA@$$QEAV0@@Z
  ??0NcGeMatrix2d@@QEAA@AEBV0@@Z
  ??0NcGeMatrix2d@@QEAA@AEBVMcGeMatrix2d@@@Z
  ??0NcGeMatrix2d@@QEAA@XZ
  ??0NcGeMatrix3d@@QEAA@AEBVMcGeMatrix3d@@@Z
  ??0NcGeMatrix3d@@QEAA@AEBVOdGeMatrix3d@@@Z
  ??0NcGeMatrix3d@@QEAA@XZ
  ??0NcGeNurbCurve2d@@QEAA@AEBV0@@Z
  ??0NcGeNurbCurve2d@@QEAA@AEBV?$NcArray@VNcGePoint2d@@V?$HostMemoryAllocator@VNcGePoint2d@@@@@@AEBV?$NcArray@VMcGeVector2d@@V?$HostMemoryAllocator@VMcGeVector2d@@@@@@AEBVMcGeTol@@H@Z
  ??0NcGeNurbCurve2d@@QEAA@AEBV?$NcArray@VNcGePoint2d@@V?$HostMemoryAllocator@VNcGePoint2d@@@@@@AEBVMcGeTol@@@Z
  ??0NcGeNurbCurve2d@@QEAA@AEBV?$NcArray@VNcGePoint2d@@V?$HostMemoryAllocator@VNcGePoint2d@@@@@@AEBVMcGeVector2d@@1HHAEBVMcGeTol@@@Z
  ??0NcGeNurbCurve2d@@QEAA@AEBVNcGeEllipArc2d@@@Z
  ??0NcGeNurbCurve2d@@QEAA@AEBVNcGeLineSeg2d@@@Z
  ??0NcGeNurbCurve2d@@QEAA@HAEBVNcGeKnotVector@@AEBV?$NcArray@VNcGePoint2d@@V?$HostMemoryAllocator@VNcGePoint2d@@@@@@AEBV?$NcArray@NV?$HostMemoryAllocator@N@@@@H@Z
  ??0NcGeNurbCurve2d@@QEAA@HAEBVNcGeKnotVector@@AEBV?$NcArray@VNcGePoint2d@@V?$HostMemoryAllocator@VNcGePoint2d@@@@@@H@Z
  ??0NcGeNurbCurve2d@@QEAA@HAEBVNcGePolyline2d@@H@Z
  ??0NcGeNurbCurve2d@@QEAA@PEAVMcGeSplineEnt3d@@@Z
  ??0NcGeNurbCurve2d@@QEAA@XZ
  ??0NcGeNurbCurve3d@@QEAA@AEBV0@@Z
  ??0NcGeNurbCurve3d@@QEAA@AEBV?$McsArray@VMcGePoint3d@@AEBV1@@@AEBV?$McsArray@VMcGeVector3d@@AEBV1@@@AEBVMcGeTol@@H@Z
  ??0NcGeNurbCurve3d@@QEAA@AEBV?$McsArray@VMcGePoint3d@@AEBV1@@@AEBVNcGeVector3d@@1HHAEBVMcGeTol@@@Z
  ??0NcGeNurbCurve3d@@QEAA@AEBV?$NcArray@VNcGePoint3d@@V?$HostMemoryAllocator@VNcGePoint3d@@@@@@AEBV?$NcArray@VNcGeVector3d@@V?$HostMemoryAllocator@VNcGeVector3d@@@@@@AEBVMcGeTol@@H@Z
  ??0NcGeNurbCurve3d@@QEAA@AEBV?$NcArray@VNcGePoint3d@@V?$HostMemoryAllocator@VNcGePoint3d@@@@@@AEBVMcGeTol@@@Z
  ??0NcGeNurbCurve3d@@QEAA@AEBV?$NcArray@VNcGePoint3d@@V?$HostMemoryAllocator@VNcGePoint3d@@@@@@AEBVNcGeVector3d@@1HHAEBVMcGeTol@@@Z
  ??0NcGeNurbCurve3d@@QEAA@AEBVNcGeCurve3d@@N@Z
  ??0NcGeNurbCurve3d@@QEAA@AEBVNcGeEllipArc3d@@@Z
  ??0NcGeNurbCurve3d@@QEAA@AEBVNcGeLineSeg3d@@@Z
  ??0NcGeNurbCurve3d@@QEAA@HAEBVMcGePolyline3d@@H@Z
  ??0NcGeNurbCurve3d@@QEAA@HAEBVNcGeKnotVector@@AEBV?$McsArray@VMcGePoint3d@@AEBV1@@@AEBV?$McsArray@NN@@H@Z
  ??0NcGeNurbCurve3d@@QEAA@HAEBVNcGeKnotVector@@AEBV?$McsArray@VMcGePoint3d@@AEBV1@@@H@Z
  ??0NcGeNurbCurve3d@@QEAA@HAEBVNcGeKnotVector@@AEBV?$NcArray@VNcGePoint3d@@V?$HostMemoryAllocator@VNcGePoint3d@@@@@@AEBV?$NcArray@NV?$HostMemoryAllocator@N@@@@H@Z
  ??0NcGeNurbCurve3d@@QEAA@HAEBVNcGeKnotVector@@AEBV?$NcArray@VNcGePoint3d@@V?$HostMemoryAllocator@VNcGePoint3d@@@@@@H@Z
  ??0NcGeNurbCurve3d@@QEAA@HAEBVNcGePolyline3d@@H@Z
  ??0NcGeNurbCurve3d@@QEAA@PEAV0@@Z
  ??0NcGeNurbCurve3d@@QEAA@PEAVMcGeNurbCurve3d@@@Z
  ??0NcGeNurbCurve3d@@QEAA@XZ
  ??0NcGeNurbSurface@@QEAA@AEBV0@@Z
  ??0NcGeNurbSurface@@QEAA@HHHHHHQEBVNcGePoint3d@@QEBNAEBVNcGeKnotVector@@2AEBVMcGeTol@@@Z
  ??0NcGeNurbSurface@@QEAA@PEAVMcGeNurbSurface@@@Z
  ??0NcGeNurbSurface@@QEAA@XZ
  ??0NcGeOffsetCurve2d@@QEAA@AEBV0@@Z
  ??0NcGeOffsetCurve2d@@QEAA@AEBVNcGeCurve2d@@N@Z
  ??0NcGeOffsetCurve2d@@QEAA@PEAVMcGeOffsetCurve3d@@@Z
  ??0NcGeOffsetCurve3d@@QEAA@AEBV0@@Z
  ??0NcGeOffsetCurve3d@@QEAA@AEBVNcGeCurve3d@@AEBVNcGeVector3d@@N@Z
  ??0NcGeOffsetCurve3d@@QEAA@PEAVMcGeOffsetCurve3d@@@Z
  ??0NcGeOffsetSurface@@QEAA@AEBV0@@Z
  ??0NcGeOffsetSurface@@QEAA@PEAVNcGeSurface@@NH@Z
  ??0NcGeOffsetSurface@@QEAA@XZ
  ??0NcGePlanarEnt@@IEAA@AEBV0@@Z
  ??0NcGePlanarEnt@@IEAA@XZ
  ??0NcGePlane@@QEAA@AEBV0@@Z
  ??0NcGePlane@@QEAA@AEBVMcGePlane@@@Z
  ??0NcGePlane@@QEAA@AEBVNcGePoint3d@@00@Z
  ??0NcGePlane@@QEAA@AEBVNcGePoint3d@@AEBVNcGeVector3d@@1@Z
  ??0NcGePlane@@QEAA@AEBVNcGePoint3d@@AEBVNcGeVector3d@@@Z
  ??0NcGePlane@@QEAA@NNNN@Z
  ??0NcGePlane@@QEAA@XZ
  ??0NcGePoint2d@@QEAA@AEBVMcGePoint2d@@@Z
  ??0NcGePoint2d@@QEAA@AEBVOdGePoint2d@@@Z
  ??0NcGePoint2d@@QEAA@NN@Z
  ??0NcGePoint2d@@QEAA@XZ
  ??0NcGePoint3d@@QEAA@AEBV0@@Z
  ??0NcGePoint3d@@QEAA@AEBVMcGePoint3d@@@Z
  ??0NcGePoint3d@@QEAA@AEBVNcGePlanarEnt@@AEBVNcGePoint2d@@@Z
  ??0NcGePoint3d@@QEAA@AEBVOdGePoint3d@@@Z
  ??0NcGePoint3d@@QEAA@NNN@Z
  ??0NcGePoint3d@@QEAA@XZ
  ??0NcGePointEnt2d@@IEAA@AEBV0@@Z
  ??0NcGePointEnt2d@@IEAA@XZ
  ??0NcGePointEnt2d@@QEAA@PEAVMcGePointEnt3d@@@Z
  ??0NcGePointEnt3d@@IEAA@AEBV0@@Z
  ??0NcGePointEnt3d@@IEAA@XZ
  ??0NcGePointEnt3d@@QEAA@PEAVMcGeEntity3d@@@Z
  ??0NcGePointOnCurve2d@@QEAA@AEBV0@@Z
  ??0NcGePointOnCurve2d@@QEAA@AEBVNcGeCurve2d@@@Z
  ??0NcGePointOnCurve2d@@QEAA@AEBVNcGeCurve2d@@N@Z
  ??0NcGePointOnCurve2d@@QEAA@PEAVMcGePointOnCurve3d@@@Z
  ??0NcGePointOnCurve2d@@QEAA@XZ
  ??0NcGePointOnSurface@@QEAA@AEBV0@@Z
  ??0NcGePointOnSurface@@QEAA@AEBVNcGeSurface@@@Z
  ??0NcGePointOnSurface@@QEAA@AEBVNcGeSurface@@AEBVNcGePoint2d@@@Z
  ??0NcGePointOnSurface@@QEAA@PEAVMcGePointOnSurface@@@Z
  ??0NcGePointOnSurface@@QEAA@XZ
  ??0NcGePolyline2d@@QEAA@AEBV0@@Z
  ??0NcGePolyline2d@@QEAA@AEBV?$NcArray@VNcGePoint2d@@V?$HostMemoryAllocator@VNcGePoint2d@@@@@@@Z
  ??0NcGePolyline2d@@QEAA@AEBVNcGeCurve2d@@N@Z
  ??0NcGePolyline2d@@QEAA@AEBVNcGeKnotVector@@AEBV?$NcArray@VNcGePoint2d@@V?$HostMemoryAllocator@VNcGePoint2d@@@@@@@Z
  ??0NcGePolyline2d@@QEAA@PEAVMcGePolyline3d@@@Z
  ??0NcGePolyline2d@@QEAA@XZ
  ??0NcGePolyline3d@@QEAA@AEBV0@@Z
  ??0NcGePolyline3d@@QEAA@AEBV?$McsArray@VMcGePoint3d@@AEBV1@@@@Z
  ??0NcGePolyline3d@@QEAA@AEBV?$NcArray@VNcGePoint3d@@V?$HostMemoryAllocator@VNcGePoint3d@@@@@@@Z
  ??0NcGePolyline3d@@QEAA@AEBVNcGeCurve3d@@N@Z
  ??0NcGePolyline3d@@QEAA@AEBVNcGeKnotVector@@AEBV?$McsArray@VMcGePoint3d@@AEBV1@@@@Z
  ??0NcGePolyline3d@@QEAA@AEBVNcGeKnotVector@@AEBV?$NcArray@VNcGePoint3d@@V?$HostMemoryAllocator@VNcGePoint3d@@@@@@@Z
  ??0NcGePolyline3d@@QEAA@PEAVMcGePolyline3d@@@Z
  ??0NcGePolyline3d@@QEAA@XZ
  ??0NcGePosition2d@@QEAA@AEBV0@@Z
  ??0NcGePosition2d@@QEAA@AEBVNcGePoint2d@@@Z
  ??0NcGePosition2d@@QEAA@NN@Z
  ??0NcGePosition2d@@QEAA@PEAVMcGePosition3d@@@Z
  ??0NcGePosition2d@@QEAA@XZ
  ??0NcGePosition3d@@QEAA@AEBV0@@Z
  ??0NcGePosition3d@@QEAA@AEBVNcGePoint3d@@@Z
  ??0NcGePosition3d@@QEAA@NNN@Z
  ??0NcGePosition3d@@QEAA@PEAVMcGePosition3d@@@Z
  ??0NcGePosition3d@@QEAA@XZ
  ??0NcGeRay2d@@QEAA@AEBV0@@Z
  ??0NcGeRay2d@@QEAA@AEBVNcGePoint2d@@0@Z
  ??0NcGeRay2d@@QEAA@AEBVNcGePoint2d@@AEBVMcGeVector2d@@@Z
  ??0NcGeRay2d@@QEAA@PEAVMcGeRay3d@@@Z
  ??0NcGeRay2d@@QEAA@XZ
  ??0NcGeRay3d@@QEAA@AEBV0@@Z
  ??0NcGeRay3d@@QEAA@AEBVNcGePoint3d@@0@Z
  ??0NcGeRay3d@@QEAA@AEBVNcGePoint3d@@AEBVNcGeVector3d@@@Z
  ??0NcGeRay3d@@QEAA@PEAVMcGeRay3d@@@Z
  ??0NcGeRay3d@@QEAA@XZ
  ??0NcGeScale2d@@QEAA@AEBV0@@Z
  ??0NcGeScale2d@@QEAA@N@Z
  ??0NcGeScale2d@@QEAA@NN@Z
  ??0NcGeScale2d@@QEAA@XZ
  ??0NcGeScale3d@@QEAA@AEBV0@@Z
  ??0NcGeScale3d@@QEAA@N@Z
  ??0NcGeScale3d@@QEAA@NNN@Z
  ??0NcGeScale3d@@QEAA@PEBVOdGeScale3d@@@Z
  ??0NcGeScale3d@@QEAA@XZ
  ??0NcGeSphere@@QEAA@AEBV0@@Z
  ??0NcGeSphere@@QEAA@NAEBVNcGePoint3d@@@Z
  ??0NcGeSphere@@QEAA@NAEBVNcGePoint3d@@AEBVNcGeVector3d@@1NNNN@Z
  ??0NcGeSphere@@QEAA@XZ
  ??0NcGeSplineEnt2d@@IEAA@XZ
  ??0NcGeSplineEnt2d@@QEAA@AEBV0@@Z
  ??0NcGeSplineEnt2d@@QEAA@PEAVMcGeSplineEnt3d@@@Z
  ??0NcGeSplineEnt3d@@IEAA@XZ
  ??0NcGeSplineEnt3d@@QEAA@AEBV0@@Z
  ??0NcGeSplineEnt3d@@QEAA@PEAVMcGeSplineEnt3d@@@Z
  ??0NcGeSurfSurfInt@@QEAA@AEBV0@@Z
  ??0NcGeSurfSurfInt@@QEAA@AEBVNcGeSurface@@0AEBVMcGeTol@@@Z
  ??0NcGeSurfSurfInt@@QEAA@XZ
  ??0NcGeSurface@@IEAA@AEBV0@@Z
  ??0NcGeSurface@@IEAA@XZ
  ??0NcGeSurface@@QEAA@PEAVMcGeSurface@@@Z
  ??0NcGeSurface@@QEAA@PEAVOdGeSurface@@@Z
  ??0NcGeTorus@@QEAA@AEBV0@@Z
  ??0NcGeTorus@@QEAA@NNAEBVNcGePoint3d@@AEBVNcGeVector3d@@1NNNN@Z
  ??0NcGeTorus@@QEAA@NNAEBVNcGePoint3d@@AEBVNcGeVector3d@@@Z
  ??0NcGeTorus@@QEAA@XZ
  ??0NcGeVector3d@@QEAA@AEBV0@@Z
  ??0NcGeVector3d@@QEAA@AEBVMcGeVector3d@@@Z
  ??0NcGeVector3d@@QEAA@AEBVNcGePlanarEnt@@AEBVMcGeVector2d@@@Z
  ??0NcGeVector3d@@QEAA@AEBVOdGeVector3d@@@Z
  ??0NcGeVector3d@@QEAA@NNN@Z
  ??0NcGeVector3d@@QEAA@XZ
  ??0NcGeomConstraint@@IEAA@XZ
  ??0NcGeomConstraint@@QEAA@$$QEAV0@@Z
  ??0NcGeomConstraint@@QEAA@AEBV0@@Z
  ??0NcGiClipBoundary@@QEAA@AEBUOdGiClipBoundary@@@Z
  ??0NcGiClipBoundary@@QEAA@XZ
  ??0NcGiCommonDraw@@IEAA@PEAVOdRxObject@@@Z
  ??0NcGiCommonDraw@@IEAA@XZ
  ??0NcGiCommonDraw@@QEAA@$$QEAV0@@Z
  ??0NcGiCommonDraw@@QEAA@AEBV0@@Z
  ??0NcGiContext@@QEAA@$$QEAV0@@Z
  ??0NcGiContext@@QEAA@AEBV0@@Z
  ??0NcGiContext@@QEAA@PEAVOdRxObject@@@Z
  ??0NcGiContext@@QEAA@XZ
  ??0NcGiDisplayStyle@@QEAA@AEBV0@@Z
  ??0NcGiDisplayStyle@@QEAA@XZ
  ??0NcGiDistantLightTraits2@@QEAA@$$QEAV0@@Z
  ??0NcGiDistantLightTraits2@@QEAA@AEBV0@@Z
  ??0NcGiDistantLightTraits2@@QEAA@XZ
  ??0NcGiDistantLightTraits@@QEAA@$$QEAV0@@Z
  ??0NcGiDistantLightTraits@@QEAA@AEBV0@@Z
  ??0NcGiDistantLightTraits@@QEAA@XZ
  ??0NcGiDrawable@@QEAA@AEBV0@@Z
  ??0NcGiDrawable@@QEAA@PEAVOdRxObject@@@Z
  ??0NcGiDrawable@@QEAA@XZ
  ??0NcGiDrawableOverrule@@QEAA@$$QEAV0@@Z
  ??0NcGiDrawableOverrule@@QEAA@AEBV0@@Z
  ??0NcGiDrawableOverrule@@QEAA@XZ
  ??0NcGiDrawableTraits2@@QEAA@$$QEAV0@@Z
  ??0NcGiDrawableTraits2@@QEAA@AEBV0@@Z
  ??0NcGiDrawableTraits2@@QEAA@PEAVOdRxObject@@@Z
  ??0NcGiDrawableTraits2@@QEAA@XZ
  ??0NcGiDrawableTraits@@QEAA@$$QEAV0@@Z
  ??0NcGiDrawableTraits@@QEAA@AEBV0@@Z
  ??0NcGiDrawableTraits@@QEAA@PEAVOdRxObject@@@Z
  ??0NcGiDrawableTraits@@QEAA@XZ
  ??0NcGiEdgeData@@QEAA@AEBV0@@Z
  ??0NcGiEdgeData@@QEAA@XZ
  ??0NcGiEdgeStyle@@QEAA@AEBV0@@Z
  ??0NcGiEdgeStyle@@QEAA@XZ
  ??0NcGiFaceData@@QEAA@AEBV0@@Z
  ??0NcGiFaceData@@QEAA@XZ
  ??0NcGiFaceStyle@@QEAA@AEBV0@@Z
  ??0NcGiFaceStyle@@QEAA@XZ
  ??0NcGiGdiDrawObject@@QEAA@$$QEAV0@@Z
  ??0NcGiGdiDrawObject@@QEAA@AEBV0@@Z
  ??0NcGiGdiDrawObject@@QEAA@XZ
  ??0NcGiGenericTexture@@QEAA@AEBV0@@Z
  ??0NcGiGenericTexture@@QEAA@XZ
  ??0NcGiGeometry@@QEAA@$$QEAV0@@Z
  ??0NcGiGeometry@@QEAA@AEBV0@@Z
  ??0NcGiGeometry@@QEAA@PEAVOdRxObject@@@Z
  ??0NcGiGeometry@@QEAA@XZ
  ??0NcGiGlyph@@QEAA@$$QEAV0@@Z
  ??0NcGiGlyph@@QEAA@AEBV0@@Z
  ??0NcGiGlyph@@QEAA@PEAVOdRxObject@@@Z
  ??0NcGiGlyph@@QEAA@XZ
  ??0NcGiGradientBackgroundTraits@@QEAA@$$QEAV0@@Z
  ??0NcGiGradientBackgroundTraits@@QEAA@AEBV0@@Z
  ??0NcGiGradientBackgroundTraits@@QEAA@XZ
  ??0NcGiGroundPlaneBackgroundTraits@@QEAA@$$QEAV0@@Z
  ??0NcGiGroundPlaneBackgroundTraits@@QEAA@AEBV0@@Z
  ??0NcGiGroundPlaneBackgroundTraits@@QEAA@XZ
  ??0NcGiImageBackgroundTraits@@QEAA@$$QEAV0@@Z
  ??0NcGiImageBackgroundTraits@@QEAA@AEBV0@@Z
  ??0NcGiImageBackgroundTraits@@QEAA@XZ
  ??0NcGiImageFileTexture@@QEAA@AEBV0@@Z
  ??0NcGiImageFileTexture@@QEAA@PEAVOdRxObject@@@Z
  ??0NcGiImageFileTexture@@QEAA@XZ
  ??0NcGiImageTexture@@QEAA@AEBV0@@Z
  ??0NcGiImageTexture@@QEAA@PEAVOdRxObject@@@Z
  ??0NcGiImageTexture@@QEAA@XZ
  ??0NcGiLightAttenuation@@QEAA@AEBV0@@Z
  ??0NcGiLightAttenuation@@QEAA@XZ
  ??0NcGiLightTraits@@QEAA@$$QEAV0@@Z
  ??0NcGiLightTraits@@QEAA@AEBV0@@Z
  ??0NcGiLightTraits@@QEAA@XZ
  ??0NcGiLinetypeEngine@@QEAA@AEBV0@@Z
  ??0NcGiLinetypeEngine@@QEAA@XZ
  ??0NcGiMapper@@QEAA@AEBV0@@Z
  ??0NcGiMapper@@QEAA@AEBVOdGiMapper@@@Z
  ??0NcGiMapper@@QEAA@XZ
  ??0NcGiMarbleTexture@@QEAA@AEBV0@@Z
  ??0NcGiMarbleTexture@@QEAA@XZ
  ??0NcGiMaterialColor@@QEAA@AEBV0@@Z
  ??0NcGiMaterialColor@@QEAA@AEBVOdGiMaterialColor@@@Z
  ??0NcGiMaterialColor@@QEAA@XZ
  ??0NcGiMaterialMap@@QEAA@AEBV0@@Z
  ??0NcGiMaterialMap@@QEAA@AEBVOdGiMaterialMap@@@Z
  ??0NcGiMaterialMap@@QEAA@XZ
  ??0NcGiMaterialTexture@@QEAA@AEBV0@@Z
  ??0NcGiMaterialTexture@@QEAA@PEAVOdRxObject@@@Z
  ??0NcGiMaterialTexture@@QEAA@XZ
  ??0NcGiMaterialTraits2@@QEAA@$$QEAV0@@Z
  ??0NcGiMaterialTraits2@@QEAA@AEBV0@@Z
  ??0NcGiMaterialTraits2@@QEAA@XZ
  ??0NcGiMaterialTraits@@QEAA@$$QEAV0@@Z
  ??0NcGiMaterialTraits@@QEAA@AEBV0@@Z
  ??0NcGiMaterialTraits@@QEAA@XZ
  ??0NcGiMentalRayRenderSettingsTraits2@@QEAA@$$QEAV0@@Z
  ??0NcGiMentalRayRenderSettingsTraits2@@QEAA@AEBV0@@Z
  ??0NcGiMentalRayRenderSettingsTraits2@@QEAA@XZ
  ??0NcGiMentalRayRenderSettingsTraits3@@QEAA@$$QEAV0@@Z
  ??0NcGiMentalRayRenderSettingsTraits3@@QEAA@AEBV0@@Z
  ??0NcGiMentalRayRenderSettingsTraits3@@QEAA@XZ
  ??0NcGiMentalRayRenderSettingsTraits@@QEAA@$$QEAV0@@Z
  ??0NcGiMentalRayRenderSettingsTraits@@QEAA@AEBV0@@Z
  ??0NcGiMentalRayRenderSettingsTraits@@QEAA@XZ
  ??0NcGiNonEntityTraits@@QEAA@$$QEAV0@@Z
  ??0NcGiNonEntityTraits@@QEAA@AEBV0@@Z
  ??0NcGiNonEntityTraits@@QEAA@XZ
  ??0NcGiPointLightTraits2@@QEAA@$$QEAV0@@Z
  ??0NcGiPointLightTraits2@@QEAA@AEBV0@@Z
  ??0NcGiPointLightTraits2@@QEAA@XZ
  ??0NcGiPointLightTraits@@QEAA@$$QEAV0@@Z
  ??0NcGiPointLightTraits@@QEAA@AEBV0@@Z
  ??0NcGiPointLightTraits@@QEAA@XZ
  ??0NcGiProceduralTexture@@QEAA@$$QEAV0@@Z
  ??0NcGiProceduralTexture@@QEAA@AEBV0@@Z
  ??0NcGiProceduralTexture@@QEAA@XZ
  ??0NcGiRenderEnvironmentTraits@@QEAA@$$QEAV0@@Z
  ??0NcGiRenderEnvironmentTraits@@QEAA@AEBV0@@Z
  ??0NcGiRenderEnvironmentTraits@@QEAA@XZ
  ??0NcGiRenderSettingsTraits@@QEAA@$$QEAV0@@Z
  ??0NcGiRenderSettingsTraits@@QEAA@AEBV0@@Z
  ??0NcGiRenderSettingsTraits@@QEAA@XZ
  ??0NcGiRequestScanLines@Ntil@@QEAA@XZ
  ??0NcGiShadowParameters2@@QEAA@AEBV0@@Z
  ??0NcGiShadowParameters2@@QEAA@AEBVNcGiShadowParameters@@@Z
  ??0NcGiShadowParameters2@@QEAA@XZ
  ??0NcGiShadowParameters@@QEAA@AEBV0@@Z
  ??0NcGiShadowParameters@@QEAA@XZ
  ??0NcGiSkyBackgroundTraits@@QEAA@$$QEAV0@@Z
  ??0NcGiSkyBackgroundTraits@@QEAA@AEBV0@@Z
  ??0NcGiSkyBackgroundTraits@@QEAA@XZ
  ??0NcGiSkyParameters@@QEAA@AEBV0@@Z
  ??0NcGiSkyParameters@@QEAA@XZ
  ??0NcGiSolidBackgroundTraits@@QEAA@$$QEAV0@@Z
  ??0NcGiSolidBackgroundTraits@@QEAA@AEBV0@@Z
  ??0NcGiSolidBackgroundTraits@@QEAA@XZ
  ??0NcGiSpotLightTraits2@@QEAA@$$QEAV0@@Z
  ??0NcGiSpotLightTraits2@@QEAA@AEBV0@@Z
  ??0NcGiSpotLightTraits2@@QEAA@XZ
  ??0NcGiSpotLightTraits@@QEAA@$$QEAV0@@Z
  ??0NcGiSpotLightTraits@@QEAA@AEBV0@@Z
  ??0NcGiSpotLightTraits@@QEAA@XZ
  ??0NcGiStandardLightTraits@@QEAA@$$QEAV0@@Z
  ??0NcGiStandardLightTraits@@QEAA@AEBV0@@Z
  ??0NcGiStandardLightTraits@@QEAA@XZ
  ??0NcGiSubEntityTraits@@QEAA@$$QEAV0@@Z
  ??0NcGiSubEntityTraits@@QEAA@AEBV0@@Z
  ??0NcGiSubEntityTraits@@QEAA@PEAVOdRxObject@@@Z
  ??0NcGiSubEntityTraits@@QEAA@XZ
  ??0NcGiTextEngine@@QEAA@AEBV0@@Z
  ??0NcGiTextEngine@@QEAA@XZ
  ??0NcGiTextStyle@@QEAA@AEBV0@@Z
  ??0NcGiTextStyle@@QEAA@PEAVNcDbDatabase@@@Z
  ??0NcGiTextStyle@@QEAA@PEAVOdGiTextStyle@@@Z
  ??0NcGiTextStyle@@QEAA@PEB_W0NNNNHHHHH0@Z
  ??0NcGiToneOperatorParameters@@QEAA@AEBV0@@Z
  ??0NcGiToneOperatorParameters@@QEAA@XZ
  ??0NcGiVariant@@QEAA@AEBV0@@Z
  ??0NcGiVariant@@QEAA@AEBVNcCmColor@@@Z
  ??0NcGiVariant@@QEAA@J@Z
  ??0NcGiVariant@@QEAA@N@Z
  ??0NcGiVariant@@QEAA@PEB_W@Z
  ??0NcGiVariant@@QEAA@XZ
  ??0NcGiVariant@@QEAA@_N@Z
  ??0NcGiVertexData@@QEAA@AEBV0@@Z
  ??0NcGiVertexData@@QEAA@XZ
  ??0NcGiViewport@@QEAA@$$QEAV0@@Z
  ??0NcGiViewport@@QEAA@AEBV0@@Z
  ??0NcGiViewport@@QEAA@PEAVOdRxObject@@@Z
  ??0NcGiViewport@@QEAA@XZ
  ??0NcGiViewportDrawNrx@@IEAA@PEAVOdRxObject@@@Z
  ??0NcGiViewportDrawNrx@@IEAA@XZ
  ??0NcGiViewportDrawNrx@@QEAA@$$QEAV0@@Z
  ??0NcGiViewportDrawNrx@@QEAA@AEBV0@@Z
  ??0NcGiViewportDrawNrxHostImpl@@QEAA@AEBU0@@Z
  ??0NcGiViewportDrawNrxHostImpl@@QEAA@PEAVOdRxObject@@@Z
  ??0NcGiViewportDrawNrxHostImpl@@QEAA@XZ
  ??0NcGiViewportGeometry@@QEAA@$$QEAV0@@Z
  ??0NcGiViewportGeometry@@QEAA@AEBV0@@Z
  ??0NcGiViewportGeometry@@QEAA@PEAVOdRxObject@@@Z
  ??0NcGiViewportGeometry@@QEAA@XZ
  ??0NcGiViewportTraits@@QEAA@$$QEAV0@@Z
  ??0NcGiViewportTraits@@QEAA@AEBV0@@Z
  ??0NcGiViewportTraits@@QEAA@PEAVOdGiDrawableTraits@@@Z
  ??0NcGiViewportTraits@@QEAA@XZ
  ??0NcGiVisualStyle@@QEAA@AEBV0@@Z
  ??0NcGiVisualStyle@@QEAA@PEAVOdRxObject@@@Z
  ??0NcGiVisualStyle@@QEAA@W4Type@0@@Z
  ??0NcGiVisualStyle@@QEAA@XZ
  ??0NcGiVisualStyleTraits@@QEAA@$$QEAV0@@Z
  ??0NcGiVisualStyleTraits@@QEAA@AEBV0@@Z
  ??0NcGiVisualStyleTraits@@QEAA@XZ
  ??0NcGiWebLightTraits@@QEAA@$$QEAV0@@Z
  ??0NcGiWebLightTraits@@QEAA@AEBV0@@Z
  ??0NcGiWebLightTraits@@QEAA@XZ
  ??0NcGiWoodTexture@@QEAA@AEBV0@@Z
  ??0NcGiWoodTexture@@QEAA@XZ
  ??0NcGiWorldDraw@@IEAA@PEAVOdRxObject@@@Z
  ??0NcGiWorldDraw@@IEAA@XZ
  ??0NcGiWorldDraw@@QEAA@$$QEAV0@@Z
  ??0NcGiWorldDraw@@QEAA@AEBV0@@Z
  ??0NcGiWorldDrawHostImpl@@QEAA@AEBU0@@Z
  ??0NcGiWorldDrawHostImpl@@QEAA@PEAVOdRxObject@@@Z
  ??0NcGiWorldDrawHostImpl@@QEAA@XZ
  ??0NcGiWorldGeometry@@QEAA@$$QEAV0@@Z
  ??0NcGiWorldGeometry@@QEAA@AEBV0@@Z
  ??0NcGiWorldGeometry@@QEAA@PEAVOdRxObject@@@Z
  ??0NcGiWorldGeometry@@QEAA@XZ
  ??0NcGsDCPoint@@QEAA@AEBV0@@Z
  ??0NcGsDCPoint@@QEAA@JJ@Z
  ??0NcGsDCPoint@@QEAA@PEBVOdGsDCPoint@@@Z
  ??0NcGsDCPoint@@QEAA@W4MaxFlag@0@@Z
  ??0NcGsDCPoint@@QEAA@W4MinFlag@0@@Z
  ??0NcGsDCPoint@@QEAA@XZ
  ??0NcGsDCRect@@QEAA@AEBV0@@Z
  ??0NcGsDCRect@@QEAA@AEBVNcGsDCPoint@@0@Z
  ??0NcGsDCRect@@QEAA@JJJJ@Z
  ??0NcGsDCRect@@QEAA@PEBVOdGsDCRect@@@Z
  ??0NcGsDCRect@@QEAA@W4NullFlag@0@@Z
  ??0NcGsDCRect@@QEAA@XZ
  ??0NcGsDevice@@QEAA@AEBV0@@Z
  ??0NcGsDevice@@QEAA@PEAVOdGsDevice@@@Z
  ??0NcGsModel@@QEAA@AEBV0@@Z
  ??0NcGsModel@@QEAA@XZ
  ??0NcGsNode@@QEAA@AEBV0@@Z
  ??0NcGsNode@@QEAA@PEAVOdGsNode@@@Z
  ??0NcGsNode@@QEAA@XZ
  ??0NcGsView@@QEAA@AEBV0@@Z
  ??0NcGsView@@QEAA@PEAVOdGsView@@@Z
  ??0NcHelpParameter@@QEAA@$$QEAV0@@Z
  ??0NcHelpParameter@@QEAA@AEBV0@@Z
  ??0NcHelpParameter@@QEAA@XZ
  ??0NcHorizontalConstraint@@QEAA@$$QEAV0@@Z
  ??0NcHorizontalConstraint@@QEAA@AEBV0@@Z
  ??0NcHorizontalConstraint@@QEAA@XZ
  ??0NcLyLayerFilter@@QEAA@$$QEAV0@@Z
  ??0NcLyLayerFilter@@QEAA@AEBV0@@Z
  ??0NcLyLayerFilter@@QEAA@PEAVOdRxObject@@@Z
  ??0NcLyLayerFilter@@QEAA@XZ
  ??0NcLyLayerFilterManager@@QEAA@$$QEAV0@@Z
  ??0NcLyLayerFilterManager@@QEAA@AEBV0@@Z
  ??0NcLyLayerFilterManager@@QEAA@PEAVOdRxObject@@@Z
  ??0NcLyLayerGroup@@QEAA@$$QEAV0@@Z
  ??0NcLyLayerGroup@@QEAA@AEBV0@@Z
  ??0NcLyLayerGroup@@QEAA@PEAVOdRxObject@@@Z
  ??0NcLyLayerGroup@@QEAA@XZ
  ??0NcMidPointConstraint@@QEAA@$$QEAV0@@Z
  ??0NcMidPointConstraint@@QEAA@AEBV0@@Z
  ??0NcMidPointConstraint@@QEAA@XZ
  ??0NcNormalConstraint@@QEAA@$$QEAV0@@Z
  ??0NcNormalConstraint@@QEAA@AEBV0@@Z
  ??0NcNormalConstraint@@QEAA@XZ
  ??0NcParallelConstraint@@QEAA@$$QEAV0@@Z
  ??0NcParallelConstraint@@QEAA@AEBV0@@Z
  ??0NcParallelConstraint@@QEAA@_N@Z
  ??0NcPerpendicularConstraint@@QEAA@$$QEAV0@@Z
  ??0NcPerpendicularConstraint@@QEAA@AEBV0@@Z
  ??0NcPerpendicularConstraint@@QEAA@XZ
  ??0NcPointCoincidenceConstraint@@QEAA@$$QEAV0@@Z
  ??0NcPointCoincidenceConstraint@@QEAA@AEBV0@@Z
  ??0NcPointCoincidenceConstraint@@QEAA@XZ
  ??0NcPointCurveConstraint@@QEAA@$$QEAV0@@Z
  ??0NcPointCurveConstraint@@QEAA@AEBV0@@Z
  ??0NcPointCurveConstraint@@QEAA@XZ
  ??0NcRadiusDiameterConstraint@@QEAA@$$QEAV0@@Z
  ??0NcRadiusDiameterConstraint@@QEAA@AEBV0@@Z
  ??0NcRadiusDiameterConstraint@@QEAA@W4RadiusDiameterConstrType@0@@Z
  ??0NcRadiusDiameterConstraint@@QEAA@XZ
  ??0NcRxClass@@QEAA@$$QEAV0@@Z
  ??0NcRxClass@@QEAA@AEBV0@@Z
  ??0NcRxClass@@QEAA@PEAVOdRxObject@@@Z
  ??0NcRxClass@@QEAA@PEA_WPEAVOdRxObject@@@Z
  ??0NcRxClassExtPE@@QEAA@$$QEAV0@@Z
  ??0NcRxClassExtPE@@QEAA@AEBV0@@Z
  ??0NcRxClassExtPE@@QEAA@XZ
  ??0NcRxDLinkerReactor@@QEAA@$$QEAV0@@Z
  ??0NcRxDLinkerReactor@@QEAA@AEBV0@@Z
  ??0NcRxDLinkerReactor@@QEAA@XZ
  ??0NcRxDictionary@@QEAA@AEBV0@@Z
  ??0NcRxDictionary@@QEAA@PEAVOdRxObject@@@Z
  ??0NcRxDictionaryIterator@@QEAA@$$QEAV0@@Z
  ??0NcRxDictionaryIterator@@QEAA@AEBV0@@Z
  ??0NcRxDictionaryIterator@@QEAA@PEAVOdRxObject@@@Z
  ??0NcRxDynamicLinker@@QEAA@$$QEAV0@@Z
  ??0NcRxDynamicLinker@@QEAA@AEBV0@@Z
  ??0NcRxDynamicLinker@@QEAA@PEAVOdRxDynamicLinker@@@Z
  ??0NcRxDynamicLinkerImpl@@QEAA@PEAVOdRxDynamicLinker@@@Z
  ??0NcRxEvent@@QEAA@$$QEAV0@@Z
  ??0NcRxEvent@@QEAA@AEBV0@@Z
  ??0NcRxEvent@@QEAA@PEAVOdRxObject@@@Z
  ??0NcRxEvent@@QEAA@XZ
  ??0NcRxEventReactor@@QEAA@AEBV0@@Z
  ??0NcRxEventReactor@@QEAA@PEAVOdRxObject@@@Z
  ??0NcRxEventReactor@@QEAA@XZ
  ??0NcRxIterator@@QEAA@$$QEAV0@@Z
  ??0NcRxIterator@@QEAA@AEBV0@@Z
  ??0NcRxIterator@@QEAA@PEAVOdRxObject@@@Z
  ??0NcRxKernel@@QEAA@AEBV0@@Z
  ??0NcRxKernel@@QEAA@XZ
  ??0NcRxObject@@IEAA@XZ
  ??0NcRxObject@@QEAA@AEBV0@@Z
  ??0NcRxObject@@QEAA@PEAVOdRxObject@@@Z
  ??0NcRxObjectPtr@@QEAA@AEBV0@@Z
  ??0NcRxObjectPtr@@QEAA@AEBVNcBaseObjectPtr@@@Z
  ??0NcRxObjectPtr@@QEAA@PEBVOdRxObject@@@Z
  ??0NcRxObjectPtr@@QEAA@PEBVOdRxObject@@W4NcRxObjMod@@@Z
  ??0NcRxObjectPtr@@QEAA@XZ
  ??0NcRxOverrule@@QEAA@AEBV0@@Z
  ??0NcRxOverrule@@QEAA@PEAVOdRxObject@@@Z
  ??0NcRxOverrule@@QEAA@XZ
  ??0NcRxProtocolReactor@@QEAA@$$QEAV0@@Z
  ??0NcRxProtocolReactor@@QEAA@AEBV0@@Z
  ??0NcRxProtocolReactor@@QEAA@XZ
  ??0NcRxProtocolReactorIterator@@QEAA@$$QEAV0@@Z
  ??0NcRxProtocolReactorIterator@@QEAA@AEBV0@@Z
  ??0NcRxProtocolReactorIterator@@QEAA@XZ
  ??0NcRxProtocolReactorList@@QEAA@$$QEAV0@@Z
  ??0NcRxProtocolReactorList@@QEAA@AEBV0@@Z
  ??0NcRxProtocolReactorList@@QEAA@XZ
  ??0NcRxProtocolReactorListIterator@@QEAA@$$QEAV0@@Z
  ??0NcRxProtocolReactorListIterator@@QEAA@AEBV0@@Z
  ??0NcRxProtocolReactorListIterator@@QEAA@XZ
  ??0NcRxProtocolReactorManager@@QEAA@$$QEAV0@@Z
  ??0NcRxProtocolReactorManager@@QEAA@AEBV0@@Z
  ??0NcRxProtocolReactorManager@@QEAA@XZ
  ??0NcRxProtocolReactorManagerFactory@@QEAA@$$QEAV0@@Z
  ??0NcRxProtocolReactorManagerFactory@@QEAA@AEBV0@@Z
  ??0NcRxProtocolReactorManagerFactory@@QEAA@XZ
  ??0NcRxService@@QEAA@$$QEAV0@@Z
  ??0NcRxService@@QEAA@AEBV0@@Z
  ??0NcRxService@@QEAA@PEAVOdRxObject@@@Z
  ??0NcRxService@@QEAA@XZ
  ??0NcString@@QEAA@AEBV0@@Z
  ??0NcString@@QEAA@AEBV?$CStringT@_WV?$StrTraitMFC_DLL@_WV?$ChTraitsCRT@_W@ATL@@@@@ATL@@@Z
  ??0NcString@@QEAA@AEBVNcDbHandle@@@Z
  ??0NcString@@QEAA@AEBVOdString@@@Z
  ??0NcString@@QEAA@D@Z
  ??0NcString@@QEAA@HI@Z
  ??0NcString@@QEAA@PEAUHINSTANCE__@@I@Z
  ??0NcString@@QEAA@PEBD@Z
  ??0NcString@@QEAA@PEBG@Z
  ??0NcString@@QEAA@PEB_W@Z
  ??0NcString@@QEAA@XZ
  ??0NcString@@QEAA@_W@Z
  ??0NcSymmetricConstraint@@QEAA@$$QEAV0@@Z
  ??0NcSymmetricConstraint@@QEAA@AEBV0@@Z
  ??0NcSymmetricConstraint@@QEAA@XZ
  ??0NcTangentConstraint@@QEAA@$$QEAV0@@Z
  ??0NcTangentConstraint@@QEAA@AEBV0@@Z
  ??0NcTangentConstraint@@QEAA@XZ
  ??0NcTransaction@@QEAA@AEBV0@@Z
  ??0NcTransaction@@QEAA@XZ
  ??0NcTransactionManager@@QEAA@$$QEAV0@@Z
  ??0NcTransactionManager@@QEAA@AEBV0@@Z
  ??0NcTransactionManager@@QEAA@PEAVOdDbDatabase@@@Z
  ??0NcTransactionReactor@@QEAA@$$QEAV0@@Z
  ??0NcTransactionReactor@@QEAA@AEBV0@@Z
  ??0NcTransactionReactor@@QEAA@XZ
  ??0NcUnderlayLayer@@QEAA@XZ
  ??0NcValue@@QEAA@AEBU_SYSTEMTIME@@@Z
  ??0NcValue@@QEAA@AEBUresbuf@@@Z
  ??0NcValue@@QEAA@AEBUtagVARIANT@@@Z
  ??0NcValue@@QEAA@AEBV0@@Z
  ??0NcValue@@QEAA@AEBVNcCmColor@@@Z
  ??0NcValue@@QEAA@AEBVNcDbEvalVariant@@@Z
  ??0NcValue@@QEAA@AEBVNcDbObjectId@@@Z
  ??0NcValue@@QEAA@AEBVNcGePoint2d@@@Z
  ??0NcValue@@QEAA@AEBVNcGePoint3d@@@Z
  ??0NcValue@@QEAA@AEB_J@Z
  ??0NcValue@@QEAA@J@Z
  ??0NcValue@@QEAA@N@Z
  ??0NcValue@@QEAA@NN@Z
  ??0NcValue@@QEAA@NNN@Z
  ??0NcValue@@QEAA@PEBXK@Z
  ??0NcValue@@QEAA@PEB_W@Z
  ??0NcValue@@QEAA@W4DataType@0@@Z
  ??0NcValue@@QEAA@XZ
  ??0NcVerticalConstraint@@QEAA@$$QEAV0@@Z
  ??0NcVerticalConstraint@@QEAA@AEBV0@@Z
  ??0NcVerticalConstraint@@QEAA@XZ
  ??0NcViewFrustum@@QEAA@XZ
  ??0NrxGateDBGlobals@@QEAA@AEBV0@@Z
  ??0NrxGateDBGlobals@@QEAA@XZ
  ??0NsdkHlrCollector@@QEAA@AEAV0@@Z
  ??0NsdkHlrCollector@@QEAA@AEAV?$NcArray@PEAVNcDbEntity@@V?$HostObjectsAllocator@PEAVNcDbEntity@@@@@@_N@Z
  ??0NsdkHlrCollector@@QEAA@AEAV?$NcArray@VNcDbObjectId@@V?$HostObjectsAllocator@VNcDbObjectId@@@@@@@Z
  ??0NsdkHlrCollector@@QEAA@XZ
  ??0NsdkHlrData@@QEAA@AEBV0@@Z
  ??0NsdkHlrData@@QEAA@XZ
  ??0NsdkHlrEngine@@QEAA@AEAVNcGePoint3d@@AEAVNcGeVector3d@@H@Z
  ??0NsdkHlrEngine@@QEAA@AEBV0@@Z
  ??0NsdkHlrEngine@@QEAA@H@Z
  ??0NsdkHlrEngine@@QEAA@PEAVNcDbViewport@@H@Z
  ??0NsdkHlrEngine@@QEAA@VNcDbObjectId@@H@Z
  ??0OPMPerInstancePropertyExtension@@QEAA@AEBV0@@Z
  ??0OPMPerInstancePropertyExtension@@QEAA@PEAVOdRxObject@@@Z
  ??0OPMPerInstancePropertyExtensionFactory@@QEAA@AEBV0@@Z
  ??0OPMPerInstancePropertyExtensionFactory@@QEAA@PEAVOdRxObject@@@Z
  ??0OPMPerInstancePropertySources@@QEAA@AEBV0@@Z
  ??0OPMPerInstancePropertySources@@QEAA@PEAVOdRxObject@@@Z
  ??0OPMPropertyExtension@@QEAA@AEBV0@@Z
  ??0OPMPropertyExtension@@QEAA@PEAVOdRxObject@@@Z
  ??0OPMPropertyExtensionFactory@@QEAA@AEBV0@@Z
  ??0OPMPropertyExtensionFactory@@QEAA@PEAVOdRxObject@@@Z
  ??0ObjectReactorsStorage@@QEAA@AEBV0@@Z
  ??0ObjectReactorsStorage@@QEAA@XZ
  ??0Offset@Ntil@@QEAA@HH@Z
  ??0Offset@Ntil@@QEAA@XZ
  ??0PixelSelectorInterface@Ntil@@QEAA@AEBV01@@Z
  ??0PixelSelectorInterface@Ntil@@QEAA@XZ
  ??0PngCompression@Ntil@@QEAA@AEBV01@@Z
  ??0PngCompression@Ntil@@QEAA@W4Compression@PngCompressionType@1@@Z
  ??0PngCompressionType@Ntil@@QEAA@AEBV01@@Z
  ??0PngCompressionType@Ntil@@QEAA@W4Compression@01@@Z
  ??0PngCustomProperty@Ntil@@QEAA@AEBV01@@Z
  ??0PngCustomProperty@Ntil@@QEAA@XZ
  ??0PngFormatCodec@Ntil@@QEAA@AEBV01@@Z
  ??0PngFormatCodec@Ntil@@QEAA@XZ
  ??0PngGamma@Ntil@@QEAA@AEBV01@@Z
  ??0PngGamma@Ntil@@QEAA@PEAUpng_struct_def@1@PEAUpng_info_struct@1@@Z
  ??0PngGamma@Ntil@@QEAA@XZ
  ??0PngGraySignificantBits@Ntil@@QEAA@AEBV01@@Z
  ??0PngGraySignificantBits@Ntil@@QEAA@PEAUpng_struct_def@1@PEAUpng_info_struct@1@@Z
  ??0PngGraySignificantBits@Ntil@@QEAA@XZ
  ??0PngHistogram@Ntil@@QEAA@AEBV01@@Z
  ??0PngHistogram@Ntil@@QEAA@PEAUpng_struct_def@1@PEAUpng_info_struct@1@@Z
  ??0PngHistogram@Ntil@@QEAA@XZ
  ??0PngInterlacing@Ntil@@QEAA@AEBV01@@Z
  ??0PngInterlacing@Ntil@@QEAA@PEAUpng_struct_def@1@PEAUpng_info_struct@1@@Z
  ??0PngInterlacing@Ntil@@QEAA@XZ
  ??0PngPageOffset@Ntil@@QEAA@AEBV01@@Z
  ??0PngPageOffset@Ntil@@QEAA@PEAUpng_struct_def@1@PEAUpng_info_struct@1@@Z
  ??0PngPageOffset@Ntil@@QEAA@XZ
  ??0PngSRGB@Ntil@@QEAA@AEBV01@@Z
  ??0PngSRGB@Ntil@@QEAA@PEAUpng_struct_def@1@PEAUpng_info_struct@1@@Z
  ??0PngSRGB@Ntil@@QEAA@XZ
  ??0PngScale@Ntil@@QEAA@AEBV01@@Z
  ??0PngScale@Ntil@@QEAA@PEAUpng_struct_def@1@PEAUpng_info_struct@1@@Z
  ??0PngScale@Ntil@@QEAA@XZ
  ??0PngText@Ntil@@QEAA@AEBV01@@Z
  ??0PngText@Ntil@@QEAA@AEBVStringBuffer@1@HW4Keyword@01@@Z
  ??0Point2d@Ntil@@QEAA@HH@Z
  ??0Point2d@Ntil@@QEAA@NN@Z
  ??0Point2d@Ntil@@QEAA@XZ
  ??0RgbColor10@Ntil@@QEAA@GGG@Z
  ??0RgbColor10@Ntil@@QEAA@GGGG@Z
  ??0RgbColor10@Ntil@@QEAA@I@Z
  ??0RgbColor10@Ntil@@QEAA@XZ
  ??0RgbColor16f@Ntil@@QEAA@Vhalf@1@000@Z
  ??0RgbColor16f@Ntil@@QEAA@Vhalf@1@00@Z
  ??0RgbColor16f@Ntil@@QEAA@XZ
  ??0RgbColor16f@Ntil@@QEAA@_K@Z
  ??0RgbColor16i@Ntil@@QEAA@GGG@Z
  ??0RgbColor16i@Ntil@@QEAA@GGGG@Z
  ??0RgbColor16i@Ntil@@QEAA@XZ
  ??0RgbColor16i@Ntil@@QEAA@_K@Z
  ??0RgbColor32f@Ntil@@QEAA@MMM@Z
  ??0RgbColor32f@Ntil@@QEAA@MMMM@Z
  ??0RgbColor32f@Ntil@@QEAA@U_NTIL_DATA128@1@@Z
  ??0RgbColor32f@Ntil@@QEAA@XZ
  ??0RgbColor5b@Ntil@@QEAA@EEE@Z
  ??0RgbColor5b@Ntil@@QEAA@EEEEW4BitFields@DataModelAttributes@1@@Z
  ??0RgbColor5b@Ntil@@QEAA@G@Z
  ??0RgbColor5b@Ntil@@QEAA@XZ
  ??0RgbColor@Ntil@@QEAA@EEE@Z
  ??0RgbColor@Ntil@@QEAA@EEEE@Z
  ??0RgbColor@Ntil@@QEAA@I@Z
  ??0RgbColor@Ntil@@QEAA@XZ
  ??0RgbGrayModel@Ntil@@QEAA@AEBV01@@Z
  ??0RgbGrayModel@Ntil@@QEAA@W4DataModelType@DataModelAttributes@1@W4BitsPerPixel@31@@Z
  ??0RgbGrayModel@Ntil@@QEAA@XZ
  ??0RgbModel@Ntil@@IEAA@W4DataModelType@DataModelAttributes@1@W4BitsPerPixel@31@@Z
  ??0RgbModel@Ntil@@IEAA@W4DataModelType@DataModelAttributes@1@W4BitsPerPixel@31@H@Z
  ??0RgbModel@Ntil@@QEAA@AEBV01@@Z
  ??0RgbModel@Ntil@@QEAA@H@Z
  ??0RgbModel@Ntil@@QEAA@W4Channels@RgbModelAttributes@1@W4ChannelOrder@DataModelAttributes@1@@Z
  ??0RgbModel@Ntil@@QEAA@XZ
  ??0RgbPaletteModel@Ntil@@IEAA@W4DataModelType@DataModelAttributes@1@W4BitsPerPixel@31@H@Z
  ??0RgbPaletteModel@Ntil@@QEAA@AEBV01@@Z
  ??0RgbPaletteModel@Ntil@@QEAA@H@Z
  ??0RgbPaletteModel@Ntil@@QEAA@HHPEBURgbColor@1@@Z
  ??0RgbPaletteModel@Ntil@@QEAA@HPEBURgbColor@1@@Z
  ??0RgbPaletteModelException@Ntil@@QEAA@AEBV01@@Z
  ??0RgbPaletteModelException@Ntil@@QEAA@AEBVStringBuffer@1@W4ExceptionType@01@@Z
  ??0RowProviderInterface@Ntil@@QEAA@AEBV01@@Z
  ??0RowProviderInterface@Ntil@@QEAA@XZ
  ??0RxClassStorage@@IEAA@XZ
  ??0RxClassStorage@@QEAA@AEBV0@@Z
  ??0SeekableDataStreamInterface@Ntil@@QEAA@AEBV01@@Z
  ??0SeekableDataStreamInterface@Ntil@@QEAA@XZ
  ??0Size@Ntil@@QEAA@AEBV01@@Z
  ??0Size@Ntil@@QEAA@HH@Z
  ??0Size@Ntil@@QEAA@XZ
  ??0SpanProviderInterface@Ntil@@QEAA@AEBV01@@Z
  ??0SpanProviderInterface@Ntil@@QEAA@XZ
  ??0StringBuffer@Ntil@@QEAA@AEBV01@@Z
  ??0StringBuffer@Ntil@@QEAA@HPEBEW4CharacterType@01@@Z
  ??0StringBuffer@Ntil@@QEAA@HW4CharacterType@01@@Z
  ??0StringBuffer@Ntil@@QEAA@XZ
  ??0TiffCompression@Ntil@@QEAA@AEBV01@@Z
  ??0TiffCompression@Ntil@@QEAA@HGGW4Compression@TiffCompressionType@1@_N1@Z
  ??0TiffCompressionType@Ntil@@QEAA@AEBV01@@Z
  ??0TiffCompressionType@Ntil@@QEAA@W4Compression@01@@Z
  ??0TiffFillOrder@Ntil@@QEAA@AEBV01@@Z
  ??0TiffFillOrder@Ntil@@QEAA@W4Order@01@@Z
  ??0TiffFormatCodec@Ntil@@QEAA@AEBV01@@Z
  ??0TiffFormatCodec@Ntil@@QEAA@H@Z
  ??0TiffGrayResponseCurve@Ntil@@QEAA@AEBV01@@Z
  ??0TiffGrayResponseCurve@Ntil@@QEAA@XZ
  ??0TiffPageInformation@Ntil@@QEAA@AEBV01@@Z
  ??0TiffPageInformation@Ntil@@QEAA@PEAVStringBuffer@1@0HHPEAN1@Z
  ??0TiffPhotometricInterpretation@Ntil@@QEAA@AEBV01@@Z
  ??0TiffPhotometricInterpretation@Ntil@@QEAA@W4Interpretation@01@@Z
  ??0TiffPrivateTag@Ntil@@QEAA@AEBV01@@Z
  ??0TiffPrivateTag@Ntil@@QEAA@GW4TiffDataType@01@@Z
  ??0TiffProperty@Ntil@@QEAA@AEBV01@@Z
  ??0TiffProperty@Ntil@@QEAA@XZ
  ??0TiffSampleRange@Ntil@@QEAA@AEBV01@@Z
  ??0TiffSampleRange@Ntil@@QEAA@XZ
  ??0TiffText@Ntil@@QEAA@AEBV01@@Z
  ??0TiffText@Ntil@@QEAA@W4TiffId@TiffFormatCodec@1@@Z
  ??0TiffText@Ntil@@QEAA@W4TiffId@TiffFormatCodec@1@PEAVStringBuffer@1@@Z
  ??0Vector2d@Ntil@@QEAA@AEBV01@@Z
  ??0Vector2d@Ntil@@QEAA@NN@Z
  ??0Vector2d@Ntil@@QEAA@XZ
  ??0VectorUL@Ntil@@QEAA@AEBV01@@Z
  ??0VectorUL@Ntil@@QEAA@AEBVVector2d@1@@Z
  ??0VectorUL@Ntil@@QEAA@NN@Z
  ??0VectorUL@Ntil@@QEAA@XZ
  ??0half@Ntil@@QEAA@M@Z
  ??0half@Ntil@@QEAA@XZ
  ??0pair@@QEAA@$$QEAU0@@Z
  ??0pair@@QEAA@AEAPEBVNcBrEntity@@AEBVNcBrMesh2dControl@@@Z
  ??0pair@@QEAA@AEBU0@@Z
  ??0pair@@QEAA@XZ
  ??0resbuf@@QEAA@XZ
  ??1?$CCSUnknownImpl@UIHostIntegratorExEngine@@@@UEAA@XZ
  ??1?$HostArray@HV?$HostMemoryAllocator@H@@@@QEAA@XZ
  ??1?$HostArray@NV?$HostMemoryAllocator@N@@@@QEAA@XZ
  ??1?$HostArray@PEAUHINSTANCE__@@V?$HostObjectsAllocator@PEAUHINSTANCE__@@@@@@QEAA@XZ
  ??1?$HostArray@PEAVNcDb2dVertex@@V?$HostObjectsAllocator@PEAVNcDb2dVertex@@@@@@QEAA@XZ
  ??1?$HostArray@PEAVNcDb3dPolylineVertex@@V?$HostObjectsAllocator@PEAVNcDb3dPolylineVertex@@@@@@QEAA@XZ
  ??1?$HostArray@PEAVNcDbDimData@@V?$HostMemoryAllocator@PEAVNcDbDimData@@@@@@QEAA@XZ
  ??1?$HostArray@PEAVNcDbEntity@@V?$HostObjectsAllocator@PEAVNcDbEntity@@@@@@QEAA@XZ
  ??1?$HostArray@PEAVNcDbGripData@@V?$HostMemoryAllocator@PEAVNcDbGripData@@@@@@QEAA@XZ
  ??1?$HostArray@PEAVNcDbNurbSurface@@V?$HostObjectsAllocator@PEAVNcDbNurbSurface@@@@@@QEAA@XZ
  ??1?$HostArray@PEAVNcDbPolygonMeshVertex@@V?$HostObjectsAllocator@PEAVNcDbPolygonMeshVertex@@@@@@QEAA@XZ
  ??1?$HostArray@PEAVNcDbVertex@@V?$HostObjectsAllocator@PEAVNcDbVertex@@@@@@QEAA@XZ
  ??1?$HostArray@PEAVNcLyLayerFilter@@V?$HostObjectsAllocator@PEAVNcLyLayerFilter@@@@@@QEAA@XZ
  ??1?$HostArray@PEAVNcTransaction@@V?$HostObjectsAllocator@PEAVNcTransaction@@@@@@QEAA@XZ
  ??1?$HostArray@PEAVNsdkHlrData@@V?$HostObjectsAllocator@PEAVNsdkHlrData@@@@@@QEAA@XZ
  ??1?$HostArray@PEAVOdDbEntity@@V?$HostObjectsAllocator@PEAVOdDbEntity@@@@@@QEAA@XZ
  ??1?$HostArray@PEAXV?$HostMemoryAllocator@PEAX@@@@QEAA@XZ
  ??1?$HostArray@VMcGeVector2d@@V?$HostMemoryAllocator@VMcGeVector2d@@@@@@QEAA@XZ
  ??1?$HostArray@VNcDbEvalVariant@@V?$HostMemoryAllocator@VNcDbEvalVariant@@@@@@QEAA@XZ
  ??1?$HostArray@VNcDbFullSubentPath@@V?$HostObjectsAllocator@VNcDbFullSubentPath@@@@@@QEAA@XZ
  ??1?$HostArray@VNcDbObjectId@@V?$HostObjectsAllocator@VNcDbObjectId@@@@@@QEAA@XZ
  ??1?$HostArray@VNcGePoint2d@@V?$HostMemoryAllocator@VNcGePoint2d@@@@@@QEAA@XZ
  ??1?$HostArray@VNcGePoint3d@@V?$HostMemoryAllocator@VNcGePoint3d@@@@@@QEAA@XZ
  ??1?$HostArray@VNcGeVector3d@@V?$HostMemoryAllocator@VNcGeVector3d@@@@@@QEAA@XZ
  ??1?$HostArray@_JV?$HostMemoryAllocator@_J@@@@QEAA@XZ
  ??1?$NcArray@HV?$HostMemoryAllocator@H@@@@QEAA@XZ
  ??1?$NcArray@NV?$HostMemoryAllocator@N@@@@QEAA@XZ
  ??1?$NcArray@PEAUHINSTANCE__@@V?$HostObjectsAllocator@PEAUHINSTANCE__@@@@@@QEAA@XZ
  ??1?$NcArray@PEAVNcDb2dVertex@@V?$HostObjectsAllocator@PEAVNcDb2dVertex@@@@@@QEAA@XZ
  ??1?$NcArray@PEAVNcDb3dPolylineVertex@@V?$HostObjectsAllocator@PEAVNcDb3dPolylineVertex@@@@@@QEAA@XZ
  ??1?$NcArray@PEAVNcDbDimData@@V?$HostMemoryAllocator@PEAVNcDbDimData@@@@@@QEAA@XZ
  ??1?$NcArray@PEAVNcDbEntity@@V?$HostObjectsAllocator@PEAVNcDbEntity@@@@@@QEAA@XZ
  ??1?$NcArray@PEAVNcDbGripData@@V?$HostMemoryAllocator@PEAVNcDbGripData@@@@@@QEAA@XZ
  ??1?$NcArray@PEAVNcDbNurbSurface@@V?$HostObjectsAllocator@PEAVNcDbNurbSurface@@@@@@QEAA@XZ
  ??1?$NcArray@PEAVNcDbPolygonMeshVertex@@V?$HostObjectsAllocator@PEAVNcDbPolygonMeshVertex@@@@@@QEAA@XZ
  ??1?$NcArray@PEAVNcDbVertex@@V?$HostObjectsAllocator@PEAVNcDbVertex@@@@@@QEAA@XZ
  ??1?$NcArray@PEAVNcLyLayerFilter@@V?$HostObjectsAllocator@PEAVNcLyLayerFilter@@@@@@QEAA@XZ
  ??1?$NcArray@PEAVNcTransaction@@V?$HostObjectsAllocator@PEAVNcTransaction@@@@@@QEAA@XZ
  ??1?$NcArray@PEAVNsdkHlrData@@V?$HostObjectsAllocator@PEAVNsdkHlrData@@@@@@QEAA@XZ
  ??1?$NcArray@PEAVOdDbEntity@@V?$HostObjectsAllocator@PEAVOdDbEntity@@@@@@QEAA@XZ
  ??1?$NcArray@PEAXV?$HostMemoryAllocator@PEAX@@@@QEAA@XZ
  ??1?$NcArray@VMcGeVector2d@@V?$HostMemoryAllocator@VMcGeVector2d@@@@@@QEAA@XZ
  ??1?$NcArray@VNcDbEvalVariant@@V?$HostMemoryAllocator@VNcDbEvalVariant@@@@@@QEAA@XZ
  ??1?$NcArray@VNcDbFullSubentPath@@V?$HostObjectsAllocator@VNcDbFullSubentPath@@@@@@QEAA@XZ
  ??1?$NcArray@VNcDbObjectId@@V?$HostObjectsAllocator@VNcDbObjectId@@@@@@QEAA@XZ
  ??1?$NcArray@VNcGePoint2d@@V?$HostMemoryAllocator@VNcGePoint2d@@@@@@QEAA@XZ
  ??1?$NcArray@VNcGePoint3d@@V?$HostMemoryAllocator@VNcGePoint3d@@@@@@QEAA@XZ
  ??1?$NcArray@VNcGeVector3d@@V?$HostMemoryAllocator@VNcGeVector3d@@@@@@QEAA@XZ
  ??1?$NcArray@_JV?$HostMemoryAllocator@_J@@@@QEAA@XZ
  ??1?$NcGiCommonDrawHostImpl@VNcGiViewportDrawNrx@@@@UEAA@XZ
  ??1?$NcGiCommonDrawHostImpl@VNcGiWorldDraw@@@@UEAA@XZ
  ??1BitonalModel@Ntil@@UEAA@XZ
  ??1BmpFormatCodec@Ntil@@UEAA@XZ
  ??1BoundingBox@Ntil@@QEAA@XZ
  ??1CNcModuleResourceOverride@@QEAA@XZ
  ??1CNsiApproxNum@@UEAA@XZ
  ??1CNsiBinary@@UEAA@XZ
  ??1CNsiBlob@@UEAA@XZ
  ??1CNsiChar@@UEAA@XZ
  ??1CNsiColumn@@UEAA@XZ
  ??1CNsiDT@@UEAA@XZ
  ??1CNsiData@@UEAA@XZ
  ??1CNsiDate@@UEAA@XZ
  ??1CNsiDatetime@@UEAA@XZ
  ??1CNsiDecimal@@UEAA@XZ
  ??1CNsiDouble@@UEAA@XZ
  ??1CNsiExactNum@@UEAA@XZ
  ??1CNsiFloat@@UEAA@XZ
  ??1CNsiHostBuffer@@UEAA@XZ
  ??1CNsiIQualifier@@UEAA@XZ
  ??1CNsiIRow@@UEAA@XZ
  ??1CNsiIdent@@UEAA@XZ
  ??1CNsiInt@@UEAA@XZ
  ??1CNsiInterval@@UEAA@XZ
  ??1CNsiList@@UEAA@XZ
  ??1CNsiNum@@UEAA@XZ
  ??1CNsiNumeric@@UEAA@XZ
  ??1CNsiObject@@UEAA@XZ
  ??1CNsiParameter@@UEAA@XZ
  ??1CNsiReal@@UEAA@XZ
  ??1CNsiRow@@UEAA@XZ
  ??1CNsiSmallInt@@UEAA@XZ
  ??1CNsiTime@@UEAA@XZ
  ??1CNsiTimeStamp@@UEAA@XZ
  ??1CNsiUcStr@@QEAA@XZ
  ??1CNsiYM@@UEAA@XZ
  ??1ColorModelInterface@Ntil@@UEAA@XZ
  ??1DataBuffer@Ntil@@UEAA@XZ
  ??1DataModel@Ntil@@UEAA@XZ
  ??1DataModelAttributes@Ntil@@MEAA@XZ
  ??1DataStreamInterface@Ntil@@UEAA@XZ
  ??1DatabaseStorage@@QEAA@XZ
  ??1DocumentStorage@@QEAA@XZ
  ??1FileReadDescriptor@Ntil@@QEAA@XZ
  ??1FileReadDescriptorRep@Ntil@@UEAA@XZ
  ??1FileSpecifier@Ntil@@UEAA@XZ
  ??1FileWriteDescriptor@Ntil@@UEAA@XZ
  ??1FileWriteDescriptorRep@Ntil@@UEAA@XZ
  ??1FormatCodecAssociation@Ntil@@UEAA@XZ
  ??1FormatCodecBooleanProperty@Ntil@@UEAA@XZ
  ??1FormatCodecColorProperty@Ntil@@UEAA@XZ
  ??1FormatCodecDensity@Ntil@@UEAA@XZ
  ??1FormatCodecDoubleProperty@Ntil@@UEAA@XZ
  ??1FormatCodecExclusivePropertySetInterface@Ntil@@UEAA@XZ
  ??1FormatCodecInclusivePropertySetInterface@Ntil@@UEAA@XZ
  ??1FormatCodecIntProperty@Ntil@@UEAA@XZ
  ??1FormatCodecPropertyInterface@Ntil@@UEAA@XZ
  ??1FormatCodecPropertySetIterator@Ntil@@UEAA@XZ
  ??1FormatCodecStringProperty@Ntil@@UEAA@XZ
  ??1FormatCodecTransparency@Ntil@@UEAA@XZ
  ??1INativeExtension@@UEAA@XZ
  ??1INcPcDataBuffer@@UEAA@XZ
  ??1IWrapperQuery@@UEAA@XZ
  ??1Image@Ntil@@QEAA@XZ
  ??1ImageConstructionException@Ntil@@UEAA@XZ
  ??1ImageContext@Ntil@@QEAA@XZ
  ??1ImageContextException@Ntil@@UEAA@XZ
  ??1ImageContextRep@Ntil@@UEAA@XZ
  ??1ImageException@Ntil@@UEAA@XZ
  ??1ImageFilter@Ntil@@MEAA@XZ
  ??1ImageFilterException@Ntil@@UEAA@XZ
  ??1ImageFormatCodec@Ntil@@UEAA@XZ
  ??1ImageFormatCodecStreamingInterface@Ntil@@UEAA@XZ
  ??1ImageReactorInterface@Ntil@@UEAA@XZ
  ??1ImageRep@Ntil@@UEAA@XZ
  ??1ImageView@Ntil@@QEAA@XZ
  ??1JfifFormatCodec@Ntil@@UEAA@XZ
  ??1LoadModuleMonitor@@QEAA@XZ
  ??1NTILException@Ntil@@UEAA@XZ
  ??1Nc3PointAngleConstraint@@UEAA@XZ
  ??1NcAngleConstraint@@UEAA@XZ
  ??1NcApDocManager@@UEAA@XZ
  ??1NcApDocManagerReactor@@UEAA@XZ
  ??1NcApDocument@@UEAA@XZ
  ??1NcApDocumentIterator@@UEAA@XZ
  ??1NcApLayoutManager@@UEAA@XZ
  ??1NcApLongTransactionManager@@UEAA@XZ
  ??1NcApLongTransactionReactor@@UEAA@XZ
  ??1NcAutoConstrainEvaluationCallback@@QEAA@XZ
  ??1NcAxDocLock@@QEAA@XZ
  ??1NcAxObjectRef@@QEAA@XZ
  ??1NcAxPoint2dArray@@QEAA@XZ
  ??1NcAxPoint3dArray@@QEAA@XZ
  ??1NcBrBrep@@UEAA@XZ
  ??1NcBrBrepComplexTraverser@@UEAA@XZ
  ??1NcBrBrepEdgeTraverser@@UEAA@XZ
  ??1NcBrBrepFaceTraverser@@UEAA@XZ
  ??1NcBrBrepShellTraverser@@UEAA@XZ
  ??1NcBrBrepVertexTraverser@@UEAA@XZ
  ??1NcBrComplex@@UEAA@XZ
  ??1NcBrComplexShellTraverser@@UEAA@XZ
  ??1NcBrEdge@@UEAA@XZ
  ??1NcBrEdgeLoopTraverser@@UEAA@XZ
  ??1NcBrElement2d@@UEAA@XZ
  ??1NcBrElement2dNodeTraverser@@UEAA@XZ
  ??1NcBrElement@@UEAA@XZ
  ??1NcBrEntity@@UEAA@XZ
  ??1NcBrFace@@UEAA@XZ
  ??1NcBrFaceLoopTraverser@@UEAA@XZ
  ??1NcBrHit@@UEAA@XZ
  ??1NcBrLoop@@UEAA@XZ
  ??1NcBrLoopEdgeTraverser@@UEAA@XZ
  ??1NcBrLoopVertexTraverser@@UEAA@XZ
  ??1NcBrMesh2d@@UEAA@XZ
  ??1NcBrMesh2dControl@@UEAA@XZ
  ??1NcBrMesh2dElement2dTraverser@@UEAA@XZ
  ??1NcBrMesh2dFilter@@QEAA@XZ
  ??1NcBrMesh@@UEAA@XZ
  ??1NcBrMeshControl@@UEAA@XZ
  ??1NcBrMeshEntity@@UEAA@XZ
  ??1NcBrNode@@UEAA@XZ
  ??1NcBrShell@@UEAA@XZ
  ??1NcBrShellFaceTraverser@@UEAA@XZ
  ??1NcBrTraverser@@UEAA@XZ
  ??1NcBrVertex@@UEAA@XZ
  ??1NcBrVertexEdgeTraverser@@UEAA@XZ
  ??1NcBrVertexLoopTraverser@@UEAA@XZ
  ??1NcCenterPointConstraint@@UEAA@XZ
  ??1NcCmColor@@UEAA@XZ
  ??1NcCmColorBase@@UEAA@XZ
  ??1NcCmComplexColor@@UEAA@XZ
  ??1NcCmEntityColor@@QEAA@XZ
  ??1NcColinearConstraint@@UEAA@XZ
  ??1NcCompositeConstraint@@UEAA@XZ
  ??1NcConcentricConstraint@@UEAA@XZ
  ??1NcConstrained2PointsConstructionLine@@UEAA@XZ
  ??1NcConstrainedArc@@UEAA@XZ
  ??1NcConstrainedBoundedEllipse@@UEAA@XZ
  ??1NcConstrainedBoundedLine@@UEAA@XZ
  ??1NcConstrainedCircle@@UEAA@XZ
  ??1NcConstrainedConstructionLine@@UEAA@XZ
  ??1NcConstrainedCurve@@UEAA@XZ
  ??1NcConstrainedDatumLine@@UEAA@XZ
  ??1NcConstrainedEllipse@@UEAA@XZ
  ??1NcConstrainedGeometry@@UEAA@XZ
  ??1NcConstrainedImplicitPoint@@UEAA@XZ
  ??1NcConstrainedLine@@UEAA@XZ
  ??1NcConstrainedPoint@@UEAA@XZ
  ??1NcConstrainedRigidSet@@UEAA@XZ
  ??1NcConstrainedSpline@@UEAA@XZ
  ??1NcConstraintGroupNode@@UEAA@XZ
  ??1NcDb2LineAngularDimension@@UEAA@XZ
  ??1NcDb2dPolyline@@UEAA@XZ
  ??1NcDb2dVertex@@UEAA@XZ
  ??1NcDb3PointAngularDimension@@UEAA@XZ
  ??1NcDb3dPolyline@@UEAA@XZ
  ??1NcDb3dPolylineVertex@@UEAA@XZ
  ??1NcDb3dProfile@@UEAA@XZ
  ??1NcDb3dSolid@@UEAA@XZ
  ??1NcDbAbstractViewTable@@UEAA@XZ
  ??1NcDbAbstractViewTableIterator@@UEAA@XZ
  ??1NcDbAbstractViewTableRecord@@UEAA@XZ
  ??1NcDbActionsToEvaluateCallback@@UEAA@XZ
  ??1NcDbAlignedDimension@@UEAA@XZ
  ??1NcDbAlignment@@UEAA@XZ
  ??1NcDbAnnotationScale@@UEAA@XZ
  ??1NcDbAnnotationScaleReactor@@UEAA@XZ
  ??1NcDbAnnotativeObjectPE@@UEAA@XZ
  ??1NcDbAppEntityGrips@@UEAA@XZ
  ??1NcDbAppSystemVariables@@QEAA@XZ
  ??1NcDbArc@@UEAA@XZ
  ??1NcDbArcDimension@@UEAA@XZ
  ??1NcDbAssoc2dConstraintGroup@@UEAA@XZ
  ??1NcDbAssocAction@@UEAA@XZ
  ??1NcDbAssocActionBody@@UEAA@XZ
  ??1NcDbAssocActionParam@@UEAA@XZ
  ??1NcDbAssocAsmBodyActionParam@@UEAA@XZ
  ??1NcDbAssocBlendSurfaceActionBody@@UEAA@XZ
  ??1NcDbAssocCompoundActionParam@@UEAA@XZ
  ??1NcDbAssocDependency@@UEAA@XZ
  ??1NcDbAssocDependencyBody@@UEAA@XZ
  ??1NcDbAssocDependencyNotificationDisabler@@QEAA@XZ
  ??1NcDbAssocDependencyPE@@UEAA@XZ
  ??1NcDbAssocDimDependencyBody@@UEAA@XZ
  ??1NcDbAssocDimDependencyBodyBase@@UEAA@XZ
  ??1NcDbAssocEdgeActionParam@@UEAA@XZ
  ??1NcDbAssocEdgeChamferActionBody@@UEAA@XZ
  ??1NcDbAssocEdgeFilletActionBody@@UEAA@XZ
  ??1NcDbAssocEdgePersSubentId@@UEAA@XZ
  ??1NcDbAssocEvaluationCallback@@UEAA@XZ
  ??1NcDbAssocExtendSurfaceActionBody@@UEAA@XZ
  ??1NcDbAssocExtrudedSurfaceActionBody@@UEAA@XZ
  ??1NcDbAssocFaceActionParam@@UEAA@XZ
  ??1NcDbAssocGeomDependency@@UEAA@XZ
  ??1NcDbAssocLoftedSurfaceActionBody@@UEAA@XZ
  ??1NcDbAssocManager@@UEAA@XZ
  ??1NcDbAssocNetwork@@UEAA@XZ
  ??1NcDbAssocNetworkEvaluationDisabler@@QEAA@XZ
  ??1NcDbAssocNetworkSurfaceActionBody@@UEAA@XZ
  ??1NcDbAssocOffsetSurfaceActionBody@@UEAA@XZ
  ??1NcDbAssocParamBasedActionBody@@UEAA@XZ
  ??1NcDbAssocPatchSurfaceActionBody@@UEAA@XZ
  ??1NcDbAssocPathActionParam@@UEAA@XZ
  ??1NcDbAssocPathBasedSurfaceActionBody@@UEAA@XZ
  ??1NcDbAssocPersSubentId@@UEAA@XZ
  ??1NcDbAssocPersSubentIdPE@@UEAA@XZ
  ??1NcDbAssocPlaneSurfaceActionBody@@UEAA@XZ
  ??1NcDbAssocRevolvedSurfaceActionBody@@UEAA@XZ
  ??1NcDbAssocSimplePersSubentId@@UEAA@XZ
  ??1NcDbAssocSingleEdgePersSubentId@@UEAA@XZ
  ??1NcDbAssocSurfaceActionBody@@UEAA@XZ
  ??1NcDbAssocSweptSurfaceActionBody@@UEAA@XZ
  ??1NcDbAssocTrimSurfaceActionBody@@UEAA@XZ
  ??1NcDbAssocValueDependency@@UEAA@XZ
  ??1NcDbAssocValueProviderPE@@UEAA@XZ
  ??1NcDbAssocVariable@@UEAA@XZ
  ??1NcDbAssocVertexActionParam@@UEAA@XZ
  ??1NcDbAttribute@@UEAA@XZ
  ??1NcDbAttributeDefinition@@UEAA@XZ
  ??1NcDbAuditInfo@@QEAA@XZ
  ??1NcDbAuditRecreatePE@@UEAA@XZ
  ??1NcDbBackground@@UEAA@XZ
  ??1NcDbBlendOptions@@QEAA@XZ
  ??1NcDbBlockBegin@@UEAA@XZ
  ??1NcDbBlockChangeIterator@@AEAA@XZ
  ??1NcDbBlockEnd@@UEAA@XZ
  ??1NcDbBlockInsertionPoints@@UEAA@XZ
  ??1NcDbBlockReference@@UEAA@XZ
  ??1NcDbBlockReferenceIdIterator@@QEAA@XZ
  ??1NcDbBlockTable@@UEAA@XZ
  ??1NcDbBlockTableIterator@@UEAA@XZ
  ??1NcDbBlockTableRecord@@UEAA@XZ
  ??1NcDbBlockTableRecordIterator@@UEAA@XZ
  ??1NcDbBody@@UEAA@XZ
  ??1NcDbBreakData@@UEAA@XZ
  ??1NcDbBreakPointRef@@UEAA@XZ
  ??1NcDbCamera@@UEAA@XZ
  ??1NcDbCircle@@UEAA@XZ
  ??1NcDbClassIterator@@MEAA@XZ
  ??1NcDbColor@@UEAA@XZ
  ??1NcDbCompositeFilteredBlockIterator@@UEAA@XZ
  ??1NcDbCompoundObjectId@@UEAA@XZ
  ??1NcDbCurve@@UEAA@XZ
  ??1NcDbCurvePath@@UEAA@XZ
  ??1NcDbCustomOsnapInfo@@UEAA@XZ
  ??1NcDbCustomOsnapMode2@@UEAA@XZ
  ??1NcDbCustomOsnapMode@@UEAA@XZ
  ??1NcDbDataCell@@UEAA@XZ
  ??1NcDbDataColumn@@UEAA@XZ
  ??1NcDbDataLink@@UEAA@XZ
  ??1NcDbDataLinkManager@@UEAA@XZ
  ??1NcDbDataTable@@UEAA@XZ
  ??1NcDbDatabase@@UEAA@XZ
  ??1NcDbDatabaseReactor@@UEAA@XZ
  ??1NcDbDatabaseSummaryInfo@@UEAA@XZ
  ??1NcDbDate@@QEAA@XZ
  ??1NcDbDeepCloneFiler@@UEAA@XZ
  ??1NcDbDgnDefinition@@UEAA@XZ
  ??1NcDbDgnRefFileData@@QEAA@XZ
  ??1NcDbDgnRefFileRepath@@QEAA@XZ
  ??1NcDbDgnReference@@UEAA@XZ
  ??1NcDbDgnUnderlayItem@@UEAA@XZ
  ??1NcDbDiametricDimension@@UEAA@XZ
  ??1NcDbDictionary@@UEAA@XZ
  ??1NcDbDictionaryIterator@@UEAA@XZ
  ??1NcDbDictionaryWithDefault@@UEAA@XZ
  ??1NcDbDimAssoc@@UEAA@XZ
  ??1NcDbDimData@@QEAA@XZ
  ??1NcDbDimStyleTable@@UEAA@XZ
  ??1NcDbDimStyleTableIterator@@UEAA@XZ
  ??1NcDbDimStyleTableRecord@@UEAA@XZ
  ??1NcDbDimension@@UEAA@XZ
  ??1NcDbDimensionStyleOverrule@@UEAA@XZ
  ??1NcDbDisableAnnoAutoScale@@QEAA@XZ
  ??1NcDbDoubleClickEdit@@UEAA@XZ
  ??1NcDbDwfDefinition@@UEAA@XZ
  ??1NcDbDwfReference@@UEAA@XZ
  ??1NcDbDwgFiler@@UEAA@XZ
  ??1NcDbDxfFiler@@UEAA@XZ
  ??1NcDbDynBlockReference@@UEAA@XZ
  ??1NcDbDynBlockReferenceProperty@@UEAA@XZ
  ??1NcDbDynBlockTableRecord@@UEAA@XZ
  ??1NcDbDynamicUCSPE@@UEAA@XZ
  ??1NcDbEdgeRef@@UEAA@XZ
  ??1NcDbEllipse@@UEAA@XZ
  ??1NcDbEntity@@UEAA@XZ
  ??1NcDbEntityHyperlinkPE@@UEAA@XZ
  ??1NcDbEntityReactor@@UEAA@XZ
  ??1NcDbEvalConnectable@@UEAA@XZ
  ??1NcDbEvalContext@@UEAA@XZ
  ??1NcDbEvalContextIterator@@UEAA@XZ
  ??1NcDbEvalContextPair@@UEAA@XZ
  ??1NcDbEvalExpr@@UEAA@XZ
  ??1NcDbEvalGraph@@UEAA@XZ
  ??1NcDbEvalVariant@@UEAA@XZ
  ??1NcDbExtents@@UEAA@XZ
  ??1NcDbExtrudedSurface@@UEAA@XZ
  ??1NcDbFace@@UEAA@XZ
  ??1NcDbFaceRecord@@UEAA@XZ
  ??1NcDbFaceRef@@UEAA@XZ
  ??1NcDbFcf@@UEAA@XZ
  ??1NcDbField@@UEAA@XZ
  ??1NcDbFilter@@UEAA@XZ
  ??1NcDbFilteredBlockIterator@@UEAA@XZ
  ??1NcDbFormattedTableData@@UEAA@XZ
  ??1NcDbFrame@@UEAA@XZ
  ??1NcDbFullSubentPath@@QEAA@XZ
  ??1NcDbGeoData@@UEAA@XZ
  ??1NcDbGeomRef@@UEAA@XZ
  ??1NcDbGeometryOverrule@@UEAA@XZ
  ??1NcDbGradientBackground@@UEAA@XZ
  ??1NcDbGraph@@UEAA@XZ
  ??1NcDbGraphNode@@UEAA@XZ
  ??1NcDbGraphStack@@QEAA@XZ
  ??1NcDbGripData@@QEAA@XZ
  ??1NcDbGripOverrule@@UEAA@XZ
  ??1NcDbGroundPlaneBackground@@UEAA@XZ
  ??1NcDbGroup@@UEAA@XZ
  ??1NcDbGroupIterator@@UEAA@XZ
  ??1NcDbHatch@@UEAA@XZ
  ??1NcDbHelix@@UEAA@XZ
  ??1NcDbHighlightOverrule@@UEAA@XZ
  ??1NcDbHighlightStateOverrule@@UEAA@XZ
  ??1NcDbHomeView@@UEAA@XZ
  ??1NcDbHostApplicationProgressMeter@@UEAA@XZ
  ??1NcDbHostApplicationServices@@UEAA@XZ
  ??1NcDbIdMapping@@UEAA@XZ
  ??1NcDbIdMappingIter@@UEAA@XZ
  ??1NcDbIdPair@@UEAA@XZ
  ??1NcDbImage@@UEAA@XZ
  ??1NcDbImageBackground@@UEAA@XZ
  ??1NcDbIndex@@UEAA@XZ
  ??1NcDbIndexUpdateDataIterator@@QEAA@XZ
  ??1NcDbInterferencePE@@UEAA@XZ
  ??1NcDbJoinEntityPE@@UEAA@XZ
  ??1NcDbLayerFilter@@UEAA@XZ
  ??1NcDbLayerIndex@@UEAA@XZ
  ??1NcDbLayerIndexIterator@@UEAA@XZ
  ??1NcDbLayerStateManager@@UEAA@XZ
  ??1NcDbLayerStateManagerReactor@@UEAA@XZ
  ??1NcDbLayerTable@@UEAA@XZ
  ??1NcDbLayerTableIterator@@UEAA@XZ
  ??1NcDbLayerTableRecord@@UEAA@XZ
  ??1NcDbLayout@@UEAA@XZ
  ??1NcDbLayoutManager@@UEAA@XZ
  ??1NcDbLayoutManagerReactor@@UEAA@XZ
  ??1NcDbLeader@@UEAA@XZ
  ??1NcDbLight@@UEAA@XZ
  ??1NcDbLine@@UEAA@XZ
  ??1NcDbLinetypeTable@@UEAA@XZ
  ??1NcDbLinetypeTableIterator@@UEAA@XZ
  ??1NcDbLinetypeTableRecord@@UEAA@XZ
  ??1NcDbLinkedData@@UEAA@XZ
  ??1NcDbLinkedTableData@@UEAA@XZ
  ??1NcDbLoftOptions@@QEAA@XZ
  ??1NcDbLoftProfile@@UEAA@XZ
  ??1NcDbLongTransWorkSetIterator@@UEAA@XZ
  ??1NcDbLongTransaction@@UEAA@XZ
  ??1NcDbMInsertBlock@@UEAA@XZ
  ??1NcDbMLeader@@UEAA@XZ
  ??1NcDbMLeaderStyle@@UEAA@XZ
  ??1NcDbMPolygon@@UEAA@XZ
  ??1NcDbMText@@UEAA@XZ
  ??1NcDbMatchProperties@@UEAA@XZ
  ??1NcDbMaterial@@UEAA@XZ
  ??1NcDbMentalRayRenderSettings@@UEAA@XZ
  ??1NcDbMline@@UEAA@XZ
  ??1NcDbMlineStyle@@UEAA@XZ
  ??1NcDbMotionPath@@UEAA@XZ
  ??1NcDbMultiModesGripPE@@UEAA@XZ
  ??1NcDbNamedPath@@UEAA@XZ
  ??1NcDbNurbSurface@@UEAA@XZ
  ??1NcDbObject@@UEAA@XZ
  ??1NcDbObjectContext@@UEAA@XZ
  ??1NcDbObjectContextCollection@@UEAA@XZ
  ??1NcDbObjectContextCollectionIterator@@UEAA@XZ
  ??1NcDbObjectContextInterface@@UEAA@XZ
  ??1NcDbObjectContextManager@@UEAA@XZ
  ??1NcDbObjectIdGraph@@UEAA@XZ
  ??1NcDbObjectIdGraphNode@@UEAA@XZ
  ??1NcDbObjectIterator@@UEAA@XZ
  ??1NcDbObjectOverrule@@UEAA@XZ
  ??1NcDbObjectReactor@@UEAA@XZ
  ??1NcDbOle2Frame@@UEAA@XZ
  ??1NcDbOleFrame@@UEAA@XZ
  ??1NcDbOrdinateDimension@@UEAA@XZ
  ??1NcDbOsnapOverrule@@UEAA@XZ
  ??1NcDbOsnapPointRef@@UEAA@XZ
  ??1NcDbPaperOrientationPE@@UEAA@XZ
  ??1NcDbPathRef@@UEAA@XZ
  ??1NcDbPdfDefinition@@UEAA@XZ
  ??1NcDbPdfReference@@UEAA@XZ
  ??1NcDbPlaceHolder@@UEAA@XZ
  ??1NcDbPlaneSurface@@UEAA@XZ
  ??1NcDbPlotSettings@@UEAA@XZ
  ??1NcDbPlotSettingsValidator@@UEAA@XZ
  ??1NcDbPoint@@UEAA@XZ
  ??1NcDbPointPath@@UEAA@XZ
  ??1NcDbPointRef@@UEAA@XZ
  ??1NcDbPolyFaceMesh@@UEAA@XZ
  ??1NcDbPolyFaceMeshVertex@@UEAA@XZ
  ??1NcDbPolygonMesh@@UEAA@XZ
  ??1NcDbPolygonMeshVertex@@UEAA@XZ
  ??1NcDbPolyline@@UEAA@XZ
  ??1NcDbPropertiesOverrule@@UEAA@XZ
  ??1NcDbPropertyFilterCustomizationPE@@UEAA@XZ
  ??1NcDbProxyEntity@@UEAA@XZ
  ??1NcDbProxyObject@@UEAA@XZ
  ??1NcDbRadialDimension@@UEAA@XZ
  ??1NcDbRadialDimensionLarge@@UEAA@XZ
  ??1NcDbRasterImage@@UEAA@XZ
  ??1NcDbRasterImageDef@@UEAA@XZ
  ??1NcDbRasterImageDefFileAccessReactor@@UEAA@XZ
  ??1NcDbRasterImageDefReactor@@UEAA@XZ
  ??1NcDbRasterImageDefTransReactor@@UEAA@XZ
  ??1NcDbRasterVariables@@UEAA@XZ
  ??1NcDbRay@@UEAA@XZ
  ??1NcDbRecoverCallBack@@UEAA@XZ
  ??1NcDbRegAppTable@@UEAA@XZ
  ??1NcDbRegAppTableIterator@@UEAA@XZ
  ??1NcDbRegAppTableRecord@@UEAA@XZ
  ??1NcDbRegion@@UEAA@XZ
  ??1NcDbRenderEnvironment@@UEAA@XZ
  ??1NcDbRenderGlobal@@UEAA@XZ
  ??1NcDbRenderSettings@@UEAA@XZ
  ??1NcDbRevolveOptions@@QEAA@XZ
  ??1NcDbRevolvedSurface@@UEAA@XZ
  ??1NcDbRotatedDimension@@UEAA@XZ
  ??1NcDbSection@@UEAA@XZ
  ??1NcDbSectionManager@@UEAA@XZ
  ??1NcDbSectionManagerIterator@@UEAA@XZ
  ??1NcDbSelectGrip@@UEAA@XZ
  ??1NcDbSequenceEnd@@UEAA@XZ
  ??1NcDbServices@@UEAA@XZ
  ??1NcDbShape@@UEAA@XZ
  ??1NcDbSkyBackground@@UEAA@XZ
  ??1NcDbSolid@@UEAA@XZ
  ??1NcDbSolidBackground@@UEAA@XZ
  ??1NcDbSortentsTable@@UEAA@XZ
  ??1NcDbSpatialFilter@@UEAA@XZ
  ??1NcDbSpatialIndex@@UEAA@XZ
  ??1NcDbSpatialIndexIterator@@UEAA@XZ
  ??1NcDbSpline@@UEAA@XZ
  ??1NcDbSubDMesh@@UEAA@XZ
  ??1NcDbSubentRef@@UEAA@XZ
  ??1NcDbSubentityOverrule@@UEAA@XZ
  ??1NcDbSun@@UEAA@XZ
  ??1NcDbSurface@@UEAA@XZ
  ??1NcDbSurfaceTrimInfo@@UEAA@XZ
  ??1NcDbSweepOptions@@QEAA@XZ
  ??1NcDbSymbolTable@@UEAA@XZ
  ??1NcDbSymbolTableIterator@@UEAA@XZ
  ??1NcDbSymbolTableRecord@@UEAA@XZ
  ??1NcDbTable@@UEAA@XZ
  ??1NcDbTableContent@@UEAA@XZ
  ??1NcDbTableIterator@@QEAA@XZ
  ??1NcDbTableStyle@@UEAA@XZ
  ??1NcDbTableTemplate@@UEAA@XZ
  ??1NcDbText@@UEAA@XZ
  ??1NcDbTextFieldsPE@@UEAA@XZ
  ??1NcDbTextStyleTable@@UEAA@XZ
  ??1NcDbTextStyleTableIterator@@UEAA@XZ
  ??1NcDbTextStyleTableRecord@@UEAA@XZ
  ??1NcDbTrace@@UEAA@XZ
  ??1NcDbTransactionManager@@UEAA@XZ
  ??1NcDbTransformOverrule@@UEAA@XZ
  ??1NcDbUCSTable@@UEAA@XZ
  ??1NcDbUCSTableIterator@@UEAA@XZ
  ??1NcDbUCSTableRecord@@UEAA@XZ
  ??1NcDbUnderlayDefinition@@UEAA@XZ
  ??1NcDbUnderlayFile@@UEAA@XZ
  ??1NcDbUnderlayHost@@MEAA@XZ
  ??1NcDbUnderlayItem@@UEAA@XZ
  ??1NcDbUnderlayReference@@UEAA@XZ
  ??1NcDbVertex@@UEAA@XZ
  ??1NcDbVertexRef@@UEAA@XZ
  ??1NcDbViewTable@@UEAA@XZ
  ??1NcDbViewTableIterator@@UEAA@XZ
  ??1NcDbViewTableRecord@@UEAA@XZ
  ??1NcDbViewport@@UEAA@XZ
  ??1NcDbViewportTable@@UEAA@XZ
  ??1NcDbViewportTableIterator@@UEAA@XZ
  ??1NcDbViewportTableRecord@@UEAA@XZ
  ??1NcDbVisibilityOverrule@@UEAA@XZ
  ??1NcDbVisualStyle@@UEAA@XZ
  ??1NcDbWblockCloneFiler@@UEAA@XZ
  ??1NcDbWipeout@@UEAA@XZ
  ??1NcDbXObject@@UEAA@XZ
  ??1NcDbXline@@UEAA@XZ
  ??1NcDbXrecord@@UEAA@XZ
  ??1NcDbXrecordIterator@@UEAA@XZ
  ??1NcDbXrefGraph@@UEAA@XZ
  ??1NcDbXrefGraphNode@@UEAA@XZ
  ??1NcDistanceConstraint@@UEAA@XZ
  ??1NcEdInputContextReactor@@UEAA@XZ
  ??1NcEdInputPointFilter@@UEAA@XZ
  ??1NcEdInputPointManager@@UEAA@XZ
  ??1NcEdInputPointMonitor@@UEAA@XZ
  ??1NcEdInputPointMonitorResult@@QEAA@XZ
  ??1NcEqualCurvatureConstraint@@UEAA@XZ
  ??1NcEqualDistanceConstraint@@UEAA@XZ
  ??1NcEqualHelpParameterConstraint@@UEAA@XZ
  ??1NcEqualLengthConstraint@@UEAA@XZ
  ??1NcEqualRadiusConstraint@@UEAA@XZ
  ??1NcExplicitConstraint@@UEAA@XZ
  ??1NcFdFieldEngine@@UEAA@XZ
  ??1NcFdFieldEvaluator@@UEAA@XZ
  ??1NcFdFieldEvaluatorLoader@@UEAA@XZ
  ??1NcFdFieldReactor@@UEAA@XZ
  ??1NcFdFieldResult@@UEAA@XZ
  ??1NcFileDependencyManager@@UEAA@XZ
  ??1NcFixedConstraint@@UEAA@XZ
  ??1NcG2SmoothConstraint@@UEAA@XZ
  ??1NcGUID@@QEAA@XZ
  ??1NcGeAugPolyline3d@@UEAA@XZ
  ??1NcGeBoundBlock2d@@UEAA@XZ
  ??1NcGeBoundedPlane@@UEAA@XZ
  ??1NcGeCircArc2d@@UEAA@XZ
  ??1NcGeCircArc3d@@UEAA@XZ
  ??1NcGeClipBoundary2d@@QEAA@XZ
  ??1NcGeCompositeCurve2d@@UEAA@XZ
  ??1NcGeCompositeCurve3d@@UEAA@XZ
  ??1NcGeCone@@UEAA@XZ
  ??1NcGeCubicSplineCurve2d@@UEAA@XZ
  ??1NcGeCubicSplineCurve3d@@UEAA@XZ
  ??1NcGeCurve2d@@UEAA@XZ
  ??1NcGeCurve3d@@UEAA@XZ
  ??1NcGeCurveBoundary@@QEAA@XZ
  ??1NcGeCurveCurveInt2d@@UEAA@XZ
  ??1NcGeCurveCurveInt3d@@UEAA@XZ
  ??1NcGeCurveSurfInt@@UEAA@XZ
  ??1NcGeCylinder@@UEAA@XZ
  ??1NcGeEllipArc2d@@UEAA@XZ
  ??1NcGeEllipArc3d@@UEAA@XZ
  ??1NcGeEntity2d@@UEAA@XZ
  ??1NcGeEntity3d@@UEAA@XZ
  ??1NcGeExternalBoundedSurface@@UEAA@XZ
  ??1NcGeExternalCurve2d@@UEAA@XZ
  ??1NcGeExternalCurve3d@@UEAA@XZ
  ??1NcGeExternalSurface@@UEAA@XZ
  ??1NcGeInterval@@UEAA@XZ
  ??1NcGeKnotVector@@QEAA@XZ
  ??1NcGeLine2d@@UEAA@XZ
  ??1NcGeLine3d@@UEAA@XZ
  ??1NcGeLineSeg2d@@UEAA@XZ
  ??1NcGeLineSeg3d@@UEAA@XZ
  ??1NcGeLinearEnt2d@@UEAA@XZ
  ??1NcGeLinearEnt3d@@UEAA@XZ
  ??1NcGeNurbCurve2d@@UEAA@XZ
  ??1NcGeNurbCurve3d@@UEAA@XZ
  ??1NcGeNurbSurface@@UEAA@XZ
  ??1NcGeOffsetCurve2d@@UEAA@XZ
  ??1NcGeOffsetCurve3d@@UEAA@XZ
  ??1NcGeOffsetSurface@@UEAA@XZ
  ??1NcGePlanarEnt@@UEAA@XZ
  ??1NcGePlane@@UEAA@XZ
  ??1NcGePointEnt2d@@UEAA@XZ
  ??1NcGePointEnt3d@@UEAA@XZ
  ??1NcGePointOnCurve2d@@UEAA@XZ
  ??1NcGePointOnSurface@@UEAA@XZ
  ??1NcGePolyline2d@@UEAA@XZ
  ??1NcGePolyline3d@@UEAA@XZ
  ??1NcGePosition2d@@UEAA@XZ
  ??1NcGePosition3d@@UEAA@XZ
  ??1NcGeSphere@@UEAA@XZ
  ??1NcGeSplineEnt2d@@UEAA@XZ
  ??1NcGeSplineEnt3d@@UEAA@XZ
  ??1NcGeSurfSurfInt@@UEAA@XZ
  ??1NcGeSurface@@UEAA@XZ
  ??1NcGeTorus@@UEAA@XZ
  ??1NcGeomConstraint@@UEAA@XZ
  ??1NcGiCommonDraw@@UEAA@XZ
  ??1NcGiContext@@UEAA@XZ
  ??1NcGiDisplayStyle@@UEAA@XZ
  ??1NcGiDistantLightTraits2@@UEAA@XZ
  ??1NcGiDistantLightTraits@@UEAA@XZ
  ??1NcGiDrawable@@UEAA@XZ
  ??1NcGiDrawableOverrule@@UEAA@XZ
  ??1NcGiDrawableTraits2@@UEAA@XZ
  ??1NcGiDrawableTraits@@UEAA@XZ
  ??1NcGiEdgeData@@UEAA@XZ
  ??1NcGiEdgeStyle@@UEAA@XZ
  ??1NcGiFaceData@@UEAA@XZ
  ??1NcGiFaceStyle@@UEAA@XZ
  ??1NcGiGdiDrawObject@@UEAA@XZ
  ??1NcGiGenericTexture@@UEAA@XZ
  ??1NcGiGeometry@@UEAA@XZ
  ??1NcGiGlyph@@UEAA@XZ
  ??1NcGiGradientBackgroundTraits@@UEAA@XZ
  ??1NcGiGroundPlaneBackgroundTraits@@UEAA@XZ
  ??1NcGiImageBackgroundTraits@@UEAA@XZ
  ??1NcGiImageFileTexture@@UEAA@XZ
  ??1NcGiImageTexture@@UEAA@XZ
  ??1NcGiLightAttenuation@@UEAA@XZ
  ??1NcGiLightTraits@@UEAA@XZ
  ??1NcGiLinetypeEngine@@UEAA@XZ
  ??1NcGiMarbleTexture@@UEAA@XZ
  ??1NcGiMaterialColor@@UEAA@XZ
  ??1NcGiMaterialMap@@UEAA@XZ
  ??1NcGiMaterialTexture@@UEAA@XZ
  ??1NcGiMaterialTraits2@@UEAA@XZ
  ??1NcGiMaterialTraits@@UEAA@XZ
  ??1NcGiMentalRayRenderSettingsTraits2@@UEAA@XZ
  ??1NcGiMentalRayRenderSettingsTraits3@@UEAA@XZ
  ??1NcGiMentalRayRenderSettingsTraits@@UEAA@XZ
  ??1NcGiNonEntityTraits@@UEAA@XZ
  ??1NcGiPointLightTraits2@@UEAA@XZ
  ??1NcGiPointLightTraits@@UEAA@XZ
  ??1NcGiProceduralTexture@@UEAA@XZ
  ??1NcGiRenderEnvironmentTraits@@UEAA@XZ
  ??1NcGiRenderSettingsTraits@@UEAA@XZ
  ??1NcGiShadowParameters2@@UEAA@XZ
  ??1NcGiShadowParameters@@UEAA@XZ
  ??1NcGiSkyBackgroundTraits@@UEAA@XZ
  ??1NcGiSkyParameters@@UEAA@XZ
  ??1NcGiSolidBackgroundTraits@@UEAA@XZ
  ??1NcGiSpotLightTraits2@@UEAA@XZ
  ??1NcGiSpotLightTraits@@UEAA@XZ
  ??1NcGiStandardLightTraits@@UEAA@XZ
  ??1NcGiSubEntityTraits@@UEAA@XZ
  ??1NcGiTextEngine@@UEAA@XZ
  ??1NcGiTextStyle@@UEAA@XZ
  ??1NcGiToneOperatorParameters@@UEAA@XZ
  ??1NcGiVariant@@UEAA@XZ
  ??1NcGiVertexData@@UEAA@XZ
  ??1NcGiViewport@@UEAA@XZ
  ??1NcGiViewportDrawNrx@@UEAA@XZ
  ??1NcGiViewportDrawNrxHostImpl@@UEAA@XZ
  ??1NcGiViewportGeometry@@UEAA@XZ
  ??1NcGiViewportTraits@@UEAA@XZ
  ??1NcGiVisualStyle@@UEAA@XZ
  ??1NcGiVisualStyleTraits@@UEAA@XZ
  ??1NcGiWebLightTraits@@UEAA@XZ
  ??1NcGiWoodTexture@@UEAA@XZ
  ??1NcGiWorldDraw@@UEAA@XZ
  ??1NcGiWorldDrawHostImpl@@UEAA@XZ
  ??1NcGiWorldGeometry@@UEAA@XZ
  ??1NcGsDCPoint@@UEAA@XZ
  ??1NcGsDCRect@@UEAA@XZ
  ??1NcGsDevice@@UEAA@XZ
  ??1NcGsModel@@UEAA@XZ
  ??1NcGsNode@@UEAA@XZ
  ??1NcGsView@@UEAA@XZ
  ??1NcHelpParameter@@UEAA@XZ
  ??1NcHorizontalConstraint@@UEAA@XZ
  ??1NcLyLayerFilter@@UEAA@XZ
  ??1NcLyLayerFilterManager@@UEAA@XZ
  ??1NcLyLayerGroup@@UEAA@XZ
  ??1NcMidPointConstraint@@UEAA@XZ
  ??1NcNormalConstraint@@UEAA@XZ
  ??1NcParallelConstraint@@UEAA@XZ
  ??1NcPerpendicularConstraint@@UEAA@XZ
  ??1NcPointCoincidenceConstraint@@UEAA@XZ
  ??1NcPointCurveConstraint@@UEAA@XZ
  ??1NcRadiusDiameterConstraint@@UEAA@XZ
  ??1NcRxClass@@UEAA@XZ
  ??1NcRxClassExtPE@@UEAA@XZ
  ??1NcRxDLinkerReactor@@UEAA@XZ
  ??1NcRxDictionary@@UEAA@XZ
  ??1NcRxDictionaryIterator@@UEAA@XZ
  ??1NcRxDynamicLinker@@UEAA@XZ
  ??1NcRxDynamicLinkerImpl@@UEAA@XZ
  ??1NcRxEvent@@UEAA@XZ
  ??1NcRxEventReactor@@UEAA@XZ
  ??1NcRxIterator@@UEAA@XZ
  ??1NcRxKernel@@UEAA@XZ
  ??1NcRxObject@@UEAA@XZ
  ??1NcRxObjectPtr@@QEAA@XZ
  ??1NcRxOverrule@@UEAA@XZ
  ??1NcRxProtocolReactor@@UEAA@XZ
  ??1NcRxProtocolReactorIterator@@UEAA@XZ
  ??1NcRxProtocolReactorList@@UEAA@XZ
  ??1NcRxProtocolReactorListIterator@@UEAA@XZ
  ??1NcRxProtocolReactorManager@@UEAA@XZ
  ??1NcRxProtocolReactorManagerFactory@@UEAA@XZ
  ??1NcRxService@@UEAA@XZ
  ??1NcRxVariablesDictionary@@QEAA@XZ
  ??1NcString@@QEAA@XZ
  ??1NcSymmetricConstraint@@UEAA@XZ
  ??1NcTangentConstraint@@UEAA@XZ
  ??1NcTransaction@@UEAA@XZ
  ??1NcTransactionManager@@UEAA@XZ
  ??1NcTransactionReactor@@UEAA@XZ
  ??1NcUnderlayLayer@@QEAA@XZ
  ??1NcValue@@UEAA@XZ
  ??1NcVerticalConstraint@@UEAA@XZ
  ??1NcViewFrustum@@QEAA@XZ
  ??1NrxGateDBGlobals@@QEAA@XZ
  ??1NsdkHlrCollector@@UEAA@XZ
  ??1NsdkHlrData@@UEAA@XZ
  ??1NsdkHlrEngine@@UEAA@XZ
  ??1OPMPerInstancePropertyExtension@@UEAA@XZ
  ??1OPMPerInstancePropertyExtensionFactory@@UEAA@XZ
  ??1OPMPerInstancePropertySources@@UEAA@XZ
  ??1OPMPropertyExtension@@UEAA@XZ
  ??1OPMPropertyExtensionFactory@@UEAA@XZ
  ??1ObjectReactorsStorage@@QEAA@XZ
  ??1Offset@Ntil@@QEAA@XZ
  ??1PixelSelectorInterface@Ntil@@UEAA@XZ
  ??1PngCompression@Ntil@@UEAA@XZ
  ??1PngCompressionType@Ntil@@UEAA@XZ
  ??1PngCustomProperty@Ntil@@UEAA@XZ
  ??1PngFormatCodec@Ntil@@UEAA@XZ
  ??1PngGamma@Ntil@@UEAA@XZ
  ??1PngGraySignificantBits@Ntil@@UEAA@XZ
  ??1PngHistogram@Ntil@@UEAA@XZ
  ??1PngInterlacing@Ntil@@UEAA@XZ
  ??1PngPageOffset@Ntil@@UEAA@XZ
  ??1PngSRGB@Ntil@@UEAA@XZ
  ??1PngScale@Ntil@@UEAA@XZ
  ??1PngText@Ntil@@UEAA@XZ
  ??1Point2d@Ntil@@QEAA@XZ
  ??1RgbGrayModel@Ntil@@UEAA@XZ
  ??1RgbModel@Ntil@@UEAA@XZ
  ??1RgbPaletteModel@Ntil@@UEAA@XZ
  ??1RgbPaletteModelException@Ntil@@UEAA@XZ
  ??1RowProviderInterface@Ntil@@UEAA@XZ
  ??1RxClassStorage@@QEAA@XZ
  ??1SeekableDataStreamInterface@Ntil@@UEAA@XZ
  ??1Size@Ntil@@QEAA@XZ
  ??1SpanProviderInterface@Ntil@@UEAA@XZ
  ??1StringBuffer@Ntil@@UEAA@XZ
  ??1TiffCompression@Ntil@@UEAA@XZ
  ??1TiffCompressionType@Ntil@@UEAA@XZ
  ??1TiffFillOrder@Ntil@@UEAA@XZ
  ??1TiffFormatCodec@Ntil@@UEAA@XZ
  ??1TiffGrayResponseCurve@Ntil@@UEAA@XZ
  ??1TiffPageInformation@Ntil@@UEAA@XZ
  ??1TiffPhotometricInterpretation@Ntil@@UEAA@XZ
  ??1TiffPrivateTag@Ntil@@UEAA@XZ
  ??1TiffProperty@Ntil@@UEAA@XZ
  ??1TiffSampleRange@Ntil@@UEAA@XZ
  ??1TiffText@Ntil@@UEAA@XZ
  ??1Vector2d@Ntil@@UEAA@XZ
  ??1VectorUL@Ntil@@UEAA@XZ
  ??1pair@@QEAA@XZ
  ??2CNsiObject@@SAPEAX_K@Z
  ??2CNsiUcChar@@SAPEAX_K@Z
  ??2CNsiUcStr@@SAPEAX_K@Z
  ??2INativeExtension@@SAPEAX_K@Z
  ??2INativeExtension@@SAPEAX_KPEAX@Z
  ??2NcCmTransparency@@SAPEAX_K@Z
  ??2NcCmTransparency@@SAPEAX_KPEAX@Z
  ??2NcRxObject@@SAPEAX_K@Z
  ??2NcRxObject@@SAPEAX_KPEAX@Z
  ??2NcRxObject@@SAPEAX_KPEBDH@Z
  ??3CNsiObject@@SAXPEAX@Z
  ??3CNsiUcChar@@SAXPEAX@Z
  ??3CNsiUcStr@@SAXPEAX@Z
  ??3INativeExtension@@SAXPEAX0@Z
  ??3INativeExtension@@SAXPEAX@Z
  ??3NcCmTransparency@@SAXPEAX0@Z
  ??3NcCmTransparency@@SAXPEAX@Z
  ??3NcRxObject@@SAXPEAX@Z
  ??3NcRxObject@@SAXPEAXPEBDH@Z
  ??4?$CCSUnknownImpl@UIHostIntegratorExEngine@@@@QEAAAEAV0@AEBV0@@Z
  ??4?$HostArray@HV?$HostMemoryAllocator@H@@@@QEAAAEAV0@$$QEAV0@@Z
  ??4?$HostArray@HV?$HostMemoryAllocator@H@@@@QEAAAEAV0@AEBV0@@Z
  ??4?$HostArray@NV?$HostMemoryAllocator@N@@@@QEAAAEAV0@$$QEAV0@@Z
  ??4?$HostArray@NV?$HostMemoryAllocator@N@@@@QEAAAEAV0@AEBV0@@Z
  ??4?$HostArray@PEAUHINSTANCE__@@V?$HostObjectsAllocator@PEAUHINSTANCE__@@@@@@QEAAAEAV0@$$QEAV0@@Z
  ??4?$HostArray@PEAUHINSTANCE__@@V?$HostObjectsAllocator@PEAUHINSTANCE__@@@@@@QEAAAEAV0@AEBV0@@Z
  ??4?$HostArray@PEAVNcDb2dVertex@@V?$HostObjectsAllocator@PEAVNcDb2dVertex@@@@@@QEAAAEAV0@$$QEAV0@@Z
  ??4?$HostArray@PEAVNcDb2dVertex@@V?$HostObjectsAllocator@PEAVNcDb2dVertex@@@@@@QEAAAEAV0@AEBV0@@Z
  ??4?$HostArray@PEAVNcDb3dPolylineVertex@@V?$HostObjectsAllocator@PEAVNcDb3dPolylineVertex@@@@@@QEAAAEAV0@$$QEAV0@@Z
  ??4?$HostArray@PEAVNcDb3dPolylineVertex@@V?$HostObjectsAllocator@PEAVNcDb3dPolylineVertex@@@@@@QEAAAEAV0@AEBV0@@Z
  ??4?$HostArray@PEAVNcDbDimData@@V?$HostMemoryAllocator@PEAVNcDbDimData@@@@@@QEAAAEAV0@$$QEAV0@@Z
  ??4?$HostArray@PEAVNcDbDimData@@V?$HostMemoryAllocator@PEAVNcDbDimData@@@@@@QEAAAEAV0@AEBV0@@Z
  ??4?$HostArray@PEAVNcDbEntity@@V?$HostObjectsAllocator@PEAVNcDbEntity@@@@@@QEAAAEAV0@$$QEAV0@@Z
  ??4?$HostArray@PEAVNcDbEntity@@V?$HostObjectsAllocator@PEAVNcDbEntity@@@@@@QEAAAEAV0@AEBV0@@Z
  ??4?$HostArray@PEAVNcDbGripData@@V?$HostMemoryAllocator@PEAVNcDbGripData@@@@@@QEAAAEAV0@$$QEAV0@@Z
  ??4?$HostArray@PEAVNcDbGripData@@V?$HostMemoryAllocator@PEAVNcDbGripData@@@@@@QEAAAEAV0@AEBV0@@Z
  ??4?$HostArray@PEAVNcDbNurbSurface@@V?$HostObjectsAllocator@PEAVNcDbNurbSurface@@@@@@QEAAAEAV0@$$QEAV0@@Z
  ??4?$HostArray@PEAVNcDbNurbSurface@@V?$HostObjectsAllocator@PEAVNcDbNurbSurface@@@@@@QEAAAEAV0@AEBV0@@Z
  ??4?$HostArray@PEAVNcDbPolygonMeshVertex@@V?$HostObjectsAllocator@PEAVNcDbPolygonMeshVertex@@@@@@QEAAAEAV0@$$QEAV0@@Z
  ??4?$HostArray@PEAVNcDbPolygonMeshVertex@@V?$HostObjectsAllocator@PEAVNcDbPolygonMeshVertex@@@@@@QEAAAEAV0@AEBV0@@Z
  ??4?$HostArray@PEAVNcDbVertex@@V?$HostObjectsAllocator@PEAVNcDbVertex@@@@@@QEAAAEAV0@$$QEAV0@@Z
  ??4?$HostArray@PEAVNcDbVertex@@V?$HostObjectsAllocator@PEAVNcDbVertex@@@@@@QEAAAEAV0@AEBV0@@Z
  ??4?$HostArray@PEAVNcLyLayerFilter@@V?$HostObjectsAllocator@PEAVNcLyLayerFilter@@@@@@QEAAAEAV0@$$QEAV0@@Z
  ??4?$HostArray@PEAVNcLyLayerFilter@@V?$HostObjectsAllocator@PEAVNcLyLayerFilter@@@@@@QEAAAEAV0@AEBV0@@Z
  ??4?$HostArray@PEAVNcTransaction@@V?$HostObjectsAllocator@PEAVNcTransaction@@@@@@QEAAAEAV0@$$QEAV0@@Z
  ??4?$HostArray@PEAVNcTransaction@@V?$HostObjectsAllocator@PEAVNcTransaction@@@@@@QEAAAEAV0@AEBV0@@Z
  ??4?$HostArray@PEAVNsdkHlrData@@V?$HostObjectsAllocator@PEAVNsdkHlrData@@@@@@QEAAAEAV0@$$QEAV0@@Z
  ??4?$HostArray@PEAVNsdkHlrData@@V?$HostObjectsAllocator@PEAVNsdkHlrData@@@@@@QEAAAEAV0@AEBV0@@Z
  ??4?$HostArray@PEAVOdDbEntity@@V?$HostObjectsAllocator@PEAVOdDbEntity@@@@@@QEAAAEAV0@$$QEAV0@@Z
  ??4?$HostArray@PEAVOdDbEntity@@V?$HostObjectsAllocator@PEAVOdDbEntity@@@@@@QEAAAEAV0@AEBV0@@Z
  ??4?$HostArray@PEAXV?$HostMemoryAllocator@PEAX@@@@QEAAAEAV0@$$QEAV0@@Z
  ??4?$HostArray@PEAXV?$HostMemoryAllocator@PEAX@@@@QEAAAEAV0@AEBV0@@Z
  ??4?$HostArray@VMcGeVector2d@@V?$HostMemoryAllocator@VMcGeVector2d@@@@@@QEAAAEAV0@$$QEAV0@@Z
  ??4?$HostArray@VMcGeVector2d@@V?$HostMemoryAllocator@VMcGeVector2d@@@@@@QEAAAEAV0@AEBV0@@Z
  ??4?$HostArray@VNcDbEvalVariant@@V?$HostMemoryAllocator@VNcDbEvalVariant@@@@@@QEAAAEAV0@$$QEAV0@@Z
  ??4?$HostArray@VNcDbEvalVariant@@V?$HostMemoryAllocator@VNcDbEvalVariant@@@@@@QEAAAEAV0@AEBV0@@Z
  ??4?$HostArray@VNcDbFullSubentPath@@V?$HostObjectsAllocator@VNcDbFullSubentPath@@@@@@QEAAAEAV0@$$QEAV0@@Z
  ??4?$HostArray@VNcDbFullSubentPath@@V?$HostObjectsAllocator@VNcDbFullSubentPath@@@@@@QEAAAEAV0@AEBV0@@Z
  ??4?$HostArray@VNcDbObjectId@@V?$HostObjectsAllocator@VNcDbObjectId@@@@@@QEAAAEAV0@$$QEAV0@@Z
  ??4?$HostArray@VNcDbObjectId@@V?$HostObjectsAllocator@VNcDbObjectId@@@@@@QEAAAEAV0@AEBV0@@Z
  ??4?$HostArray@VNcGePoint2d@@V?$HostMemoryAllocator@VNcGePoint2d@@@@@@QEAAAEAV0@$$QEAV0@@Z
  ??4?$HostArray@VNcGePoint2d@@V?$HostMemoryAllocator@VNcGePoint2d@@@@@@QEAAAEAV0@AEBV0@@Z
  ??4?$HostArray@VNcGePoint3d@@V?$HostMemoryAllocator@VNcGePoint3d@@@@@@QEAAAEAV0@$$QEAV0@@Z
  ??4?$HostArray@VNcGePoint3d@@V?$HostMemoryAllocator@VNcGePoint3d@@@@@@QEAAAEAV0@AEBV0@@Z
  ??4?$HostArray@VNcGeVector3d@@V?$HostMemoryAllocator@VNcGeVector3d@@@@@@QEAAAEAV0@$$QEAV0@@Z
  ??4?$HostArray@VNcGeVector3d@@V?$HostMemoryAllocator@VNcGeVector3d@@@@@@QEAAAEAV0@AEBV0@@Z
  ??4?$HostArray@_JV?$HostMemoryAllocator@_J@@@@QEAAAEAV0@$$QEAV0@@Z
  ??4?$HostArray@_JV?$HostMemoryAllocator@_J@@@@QEAAAEAV0@AEBV0@@Z
  ??4?$NcArray@HV?$HostMemoryAllocator@H@@@@QEAAAEAV0@AEBV0@@Z
  ??4?$NcArray@NV?$HostMemoryAllocator@N@@@@QEAAAEAV0@AEBV0@@Z
  ??4?$NcArray@PEAUHINSTANCE__@@V?$HostObjectsAllocator@PEAUHINSTANCE__@@@@@@QEAAAEAV0@AEBV0@@Z
  ??4?$NcArray@PEAVNcDb2dVertex@@V?$HostObjectsAllocator@PEAVNcDb2dVertex@@@@@@QEAAAEAV0@AEBV0@@Z
  ??4?$NcArray@PEAVNcDb3dPolylineVertex@@V?$HostObjectsAllocator@PEAVNcDb3dPolylineVertex@@@@@@QEAAAEAV0@AEBV0@@Z
  ??4?$NcArray@PEAVNcDbDimData@@V?$HostMemoryAllocator@PEAVNcDbDimData@@@@@@QEAAAEAV0@AEBV0@@Z
  ??4?$NcArray@PEAVNcDbEntity@@V?$HostObjectsAllocator@PEAVNcDbEntity@@@@@@QEAAAEAV0@AEBV0@@Z
  ??4?$NcArray@PEAVNcDbGripData@@V?$HostMemoryAllocator@PEAVNcDbGripData@@@@@@QEAAAEAV0@AEBV0@@Z
  ??4?$NcArray@PEAVNcDbNurbSurface@@V?$HostObjectsAllocator@PEAVNcDbNurbSurface@@@@@@QEAAAEAV0@AEBV0@@Z
  ??4?$NcArray@PEAVNcDbPolygonMeshVertex@@V?$HostObjectsAllocator@PEAVNcDbPolygonMeshVertex@@@@@@QEAAAEAV0@AEBV0@@Z
  ??4?$NcArray@PEAVNcDbVertex@@V?$HostObjectsAllocator@PEAVNcDbVertex@@@@@@QEAAAEAV0@AEBV0@@Z
  ??4?$NcArray@PEAVNcLyLayerFilter@@V?$HostObjectsAllocator@PEAVNcLyLayerFilter@@@@@@QEAAAEAV0@AEBV0@@Z
  ??4?$NcArray@PEAVNcTransaction@@V?$HostObjectsAllocator@PEAVNcTransaction@@@@@@QEAAAEAV0@AEBV0@@Z
  ??4?$NcArray@PEAVNsdkHlrData@@V?$HostObjectsAllocator@PEAVNsdkHlrData@@@@@@QEAAAEAV0@AEBV0@@Z
  ??4?$NcArray@PEAVOdDbEntity@@V?$HostObjectsAllocator@PEAVOdDbEntity@@@@@@QEAAAEAV0@AEBV0@@Z
  ??4?$NcArray@PEAXV?$HostMemoryAllocator@PEAX@@@@QEAAAEAV0@AEBV0@@Z
  ??4?$NcArray@VMcGeVector2d@@V?$HostMemoryAllocator@VMcGeVector2d@@@@@@QEAAAEAV0@AEBV0@@Z
  ??4?$NcArray@VNcDbEvalVariant@@V?$HostMemoryAllocator@VNcDbEvalVariant@@@@@@QEAAAEAV0@AEBV0@@Z
  ??4?$NcArray@VNcDbFullSubentPath@@V?$HostObjectsAllocator@VNcDbFullSubentPath@@@@@@QEAAAEAV0@AEBV0@@Z
  ??4?$NcArray@VNcDbObjectId@@V?$HostObjectsAllocator@VNcDbObjectId@@@@@@QEAAAEAV0@AEBV0@@Z
  ??4?$NcArray@VNcGePoint2d@@V?$HostMemoryAllocator@VNcGePoint2d@@@@@@QEAAAEAV0@AEBV0@@Z
  ??4?$NcArray@VNcGePoint3d@@V?$HostMemoryAllocator@VNcGePoint3d@@@@@@QEAAAEAV0@AEBV0@@Z
  ??4?$NcArray@VNcGeVector3d@@V?$HostMemoryAllocator@VNcGeVector3d@@@@@@QEAAAEAV0@AEBV0@@Z
  ??4?$NcArray@_JV?$HostMemoryAllocator@_J@@@@QEAAAEAV0@AEBV0@@Z
  ??4?$NcGiCommonDrawHostImpl@VNcGiViewportDrawNrx@@@@QEAAAEAV0@AEBV0@@Z
  ??4?$NcGiCommonDrawHostImpl@VNcGiWorldDraw@@@@QEAAAEAV0@AEBV0@@Z
  ??4AddictedModules@@QEAAAEAU0@$$QEAU0@@Z
  ??4AddictedModules@@QEAAAEAU0@AEBU0@@Z
  ??4BitonalModel@Ntil@@QEAAAEAV01@AEBV01@@Z
  ??4BmpFormatCodec@Ntil@@QEAAAEAV01@AEBV01@@Z
  ??4BoundingBox@Ntil@@QEAAAEAV01@AEBV01@@Z
  ??4CNcExtensionModule@@QEAAAEAV0@$$QEAV0@@Z
  ??4CNcExtensionModule@@QEAAAEAV0@AEBV0@@Z
  ??4CNcModuleResourceOverride@@QEAAAEAV0@AEBV0@@Z
  ??4CNsiApproxNum@@QEAAAEAV0@AEBV0@@Z
  ??4CNsiBinary@@QEAAAEAV0@AEBV0@@Z
  ??4CNsiBlob@@QEAAAEAV0@AEBV0@@Z
  ??4CNsiChar@@QEAAAEAV0@AEBV0@@Z
  ??4CNsiChar@@QEAAAEAV0@AEBVCNsiUcStr@@@Z
  ??4CNsiColumn@@QEAAAEAV0@AEBV0@@Z
  ??4CNsiColumn@@QEAAAEAV0@PEAVCNsiData@@@Z
  ??4CNsiDT@@QEAAAEAV0@AEBV0@@Z
  ??4CNsiDT@@QEAAAEAV0@AEBVCNsiDecimal@@@Z
  ??4CNsiDT@@QEAAAEAV0@AEBVCNsiInt@@@Z
  ??4CNsiDT@@QEAAAEAV0@AEBVCNsiNumeric@@@Z
  ??4CNsiDT@@QEAAAEAV0@AEBVCNsiSmallInt@@@Z
  ??4CNsiDT@@QEAAAEAV0@J@Z
  ??4CNsiData@@QEAAAEAV0@AEBV0@@Z
  ??4CNsiDate@@QEAAAEAV0@AEBV0@@Z
  ??4CNsiDatetime@@QEAAAEAV0@AEBV0@@Z
  ??4CNsiDecimal@@QEAAAEAV0@AEBV0@@Z
  ??4CNsiDecimal@@QEAAAEAV0@AEBVCNsiDouble@@@Z
  ??4CNsiDecimal@@QEAAAEAV0@AEBVCNsiFloat@@@Z
  ??4CNsiDecimal@@QEAAAEAV0@AEBVCNsiInt@@@Z
  ??4CNsiDecimal@@QEAAAEAV0@AEBVCNsiNumeric@@@Z
  ??4CNsiDecimal@@QEAAAEAV0@AEBVCNsiReal@@@Z
  ??4CNsiDecimal@@QEAAAEAV0@AEBVCNsiSmallInt@@@Z
  ??4CNsiDecimal@@QEAAAEAV0@F@Z
  ??4CNsiDecimal@@QEAAAEAV0@H@Z
  ??4CNsiDecimal@@QEAAAEAV0@J@Z
  ??4CNsiDecimal@@QEAAAEAV0@N@Z
  ??4CNsiDouble@@QEAAAEAV0@AEBV0@@Z
  ??4CNsiDouble@@QEAAAEAV0@AEBVCNsiDecimal@@@Z
  ??4CNsiDouble@@QEAAAEAV0@AEBVCNsiFloat@@@Z
  ??4CNsiDouble@@QEAAAEAV0@AEBVCNsiInt@@@Z
  ??4CNsiDouble@@QEAAAEAV0@AEBVCNsiNumeric@@@Z
  ??4CNsiDouble@@QEAAAEAV0@AEBVCNsiReal@@@Z
  ??4CNsiDouble@@QEAAAEAV0@AEBVCNsiSmallInt@@@Z
  ??4CNsiDouble@@QEAAAEAV0@F@Z
  ??4CNsiDouble@@QEAAAEAV0@H@Z
  ??4CNsiDouble@@QEAAAEAV0@J@Z
  ??4CNsiDouble@@QEAAAEAV0@N@Z
  ??4CNsiExactNum@@QEAAAEAV0@AEBV0@@Z
  ??4CNsiFloat@@QEAAAEAV0@AEBV0@@Z
  ??4CNsiFloat@@QEAAAEAV0@AEBVCNsiDecimal@@@Z
  ??4CNsiFloat@@QEAAAEAV0@AEBVCNsiDouble@@@Z
  ??4CNsiFloat@@QEAAAEAV0@AEBVCNsiInt@@@Z
  ??4CNsiFloat@@QEAAAEAV0@AEBVCNsiNumeric@@@Z
  ??4CNsiFloat@@QEAAAEAV0@AEBVCNsiReal@@@Z
  ??4CNsiFloat@@QEAAAEAV0@AEBVCNsiSmallInt@@@Z
  ??4CNsiFloat@@QEAAAEAV0@F@Z
  ??4CNsiFloat@@QEAAAEAV0@H@Z
  ??4CNsiFloat@@QEAAAEAV0@J@Z
  ??4CNsiFloat@@QEAAAEAV0@N@Z
  ??4CNsiHostBuffer@@QEAAAEAV0@AEBV0@@Z
  ??4CNsiIQualifier@@QEAAAEAV0@AEBV0@@Z
  ??4CNsiIRow@@QEAAAEAV0@AEBV0@@Z
  ??4CNsiIdent@@QEAAAEAV0@AEBV0@@Z
  ??4CNsiIdent@@QEAAAEAV0@AEBVCNsiUcStr@@@Z
  ??4CNsiInt@@QEAAAEAV0@AEBV0@@Z
  ??4CNsiInt@@QEAAAEAV0@AEBVCNsiDecimal@@@Z
  ??4CNsiInt@@QEAAAEAV0@AEBVCNsiDouble@@@Z
  ??4CNsiInt@@QEAAAEAV0@AEBVCNsiFloat@@@Z
  ??4CNsiInt@@QEAAAEAV0@AEBVCNsiNumeric@@@Z
  ??4CNsiInt@@QEAAAEAV0@AEBVCNsiReal@@@Z
  ??4CNsiInt@@QEAAAEAV0@AEBVCNsiSmallInt@@@Z
  ??4CNsiInt@@QEAAAEAV0@F@Z
  ??4CNsiInt@@QEAAAEAV0@H@Z
  ??4CNsiInt@@QEAAAEAV0@J@Z
  ??4CNsiInt@@QEAAAEAV0@N@Z
  ??4CNsiInterval@@QEAAAEAV0@AEBV0@@Z
  ??4CNsiList@@QEAAAEAV0@AEBV0@@Z
  ??4CNsiNum@@QEAAAEAV0@AEBV0@@Z
  ??4CNsiNumeric@@QEAAAEAV0@AEBV0@@Z
  ??4CNsiNumeric@@QEAAAEAV0@AEBVCNsiDecimal@@@Z
  ??4CNsiNumeric@@QEAAAEAV0@AEBVCNsiDouble@@@Z
  ??4CNsiNumeric@@QEAAAEAV0@AEBVCNsiFloat@@@Z
  ??4CNsiNumeric@@QEAAAEAV0@AEBVCNsiInt@@@Z
  ??4CNsiNumeric@@QEAAAEAV0@AEBVCNsiReal@@@Z
  ??4CNsiNumeric@@QEAAAEAV0@AEBVCNsiSmallInt@@@Z
  ??4CNsiNumeric@@QEAAAEAV0@F@Z
  ??4CNsiNumeric@@QEAAAEAV0@H@Z
  ??4CNsiNumeric@@QEAAAEAV0@J@Z
  ??4CNsiNumeric@@QEAAAEAV0@N@Z
  ??4CNsiObject@@QEAAAEAV0@AEBV0@@Z
  ??4CNsiParameter@@QEAAAEAV0@AEBV0@@Z
  ??4CNsiReal@@QEAAAEAV0@AEBV0@@Z
  ??4CNsiReal@@QEAAAEAV0@AEBVCNsiDecimal@@@Z
  ??4CNsiReal@@QEAAAEAV0@AEBVCNsiDouble@@@Z
  ??4CNsiReal@@QEAAAEAV0@AEBVCNsiFloat@@@Z
  ??4CNsiReal@@QEAAAEAV0@AEBVCNsiInt@@@Z
  ??4CNsiReal@@QEAAAEAV0@AEBVCNsiNumeric@@@Z
  ??4CNsiReal@@QEAAAEAV0@AEBVCNsiSmallInt@@@Z
  ??4CNsiReal@@QEAAAEAV0@F@Z
  ??4CNsiReal@@QEAAAEAV0@H@Z
  ??4CNsiReal@@QEAAAEAV0@J@Z
  ??4CNsiReal@@QEAAAEAV0@N@Z
  ??4CNsiRow@@QEAAAEAV0@AEBV0@@Z
  ??4CNsiSmallInt@@QEAAAEAV0@AEBV0@@Z
  ??4CNsiSmallInt@@QEAAAEAV0@AEBVCNsiDecimal@@@Z
  ??4CNsiSmallInt@@QEAAAEAV0@AEBVCNsiDouble@@@Z
  ??4CNsiSmallInt@@QEAAAEAV0@AEBVCNsiFloat@@@Z
  ??4CNsiSmallInt@@QEAAAEAV0@AEBVCNsiInt@@@Z
  ??4CNsiSmallInt@@QEAAAEAV0@AEBVCNsiNumeric@@@Z
  ??4CNsiSmallInt@@QEAAAEAV0@AEBVCNsiReal@@@Z
  ??4CNsiSmallInt@@QEAAAEAV0@F@Z
  ??4CNsiSmallInt@@QEAAAEAV0@H@Z
  ??4CNsiSmallInt@@QEAAAEAV0@J@Z
  ??4CNsiSmallInt@@QEAAAEAV0@N@Z
  ??4CNsiTime@@QEAAAEAV0@AEBV0@@Z
  ??4CNsiTimeStamp@@QEAAAEAV0@AEBV0@@Z
  ??4CNsiTimeStamp@@QEAAAEAV0@AEBVCNsiDate@@@Z
  ??4CNsiTimeStamp@@QEAAAEAV0@AEBVCNsiTime@@@Z
  ??4CNsiUcChar@@QEAAAEAV0@AEBV0@@Z
  ??4CNsiUcChar@@QEAAAEAV0@D@Z
  ??4CNsiUcChar@@QEAAAEAV0@_W@Z
  ??4CNsiUcStr@@QEAAAEAV0@AEBV0@@Z
  ??4CNsiUcStr@@QEAAAEAV0@PEBD@Z
  ??4CNsiUcStr@@QEAAAEAV0@PEBV0@@Z
  ??4CNsiUcStr@@QEAAAEAV0@QEA_W@Z
  ??4CNsiYM@@QEAAAEAV0@AEBV0@@Z
  ??4CNsiYM@@QEAAAEAV0@AEBVCNsiDecimal@@@Z
  ??4CNsiYM@@QEAAAEAV0@AEBVCNsiInt@@@Z
  ??4CNsiYM@@QEAAAEAV0@AEBVCNsiNumeric@@@Z
  ??4CNsiYM@@QEAAAEAV0@AEBVCNsiSmallInt@@@Z
  ??4CNsiYM@@QEAAAEAV0@J@Z
  ??4ColorModelInterface@Ntil@@QEAAAEAV01@AEBV01@@Z
  ??4DataBuffer@Ntil@@UEAAAEAV01@AEBV01@@Z
  ??4DataModel@Ntil@@IEAAAEAV01@AEBV01@@Z
  ??4DataModelAttributes@Ntil@@QEAAAEAV01@AEBV01@@Z
  ??4DataStreamInterface@Ntil@@QEAAAEAV01@AEBV01@@Z
  ??4DatabaseStorage@@QEAAAEAV0@AEBV0@@Z
  ??4DocumentStorage@@QEAAAEAV0@AEBV0@@Z
  ??4FileReadDescriptor@Ntil@@QEAAAEAV01@AEBV01@@Z
  ??4FileReadDescriptorRep@Ntil@@QEAAAEAV01@AEBV01@@Z
  ??4FileSpecifier@Ntil@@UEAAAEBV01@AEBV01@@Z
  ??4FileWriteDescriptor@Ntil@@QEAAAEAV01@AEBV01@@Z
  ??4FileWriteDescriptorRep@Ntil@@QEAAAEAV01@AEBV01@@Z
  ??4FormatCodecAssociation@Ntil@@QEAAAEAV01@AEBV01@@Z
  ??4FormatCodecBooleanProperty@Ntil@@QEAAAEAV01@AEBV01@@Z
  ??4FormatCodecColorProperty@Ntil@@QEAAAEAV01@AEBV01@@Z
  ??4FormatCodecDensity@Ntil@@QEAAAEAV01@AEBV01@@Z
  ??4FormatCodecDoubleProperty@Ntil@@QEAAAEAV01@AEBV01@@Z
  ??4FormatCodecExclusivePropertySetInterface@Ntil@@AEAAAEAV01@AEBV01@@Z
  ??4FormatCodecInclusivePropertySetInterface@Ntil@@AEAAAEAV01@AEBV01@@Z
  ??4FormatCodecIntProperty@Ntil@@QEAAAEAV01@AEBV01@@Z
  ??4FormatCodecPropertyInterface@Ntil@@IEAAAEAV01@AEBV01@@Z
  ??4FormatCodecPropertySetIterator@Ntil@@AEAAAEAV01@AEBV01@@Z
  ??4FormatCodecStringProperty@Ntil@@QEAAAEAV01@AEBV01@@Z
  ??4FormatCodecTransparency@Ntil@@QEAAAEAV01@AEBV01@@Z
  ??4INcPcDataBuffer@@QEAAAEAV0@AEBV0@@Z
  ??4INcPcIndexProgress@@QEAAAEAV0@$$QEAV0@@Z
  ??4INcPcIndexProgress@@QEAAAEAV0@AEBV0@@Z
  ??4INcPcPointFilter@@QEAAAEAV0@$$QEAV0@@Z
  ??4INcPcPointFilter@@QEAAAEAV0@AEBV0@@Z
  ??4INcPcPointProcessor@@QEAAAEAV0@$$QEAV0@@Z
  ??4INcPcPointProcessor@@QEAAAEAV0@AEBV0@@Z
  ??4Image@Ntil@@QEAAAEBV01@AEBV01@@Z
  ??4Image@Ntil@@QEAAAEBV01@PEAVRowProviderInterface@1@@Z
  ??4ImageConstructionException@Ntil@@QEAAAEAV01@AEBV01@@Z
  ??4ImageContext@Ntil@@QEAAAEAV01@AEBV01@@Z
  ??4ImageContextException@Ntil@@QEAAAEAV01@AEBV01@@Z
  ??4ImageContextRep@Ntil@@QEAAAEAV01@AEBV01@@Z
  ??4ImageException@Ntil@@QEAAAEAV01@AEBV01@@Z
  ??4ImageFilter@Ntil@@QEAAAEAV01@AEBV01@@Z
  ??4ImageFilterException@Ntil@@QEAAAEAV01@AEBV01@@Z
  ??4ImageFormatCodec@Ntil@@QEAAAEAV01@AEBV01@@Z
  ??4ImageFormatCodecStreamingInterface@Ntil@@QEAAAEAV01@AEBV01@@Z
  ??4ImagePixel@Ntil@@QEAAAEAU01@$$QEAU01@@Z
  ??4ImagePixel@Ntil@@QEAAAEAU01@AEBU01@@Z
  ??4ImageReactorInterface@Ntil@@QEAAAEAV01@AEBV01@@Z
  ??4ImageRep@Ntil@@QEAAAEAV01@AEBV01@@Z
  ??4ImageView@Ntil@@QEAAAEAV01@AEBV01@@Z
  ??4JfifFormatCodec@Ntil@@QEAAAEAV01@AEBV01@@Z
  ??4LoadModuleMonitor@@QEAAAEAV0@AEBV0@@Z
  ??4Matrix2d@Ntil@@QEAAAEAV01@AEBV01@@Z
  ??4NTILException@Ntil@@QEAAAEAV01@AEBV01@@Z
  ??4Nc3PointAngleConstraint@@QEAAAEAV0@$$QEAV0@@Z
  ??4Nc3PointAngleConstraint@@QEAAAEAV0@AEBV0@@Z
  ??4NcAngleConstraint@@QEAAAEAV0@$$QEAV0@@Z
  ??4NcAngleConstraint@@QEAAAEAV0@AEBV0@@Z
  ??4NcApDocManager@@QEAAAEAV0@AEBV0@@Z
  ??4NcApDocManagerReactor@@QEAAAEAV0@AEBV0@@Z
  ??4NcApDocument@@QEAAAEAV0@AEBV0@@Z
  ??4NcApDocumentIterator@@QEAAAEAV0@$$QEAV0@@Z
  ??4NcApDocumentIterator@@QEAAAEAV0@AEBV0@@Z
  ??4NcApLayoutManager@@QEAAAEAV0@$$QEAV0@@Z
  ??4NcApLayoutManager@@QEAAAEAV0@AEBV0@@Z
  ??4NcApLongTransactionManager@@QEAAAEAV0@$$QEAV0@@Z
  ??4NcApLongTransactionManager@@QEAAAEAV0@AEBV0@@Z
  ??4NcApLongTransactionReactor@@QEAAAEAV0@$$QEAV0@@Z
  ??4NcApLongTransactionReactor@@QEAAAEAV0@AEBV0@@Z
  ??4NcAutoConstrainEvaluationCallback@@QEAAAEAV0@$$QEAV0@@Z
  ??4NcAutoConstrainEvaluationCallback@@QEAAAEAV0@AEBV0@@Z
  ??4NcAxDocLock@@QEAAAEAV0@AEBV0@@Z
  ??4NcAxMatrix3d@@QEAAAEAV0@$$QEAV0@@Z
  ??4NcAxMatrix3d@@QEAAAEAV0@AEBUtagVARIANT@@@Z
  ??4NcAxMatrix3d@@QEAAAEAV0@AEBV0@@Z
  ??4NcAxMatrix3d@@QEAAAEAV0@PEBUtagSAFEARRAY@@@Z
  ??4NcAxMatrix3d@@QEAAAEAV0@PEBUtagVARIANT@@@Z
  ??4NcAxPoint2d@@QEAAAEAV0@$$QEAV0@@Z
  ??4NcAxPoint2d@@QEAAAEAV0@AEBUtagVARIANT@@@Z
  ??4NcAxPoint2d@@QEAAAEAV0@AEBV0@@Z
  ??4NcAxPoint2d@@QEAAAEAV0@AEBVMcGeVector2d@@@Z
  ??4NcAxPoint2d@@QEAAAEAV0@AEBVNcGePoint2d@@@Z
  ??4NcAxPoint2d@@QEAAAEAV0@PEBUtagSAFEARRAY@@@Z
  ??4NcAxPoint2d@@QEAAAEAV0@PEBUtagVARIANT@@@Z
  ??4NcAxPoint2dArray@@QEAAAEAV0@$$QEAV0@@Z
  ??4NcAxPoint2dArray@@QEAAAEAV0@AEBV0@@Z
  ??4NcAxPoint3d@@QEAAAEAV0@$$QEAV0@@Z
  ??4NcAxPoint3d@@QEAAAEAV0@AEBUtagVARIANT@@@Z
  ??4NcAxPoint3d@@QEAAAEAV0@AEBV0@@Z
  ??4NcAxPoint3d@@QEAAAEAV0@AEBVNcGePoint3d@@@Z
  ??4NcAxPoint3d@@QEAAAEAV0@AEBVNcGeVector3d@@@Z
  ??4NcAxPoint3d@@QEAAAEAV0@PEBUtagSAFEARRAY@@@Z
  ??4NcAxPoint3d@@QEAAAEAV0@PEBUtagVARIANT@@@Z
  ??4NcAxPoint3dArray@@QEAAAEAV0@$$QEAV0@@Z
  ??4NcAxPoint3dArray@@QEAAAEAV0@AEBV0@@Z
  ??4NcBaseObjectPtr@@QEAAAEAV0@$$QEAV0@@Z
  ??4NcBaseObjectPtr@@QEAAAEAV0@AEBV0@@Z
  ??4NcBrBrep@@QEAAAEAV0@AEBV0@@Z
  ??4NcBrBrepComplexTraverser@@QEAAAEAV0@AEBV0@@Z
  ??4NcBrBrepEdgeTraverser@@QEAAAEAV0@AEBV0@@Z
  ??4NcBrBrepFaceTraverser@@QEAAAEAV0@AEBV0@@Z
  ??4NcBrBrepShellTraverser@@QEAAAEAV0@AEBV0@@Z
  ??4NcBrBrepVertexTraverser@@QEAAAEAV0@AEBV0@@Z
  ??4NcBrComplex@@QEAAAEAV0@AEBV0@@Z
  ??4NcBrComplexShellTraverser@@QEAAAEAV0@AEBV0@@Z
  ??4NcBrEdge@@QEAAAEAV0@AEBV0@@Z
  ??4NcBrEdgeLoopTraverser@@QEAAAEAV0@AEBV0@@Z
  ??4NcBrElement2d@@QEAAAEAV0@AEBV0@@Z
  ??4NcBrElement2dNodeTraverser@@QEAAAEAV0@AEBV0@@Z
  ??4NcBrElement@@IEAAAEAV0@AEBV0@@Z
  ??4NcBrEntity@@IEAAAEAV0@AEBV0@@Z
  ??4NcBrFace@@QEAAAEAV0@AEBV0@@Z
  ??4NcBrFaceLoopTraverser@@QEAAAEAV0@AEBV0@@Z
  ??4NcBrHit@@QEAAAEAV0@AEBV0@@Z
  ??4NcBrLoop@@QEAAAEAV0@AEBV0@@Z
  ??4NcBrLoopEdgeTraverser@@QEAAAEAV0@AEBV0@@Z
  ??4NcBrLoopVertexTraverser@@QEAAAEAV0@AEBV0@@Z
  ??4NcBrMesh2d@@QEAAAEAV0@AEBV0@@Z
  ??4NcBrMesh2dControl@@QEAAAEAV0@AEBV0@@Z
  ??4NcBrMesh2dElement2dTraverser@@QEAAAEAV0@AEBV0@@Z
  ??4NcBrMesh2dFilter@@AEAAAEAV0@AEBV0@@Z
  ??4NcBrMesh@@IEAAAEAV0@AEBV0@@Z
  ??4NcBrMeshControl@@IEAAAEAV0@AEBV0@@Z
  ??4NcBrMeshEntity@@IEAAAEAV0@AEBV0@@Z
  ??4NcBrNode@@QEAAAEAV0@AEBV0@@Z
  ??4NcBrShell@@QEAAAEAV0@AEBV0@@Z
  ??4NcBrShellFaceTraverser@@QEAAAEAV0@AEBV0@@Z
  ??4NcBrTraverser@@IEAAAEAV0@AEBV0@@Z
  ??4NcBrVertex@@QEAAAEAV0@AEBV0@@Z
  ??4NcBrVertexEdgeTraverser@@QEAAAEAV0@AEBV0@@Z
  ??4NcBrVertexLoopTraverser@@QEAAAEAV0@AEBV0@@Z
  ??4NcCenterPointConstraint@@QEAAAEAV0@$$QEAV0@@Z
  ??4NcCenterPointConstraint@@QEAAAEAV0@AEBV0@@Z
  ??4NcCmColor@@QEAAAEAV0@$$QEAV0@@Z
  ??4NcCmColor@@QEAAAEAV0@AEBV0@@Z
  ??4NcCmColor@@QEAAAEAV0@AEBVNcCmColorBase@@@Z
  ??4NcCmColorBase@@QEAAAEAV0@AEBV0@@Z
  ??4NcCmComplexColor@@QEAAAEAV0@$$QEAV0@@Z
  ??4NcCmComplexColor@@QEAAAEAV0@AEBV0@@Z
  ??4NcCmEntityColor@@QEAAAEAV0@AEBV0@@Z
  ??4NcCmEntityColor@@QEAAAEAV0@AEBVOdCmEntityColor@@@Z
  ??4NcCmTransparency@@QEAAAEAV0@$$QEAV0@@Z
  ??4NcCmTransparency@@QEAAAEAV0@AEBV0@@Z
  ??4NcColinearConstraint@@QEAAAEAV0@$$QEAV0@@Z
  ??4NcColinearConstraint@@QEAAAEAV0@AEBV0@@Z
  ??4NcCompositeConstraint@@QEAAAEAV0@$$QEAV0@@Z
  ??4NcCompositeConstraint@@QEAAAEAV0@AEBV0@@Z
  ??4NcConcentricConstraint@@QEAAAEAV0@$$QEAV0@@Z
  ??4NcConcentricConstraint@@QEAAAEAV0@AEBV0@@Z
  ??4NcConstrained2PointsConstructionLine@@QEAAAEAV0@$$QEAV0@@Z
  ??4NcConstrained2PointsConstructionLine@@QEAAAEAV0@AEBV0@@Z
  ??4NcConstrainedArc@@QEAAAEAV0@$$QEAV0@@Z
  ??4NcConstrainedArc@@QEAAAEAV0@AEBV0@@Z
  ??4NcConstrainedBoundedEllipse@@QEAAAEAV0@$$QEAV0@@Z
  ??4NcConstrainedBoundedEllipse@@QEAAAEAV0@AEBV0@@Z
  ??4NcConstrainedBoundedLine@@QEAAAEAV0@$$QEAV0@@Z
  ??4NcConstrainedBoundedLine@@QEAAAEAV0@AEBV0@@Z
  ??4NcConstrainedCircle@@QEAAAEAV0@$$QEAV0@@Z
  ??4NcConstrainedCircle@@QEAAAEAV0@AEBV0@@Z
  ??4NcConstrainedConstructionLine@@QEAAAEAV0@$$QEAV0@@Z
  ??4NcConstrainedConstructionLine@@QEAAAEAV0@AEBV0@@Z
  ??4NcConstrainedCurve@@QEAAAEAV0@$$QEAV0@@Z
  ??4NcConstrainedCurve@@QEAAAEAV0@AEBV0@@Z
  ??4NcConstrainedDatumLine@@QEAAAEAV0@$$QEAV0@@Z
  ??4NcConstrainedDatumLine@@QEAAAEAV0@AEBV0@@Z
  ??4NcConstrainedEllipse@@QEAAAEAV0@$$QEAV0@@Z
  ??4NcConstrainedEllipse@@QEAAAEAV0@AEBV0@@Z
  ??4NcConstrainedGeometry@@QEAAAEAV0@$$QEAV0@@Z
  ??4NcConstrainedGeometry@@QEAAAEAV0@AEBV0@@Z
  ??4NcConstrainedImplicitPoint@@QEAAAEAV0@$$QEAV0@@Z
  ??4NcConstrainedImplicitPoint@@QEAAAEAV0@AEBV0@@Z
  ??4NcConstrainedLine@@QEAAAEAV0@$$QEAV0@@Z
  ??4NcConstrainedLine@@QEAAAEAV0@AEBV0@@Z
  ??4NcConstrainedPoint@@QEAAAEAV0@$$QEAV0@@Z
  ??4NcConstrainedPoint@@QEAAAEAV0@AEBV0@@Z
  ??4NcConstrainedRigidSet@@QEAAAEAV0@$$QEAV0@@Z
  ??4NcConstrainedRigidSet@@QEAAAEAV0@AEBV0@@Z
  ??4NcConstrainedSpline@@QEAAAEAV0@$$QEAV0@@Z
  ??4NcConstrainedSpline@@QEAAAEAV0@AEBV0@@Z
  ??4NcConstraintGroupNode@@QEAAAEAV0@AEBV0@@Z
  ??4NcDb2LineAngularDimension@@QEAAAEAV0@$$QEAV0@@Z
  ??4NcDb2LineAngularDimension@@QEAAAEAV0@AEBV0@@Z
  ??4NcDb2dPolyline@@QEAAAEAV0@AEBV0@@Z
  ??4NcDb2dVertex@@QEAAAEAV0@$$QEAV0@@Z
  ??4NcDb2dVertex@@QEAAAEAV0@AEBV0@@Z
  ??4NcDb3PointAngularDimension@@QEAAAEAV0@$$QEAV0@@Z
  ??4NcDb3PointAngularDimension@@QEAAAEAV0@AEBV0@@Z
  ??4NcDb3dPolyline@@QEAAAEAV0@AEBV0@@Z
  ??4NcDb3dPolylineVertex@@QEAAAEAV0@$$QEAV0@@Z
  ??4NcDb3dPolylineVertex@@QEAAAEAV0@AEBV0@@Z
  ??4NcDb3dProfile@@QEAAAEAV0@AEBV0@@Z
  ??4NcDb3dSolid@@QEAAAEAV0@$$QEAV0@@Z
  ??4NcDb3dSolid@@QEAAAEAV0@AEBV0@@Z
  ??4NcDbAbstractViewTable@@QEAAAEAV0@$$QEAV0@@Z
  ??4NcDbAbstractViewTable@@QEAAAEAV0@AEBV0@@Z
  ??4NcDbAbstractViewTableIterator@@QEAAAEAV0@$$QEAV0@@Z
  ??4NcDbAbstractViewTableIterator@@QEAAAEAV0@AEBV0@@Z
  ??4NcDbAbstractViewTableRecord@@QEAAAEAV0@$$QEAV0@@Z
  ??4NcDbAbstractViewTableRecord@@QEAAAEAV0@AEBV0@@Z
  ??4NcDbActionsToEvaluateCallback@@QEAAAEAV0@AEBV0@@Z
  ??4NcDbAlignedDimension@@QEAAAEAV0@$$QEAV0@@Z
  ??4NcDbAlignedDimension@@QEAAAEAV0@AEBV0@@Z
  ??4NcDbAlignment@@QEAAAEAV0@$$QEAV0@@Z
  ??4NcDbAlignment@@QEAAAEAV0@AEBV0@@Z
  ??4NcDbAnnotationScale@@QEAAAEAV0@AEBV0@@Z
  ??4NcDbAnnotationScaleReactor@@QEAAAEAV0@$$QEAV0@@Z
  ??4NcDbAnnotationScaleReactor@@QEAAAEAV0@AEBV0@@Z
  ??4NcDbAnnotativeObjectPE@@QEAAAEAV0@$$QEAV0@@Z
  ??4NcDbAnnotativeObjectPE@@QEAAAEAV0@AEBV0@@Z
  ??4NcDbAppEntityGrips@@QEAAAEAV0@$$QEAV0@@Z
  ??4NcDbAppEntityGrips@@QEAAAEAV0@AEBV0@@Z
  ??4NcDbAppSystemVariables@@QEAAAEAV0@AEBV0@@Z
  ??4NcDbArc@@QEAAAEAV0@$$QEAV0@@Z
  ??4NcDbArc@@QEAAAEAV0@AEBV0@@Z
  ??4NcDbArcDimension@@QEAAAEAV0@$$QEAV0@@Z
  ??4NcDbArcDimension@@QEAAAEAV0@AEBV0@@Z
  ??4NcDbAssoc2dConstraintGroup@@QEAAAEAV0@$$QEAV0@@Z
  ??4NcDbAssoc2dConstraintGroup@@QEAAAEAV0@AEBV0@@Z
  ??4NcDbAssocAction@@QEAAAEAV0@$$QEAV0@@Z
  ??4NcDbAssocAction@@QEAAAEAV0@AEBV0@@Z
  ??4NcDbAssocActionBody@@QEAAAEAV0@AEBV0@@Z
  ??4NcDbAssocActionParam@@QEAAAEAV0@$$QEAV0@@Z
  ??4NcDbAssocActionParam@@QEAAAEAV0@AEBV0@@Z
  ??4NcDbAssocAsmBodyActionParam@@QEAAAEAV0@$$QEAV0@@Z
  ??4NcDbAssocAsmBodyActionParam@@QEAAAEAV0@AEBV0@@Z
  ??4NcDbAssocBlendSurfaceActionBody@@QEAAAEAV0@$$QEAV0@@Z
  ??4NcDbAssocBlendSurfaceActionBody@@QEAAAEAV0@AEBV0@@Z
  ??4NcDbAssocCompoundActionParam@@QEAAAEAV0@$$QEAV0@@Z
  ??4NcDbAssocCompoundActionParam@@QEAAAEAV0@AEBV0@@Z
  ??4NcDbAssocDependency@@QEAAAEAV0@$$QEAV0@@Z
  ??4NcDbAssocDependency@@QEAAAEAV0@AEBV0@@Z
  ??4NcDbAssocDependencyBody@@QEAAAEAV0@AEBV0@@Z
  ??4NcDbAssocDependencyNotificationDisabler@@QEAAAEAV0@AEBV0@@Z
  ??4NcDbAssocDependencyPE@@QEAAAEAV0@$$QEAV0@@Z
  ??4NcDbAssocDependencyPE@@QEAAAEAV0@AEBV0@@Z
  ??4NcDbAssocDimDependencyBody@@QEAAAEAV0@AEBV0@@Z
  ??4NcDbAssocDimDependencyBodyBase@@QEAAAEAV0@AEBV0@@Z
  ??4NcDbAssocEdgeActionParam@@QEAAAEAV0@$$QEAV0@@Z
  ??4NcDbAssocEdgeActionParam@@QEAAAEAV0@AEBV0@@Z
  ??4NcDbAssocEdgeChamferActionBody@@QEAAAEAV0@$$QEAV0@@Z
  ??4NcDbAssocEdgeChamferActionBody@@QEAAAEAV0@AEBV0@@Z
  ??4NcDbAssocEdgeFilletActionBody@@QEAAAEAV0@$$QEAV0@@Z
  ??4NcDbAssocEdgeFilletActionBody@@QEAAAEAV0@AEBV0@@Z
  ??4NcDbAssocEdgePersSubentId@@QEAAAEAV0@$$QEAV0@@Z
  ??4NcDbAssocEdgePersSubentId@@QEAAAEAV0@AEBV0@@Z
  ??4NcDbAssocEvaluationCallback@@QEAAAEAV0@AEBV0@@Z
  ??4NcDbAssocExtendSurfaceActionBody@@QEAAAEAV0@$$QEAV0@@Z
  ??4NcDbAssocExtendSurfaceActionBody@@QEAAAEAV0@AEBV0@@Z
  ??4NcDbAssocExtrudedSurfaceActionBody@@QEAAAEAV0@$$QEAV0@@Z
  ??4NcDbAssocExtrudedSurfaceActionBody@@QEAAAEAV0@AEBV0@@Z
  ??4NcDbAssocFaceActionParam@@QEAAAEAV0@$$QEAV0@@Z
  ??4NcDbAssocFaceActionParam@@QEAAAEAV0@AEBV0@@Z
  ??4NcDbAssocGeomDependency@@QEAAAEAV0@$$QEAV0@@Z
  ??4NcDbAssocGeomDependency@@QEAAAEAV0@AEBV0@@Z
  ??4NcDbAssocLoftedSurfaceActionBody@@QEAAAEAV0@$$QEAV0@@Z
  ??4NcDbAssocLoftedSurfaceActionBody@@QEAAAEAV0@AEBV0@@Z
  ??4NcDbAssocManager@@QEAAAEAV0@$$QEAV0@@Z
  ??4NcDbAssocManager@@QEAAAEAV0@AEBV0@@Z
  ??4NcDbAssocNetwork@@QEAAAEAV0@$$QEAV0@@Z
  ??4NcDbAssocNetwork@@QEAAAEAV0@AEBV0@@Z
  ??4NcDbAssocNetworkEvaluationDisabler@@QEAAAEAV0@AEBV0@@Z
  ??4NcDbAssocNetworkSurfaceActionBody@@QEAAAEAV0@$$QEAV0@@Z
  ??4NcDbAssocNetworkSurfaceActionBody@@QEAAAEAV0@AEBV0@@Z
  ??4NcDbAssocOffsetSurfaceActionBody@@QEAAAEAV0@$$QEAV0@@Z
  ??4NcDbAssocOffsetSurfaceActionBody@@QEAAAEAV0@AEBV0@@Z
  ??4NcDbAssocParamBasedActionBody@@QEAAAEAV0@$$QEAV0@@Z
  ??4NcDbAssocParamBasedActionBody@@QEAAAEAV0@AEBV0@@Z
  ??4NcDbAssocPatchSurfaceActionBody@@QEAAAEAV0@$$QEAV0@@Z
  ??4NcDbAssocPatchSurfaceActionBody@@QEAAAEAV0@AEBV0@@Z
  ??4NcDbAssocPathActionParam@@QEAAAEAV0@$$QEAV0@@Z
  ??4NcDbAssocPathActionParam@@QEAAAEAV0@AEBV0@@Z
  ??4NcDbAssocPathBasedSurfaceActionBody@@QEAAAEAV0@$$QEAV0@@Z
  ??4NcDbAssocPathBasedSurfaceActionBody@@QEAAAEAV0@AEBV0@@Z
  ??4NcDbAssocPersSubentId@@QEAAAEAV0@AEBV0@@Z
  ??4NcDbAssocPersSubentIdPE@@QEAAAEAV0@$$QEAV0@@Z
  ??4NcDbAssocPersSubentIdPE@@QEAAAEAV0@AEBV0@@Z
  ??4NcDbAssocPlaneSurfaceActionBody@@QEAAAEAV0@$$QEAV0@@Z
  ??4NcDbAssocPlaneSurfaceActionBody@@QEAAAEAV0@AEBV0@@Z
  ??4NcDbAssocRevolvedSurfaceActionBody@@QEAAAEAV0@$$QEAV0@@Z
  ??4NcDbAssocRevolvedSurfaceActionBody@@QEAAAEAV0@AEBV0@@Z
  ??4NcDbAssocSimplePersSubentId@@QEAAAEAV0@$$QEAV0@@Z
  ??4NcDbAssocSimplePersSubentId@@QEAAAEAV0@AEBV0@@Z
  ??4NcDbAssocSingleEdgePersSubentId@@QEAAAEAV0@$$QEAV0@@Z
  ??4NcDbAssocSingleEdgePersSubentId@@QEAAAEAV0@AEBV0@@Z
  ??4NcDbAssocSurfaceActionBody@@QEAAAEAV0@$$QEAV0@@Z
  ??4NcDbAssocSurfaceActionBody@@QEAAAEAV0@AEBV0@@Z
  ??4NcDbAssocSweptSurfaceActionBody@@QEAAAEAV0@$$QEAV0@@Z
  ??4NcDbAssocSweptSurfaceActionBody@@QEAAAEAV0@AEBV0@@Z
  ??4NcDbAssocTrimSurfaceActionBody@@QEAAAEAV0@$$QEAV0@@Z
  ??4NcDbAssocTrimSurfaceActionBody@@QEAAAEAV0@AEBV0@@Z
  ??4NcDbAssocValueDependency@@QEAAAEAV0@$$QEAV0@@Z
  ??4NcDbAssocValueDependency@@QEAAAEAV0@AEBV0@@Z
  ??4NcDbAssocValueProviderPE@@QEAAAEAV0@$$QEAV0@@Z
  ??4NcDbAssocValueProviderPE@@QEAAAEAV0@AEBV0@@Z
  ??4NcDbAssocVariable@@QEAAAEAV0@$$QEAV0@@Z
  ??4NcDbAssocVariable@@QEAAAEAV0@AEBV0@@Z
  ??4NcDbAssocVertexActionParam@@QEAAAEAV0@$$QEAV0@@Z
  ??4NcDbAssocVertexActionParam@@QEAAAEAV0@AEBV0@@Z
  ??4NcDbAttribute@@QEAAAEAV0@AEBV0@@Z
  ??4NcDbAttributeDefinition@@QEAAAEAV0@$$QEAV0@@Z
  ??4NcDbAttributeDefinition@@QEAAAEAV0@AEBV0@@Z
  ??4NcDbAuditInfo@@QEAAAEAV0@AEBV0@@Z
  ??4NcDbAuditRecreatePE@@QEAAAEAV0@$$QEAV0@@Z
  ??4NcDbAuditRecreatePE@@QEAAAEAV0@AEBV0@@Z
  ??4NcDbBackground@@QEAAAEAV0@AEBV0@@Z
  ??4NcDbBlendOptions@@QEAAAEAV0@AEBV0@@Z
  ??4NcDbBlockBegin@@QEAAAEAV0@$$QEAV0@@Z
  ??4NcDbBlockBegin@@QEAAAEAV0@AEBV0@@Z
  ??4NcDbBlockChangeIterator@@QEAAAEAV0@AEBV0@@Z
  ??4NcDbBlockEnd@@QEAAAEAV0@$$QEAV0@@Z
  ??4NcDbBlockEnd@@QEAAAEAV0@AEBV0@@Z
  ??4NcDbBlockInsertionPoints@@QEAAAEAV0@$$QEAV0@@Z
  ??4NcDbBlockInsertionPoints@@QEAAAEAV0@AEBV0@@Z
  ??4NcDbBlockReference@@QEAAAEAV0@$$QEAV0@@Z
  ??4NcDbBlockReference@@QEAAAEAV0@AEBV0@@Z
  ??4NcDbBlockReferenceIdIterator@@QEAAAEAV0@AEBV0@@Z
  ??4NcDbBlockTable@@QEAAAEAV0@$$QEAV0@@Z
  ??4NcDbBlockTable@@QEAAAEAV0@AEBV0@@Z
  ??4NcDbBlockTableIterator@@QEAAAEAV0@$$QEAV0@@Z
  ??4NcDbBlockTableIterator@@QEAAAEAV0@AEBV0@@Z
  ??4NcDbBlockTableRecord@@QEAAAEAV0@AEBV0@@Z
  ??4NcDbBlockTableRecordIterator@@QEAAAEAV0@AEBV0@@Z
  ??4NcDbBody@@QEAAAEAV0@$$QEAV0@@Z
  ??4NcDbBody@@QEAAAEAV0@AEBV0@@Z
  ??4NcDbBreakData@@QEAAAEAV0@AEBV0@@Z
  ??4NcDbBreakPointRef@@QEAAAEAV0@AEBV0@@Z
  ??4NcDbCamera@@QEAAAEAV0@AEBV0@@Z
  ??4NcDbCircle@@QEAAAEAV0@$$QEAV0@@Z
  ??4NcDbCircle@@QEAAAEAV0@AEBV0@@Z
  ??4NcDbClassIterator@@QEAAAEAV0@AEBV0@@Z
  ??4NcDbColor@@QEAAAEAV0@AEBV0@@Z
  ??4NcDbCompositeFilteredBlockIterator@@QEAAAEAV0@AEBV0@@Z
  ??4NcDbCompoundObjectId@@QEAAAEAV0@AEBV0@@Z
  ??4NcDbCompoundObjectId@@QEAAAEAV0@AEBVNcDbObjectId@@@Z
  ??4NcDbCurve@@QEAAAEAV0@$$QEAV0@@Z
  ??4NcDbCurve@@QEAAAEAV0@AEBV0@@Z
  ??4NcDbCurvePath@@QEAAAEAV0@AEBV0@@Z
  ??4NcDbCustomOsnapInfo@@QEAAAEAV0@$$QEAV0@@Z
  ??4NcDbCustomOsnapInfo@@QEAAAEAV0@AEBV0@@Z
  ??4NcDbCustomOsnapMode2@@QEAAAEAV0@$$QEAV0@@Z
  ??4NcDbCustomOsnapMode2@@QEAAAEAV0@AEBV0@@Z
  ??4NcDbCustomOsnapMode@@QEAAAEAV0@AEBV0@@Z
  ??4NcDbDataCell@@UEAAAEAV0@AEBV0@@Z
  ??4NcDbDataCell@@UEAAAEAV0@AEBVNcDbHardOwnershipId@@@Z
  ??4NcDbDataCell@@UEAAAEAV0@AEBVNcDbHardPointerId@@@Z
  ??4NcDbDataCell@@UEAAAEAV0@AEBVNcDbObjectId@@@Z
  ??4NcDbDataCell@@UEAAAEAV0@AEBVNcDbSoftOwnershipId@@@Z
  ??4NcDbDataCell@@UEAAAEAV0@AEBVNcDbSoftPointerId@@@Z
  ??4NcDbDataCell@@UEAAAEAV0@AEBVNcGePoint3d@@@Z
  ??4NcDbDataCell@@UEAAAEAV0@AEBVNcGeVector3d@@@Z
  ??4NcDbDataCell@@UEAAAEAV0@H@Z
  ??4NcDbDataCell@@UEAAAEAV0@N@Z
  ??4NcDbDataCell@@UEAAAEAV0@PEB_W@Z
  ??4NcDbDataCell@@UEAAAEAV0@_N@Z
  ??4NcDbDataColumn@@UEAAAEAV0@AEBV0@@Z
  ??4NcDbDataTable@@UEAAAEAV0@AEBV0@@Z
  ??4NcDbDatabase@@QEAAAEAV0@AEBV0@@Z
  ??4NcDbDatabaseReactor@@QEAAAEAV0@$$QEAV0@@Z
  ??4NcDbDatabaseReactor@@QEAAAEAV0@AEBV0@@Z
  ??4NcDbDatabaseSummaryInfo@@QEAAAEAV0@AEBV0@@Z
  ??4NcDbDate@@QEAAAEBV0@AEBV0@@Z
  ??4NcDbDate@@QEAAAEBV0@PEBVOdDbDate@@@Z
  ??4NcDbDeepCloneFiler@@QEAAAEAV0@AEBV0@@Z
  ??4NcDbDgnDefinition@@QEAAAEAV0@AEBV0@@Z
  ??4NcDbDgnRefFileData@@QEAAAEAV0@$$QEAV0@@Z
  ??4NcDbDgnRefFileData@@QEAAAEAV0@AEBV0@@Z
  ??4NcDbDgnRefFileRepath@@QEAAAEAV0@AEBV0@@Z
  ??4NcDbDgnReference@@QEAAAEAV0@AEBV0@@Z
  ??4NcDbDgnUnderlayItem@@QEAAAEAV0@$$QEAV0@@Z
  ??4NcDbDgnUnderlayItem@@QEAAAEAV0@AEBV0@@Z
  ??4NcDbDiametricDimension@@QEAAAEAV0@$$QEAV0@@Z
  ??4NcDbDiametricDimension@@QEAAAEAV0@AEBV0@@Z
  ??4NcDbDictionary@@QEAAAEAV0@$$QEAV0@@Z
  ??4NcDbDictionary@@QEAAAEAV0@AEBV0@@Z
  ??4NcDbDictionaryIterator@@QEAAAEAV0@$$QEAV0@@Z
  ??4NcDbDictionaryIterator@@QEAAAEAV0@AEBV0@@Z
  ??4NcDbDictionaryWithDefault@@QEAAAEAV0@$$QEAV0@@Z
  ??4NcDbDictionaryWithDefault@@QEAAAEAV0@AEBV0@@Z
  ??4NcDbDimAssoc@@QEAAAEAV0@AEBV0@@Z
  ??4NcDbDimData@@QEAAAEAV0@AEBV0@@Z
  ??4NcDbDimStyleTable@@QEAAAEAV0@$$QEAV0@@Z
  ??4NcDbDimStyleTable@@QEAAAEAV0@AEBV0@@Z
  ??4NcDbDimStyleTableIterator@@QEAAAEAV0@$$QEAV0@@Z
  ??4NcDbDimStyleTableIterator@@QEAAAEAV0@AEBV0@@Z
  ??4NcDbDimStyleTableRecord@@QEAAAEAV0@$$QEAV0@@Z
  ??4NcDbDimStyleTableRecord@@QEAAAEAV0@AEBV0@@Z
  ??4NcDbDimension@@QEAAAEAV0@$$QEAV0@@Z
  ??4NcDbDimension@@QEAAAEAV0@AEBV0@@Z
  ??4NcDbDimensionStyleOverrule@@QEAAAEAV0@$$QEAV0@@Z
  ??4NcDbDimensionStyleOverrule@@QEAAAEAV0@AEBV0@@Z
  ??4NcDbDisableAnnoAutoScale@@QEAAAEAV0@AEBV0@@Z
  ??4NcDbDoubleClickEdit@@QEAAAEAV0@$$QEAV0@@Z
  ??4NcDbDoubleClickEdit@@QEAAAEAV0@AEBV0@@Z
  ??4NcDbDwfDefinition@@QEAAAEAV0@AEBV0@@Z
  ??4NcDbDwfReference@@QEAAAEAV0@AEBV0@@Z
  ??4NcDbDwgFiler@@QEAAAEAV0@AEBV0@@Z
  ??4NcDbDxfFiler@@QEAAAEAV0@$$QEAV0@@Z
  ??4NcDbDxfFiler@@QEAAAEAV0@AEBV0@@Z
  ??4NcDbDynBlockReference@@QEAAAEAV0@AEBV0@@Z
  ??4NcDbDynBlockReferenceProperty@@QEAAAEAV0@AEBV0@@Z
  ??4NcDbDynamicUCSPE@@QEAAAEAV0@$$QEAV0@@Z
  ??4NcDbDynamicUCSPE@@QEAAAEAV0@AEBV0@@Z
  ??4NcDbEdgeRef@@QEAAAEAV0@AEBV0@@Z
  ??4NcDbEllipse@@QEAAAEAV0@$$QEAV0@@Z
  ??4NcDbEllipse@@QEAAAEAV0@AEBV0@@Z
  ??4NcDbEntity@@QEAAAEAV0@AEBV0@@Z
  ??4NcDbEntityHyperlinkPE@@QEAAAEAV0@$$QEAV0@@Z
  ??4NcDbEntityHyperlinkPE@@QEAAAEAV0@AEBV0@@Z
  ??4NcDbEntityReactor@@QEAAAEAV0@$$QEAV0@@Z
  ??4NcDbEntityReactor@@QEAAAEAV0@AEBV0@@Z
  ??4NcDbEvalConnectable@@QEAAAEAV0@AEBV0@@Z
  ??4NcDbEvalContext@@QEAAAEAV0@AEBV0@@Z
  ??4NcDbEvalContextIterator@@QEAAAEAV0@AEBV0@@Z
  ??4NcDbEvalContextPair@@QEAAAEAV0@AEBV0@@Z
  ??4NcDbEvalEdgeInfo@@QEAAAEAV0@$$QEAV0@@Z
  ??4NcDbEvalEdgeInfo@@QEAAAEAV0@AEBV0@@Z
  ??4NcDbEvalExpr@@QEAAAEAV0@AEBV0@@Z
  ??4NcDbEvalGraph@@QEAAAEAV0@AEBV0@@Z
  ??4NcDbEvalVariant@@QEAAAEAV0@AEBN@Z
  ??4NcDbEvalVariant@@QEAAAEAV0@AEBUresbuf@@@Z
  ??4NcDbEvalVariant@@QEAAAEAV0@AEBV0@@Z
  ??4NcDbEvalVariant@@QEAAAEAV0@AEBVNcDbObjectId@@@Z
  ??4NcDbEvalVariant@@QEAAAEAV0@AEBVNcGePoint2d@@@Z
  ??4NcDbEvalVariant@@QEAAAEAV0@AEBVNcGePoint3d@@@Z
  ??4NcDbEvalVariant@@QEAAAEAV0@F@Z
  ??4NcDbEvalVariant@@QEAAAEAV0@J@Z
  ??4NcDbEvalVariant@@QEAAAEAV0@PEB_W@Z
  ??4NcDbExtents@@QEAAAEAV0@AEBV0@@Z
  ??4NcDbExtrudedSurface@@QEAAAEAV0@AEBV0@@Z
  ??4NcDbFace@@QEAAAEAV0@$$QEAV0@@Z
  ??4NcDbFace@@QEAAAEAV0@AEBV0@@Z
  ??4NcDbFaceRecord@@QEAAAEAV0@$$QEAV0@@Z
  ??4NcDbFaceRecord@@QEAAAEAV0@AEBV0@@Z
  ??4NcDbFaceRef@@QEAAAEAV0@AEBV0@@Z
  ??4NcDbFcf@@QEAAAEAV0@AEBV0@@Z
  ??4NcDbFilter@@QEAAAEAV0@AEBV0@@Z
  ??4NcDbFilteredBlockIterator@@QEAAAEAV0@AEBV0@@Z
  ??4NcDbFormattedTableData@@QEAAAEAV0@AEBV0@@Z
  ??4NcDbFrame@@QEAAAEAV0@AEBV0@@Z
  ??4NcDbFullSubentPath@@QEAAAEAV0@AEBV0@@Z
  ??4NcDbGeomRef@@QEAAAEAV0@AEBV0@@Z
  ??4NcDbGeometryOverrule@@QEAAAEAV0@AEBV0@@Z
  ??4NcDbGradientBackground@@QEAAAEAV0@AEBV0@@Z
  ??4NcDbGraph@@AEAAAEAV0@AEBV0@@Z
  ??4NcDbGraphNode@@AEAAAEAV0@AEBV0@@Z
  ??4NcDbGraphStack@@QEAAAEAV0@AEBV0@@Z
  ??4NcDbGripData@@QEAAAEAV0@AEBV0@@Z
  ??4NcDbGripOverrule@@QEAAAEAV0@$$QEAV0@@Z
  ??4NcDbGripOverrule@@QEAAAEAV0@AEBV0@@Z
  ??4NcDbGroundPlaneBackground@@QEAAAEAV0@AEBV0@@Z
  ??4NcDbGroup@@QEAAAEAV0@$$QEAV0@@Z
  ??4NcDbGroup@@QEAAAEAV0@AEBV0@@Z
  ??4NcDbGroupIterator@@QEAAAEAV0@$$QEAV0@@Z
  ??4NcDbGroupIterator@@QEAAAEAV0@AEBV0@@Z
  ??4NcDbHandle@@QEAAAEAV0@AEBV0@@Z
  ??4NcDbHandle@@QEAAAEAV0@PEB_W@Z
  ??4NcDbHandle@@QEAAAEAV0@_K@Z
  ??4NcDbHardOwnershipId@@QEAAAEAV0@AEBV0@@Z
  ??4NcDbHardOwnershipId@@QEAAAEAV0@AEBVNcDbObjectId@@@Z
  ??4NcDbHardOwnershipId@@QEAAAEAV0@PEBVOdDbStub@@@Z
  ??4NcDbHardPointerId@@QEAAAEAV0@AEBV0@@Z
  ??4NcDbHardPointerId@@QEAAAEAV0@AEBVNcDbObjectId@@@Z
  ??4NcDbHardPointerId@@QEAAAEAV0@PEBVOdDbStub@@@Z
  ??4NcDbHatch@@QEAAAEAV0@AEBV0@@Z
  ??4NcDbHelix@@QEAAAEAV0@AEBV0@@Z
  ??4NcDbHighlightOverrule@@QEAAAEAV0@AEBV0@@Z
  ??4NcDbHighlightStateOverrule@@QEAAAEAV0@$$QEAV0@@Z
  ??4NcDbHighlightStateOverrule@@QEAAAEAV0@AEBV0@@Z
  ??4NcDbHomeView@@QEAAAEAV0@AEBV0@@Z
  ??4NcDbHostApplicationProgressMeter@@QEAAAEAV0@AEBV0@@Z
  ??4NcDbHostApplicationServices@@QEAAAEAV0@AEBV0@@Z
  ??4NcDbIdMapping@@QEAAAEAV0@$$QEAV0@@Z
  ??4NcDbIdMapping@@QEAAAEAV0@AEBV0@@Z
  ??4NcDbIdMappingIter@@QEAAAEAV0@$$QEAV0@@Z
  ??4NcDbIdMappingIter@@QEAAAEAV0@AEBV0@@Z
  ??4NcDbIdPair@@QEAAAEAV0@AEBV0@@Z
  ??4NcDbIdPair@@QEAAAEAV0@AEBVOdDbIdPair@@@Z
  ??4NcDbImage@@QEAAAEAV0@$$QEAV0@@Z
  ??4NcDbImage@@QEAAAEAV0@AEBV0@@Z
  ??4NcDbImageBackground@@QEAAAEAV0@AEBV0@@Z
  ??4NcDbIndex@@QEAAAEAV0@AEBV0@@Z
  ??4NcDbIndexUpdateDataIterator@@QEAAAEAV0@AEBV0@@Z
  ??4NcDbInterferencePE@@QEAAAEAV0@$$QEAV0@@Z
  ??4NcDbInterferencePE@@QEAAAEAV0@AEBV0@@Z
  ??4NcDbJoinEntityPE@@QEAAAEAV0@$$QEAV0@@Z
  ??4NcDbJoinEntityPE@@QEAAAEAV0@AEBV0@@Z
  ??4NcDbLayerFilter@@QEAAAEAV0@AEBV0@@Z
  ??4NcDbLayerIndex@@QEAAAEAV0@AEBV0@@Z
  ??4NcDbLayerIndexIterator@@QEAAAEAV0@AEBV0@@Z
  ??4NcDbLayerStateManager@@QEAAAEAV0@AEBV0@@Z
  ??4NcDbLayerStateManagerReactor@@QEAAAEAV0@$$QEAV0@@Z
  ??4NcDbLayerStateManagerReactor@@QEAAAEAV0@AEBV0@@Z
  ??4NcDbLayerTable@@QEAAAEAV0@$$QEAV0@@Z
  ??4NcDbLayerTable@@QEAAAEAV0@AEBV0@@Z
  ??4NcDbLayerTableIterator@@QEAAAEAV0@$$QEAV0@@Z
  ??4NcDbLayerTableIterator@@QEAAAEAV0@AEBV0@@Z
  ??4NcDbLayerTableRecord@@QEAAAEAV0@$$QEAV0@@Z
  ??4NcDbLayerTableRecord@@QEAAAEAV0@AEBV0@@Z
  ??4NcDbLayout@@QEAAAEAV0@$$QEAV0@@Z
  ??4NcDbLayout@@QEAAAEAV0@AEBV0@@Z
  ??4NcDbLayoutManager@@QEAAAEAV0@$$QEAV0@@Z
  ??4NcDbLayoutManager@@QEAAAEAV0@AEBV0@@Z
  ??4NcDbLayoutManagerReactor@@QEAAAEAV0@AEBV0@@Z
  ??4NcDbLeader@@QEAAAEAV0@$$QEAV0@@Z
  ??4NcDbLeader@@QEAAAEAV0@AEBV0@@Z
  ??4NcDbLight@@QEAAAEAV0@AEBV0@@Z
  ??4NcDbLine@@QEAAAEAV0@$$QEAV0@@Z
  ??4NcDbLine@@QEAAAEAV0@AEBV0@@Z
  ??4NcDbLinetypeTable@@QEAAAEAV0@$$QEAV0@@Z
  ??4NcDbLinetypeTable@@QEAAAEAV0@AEBV0@@Z
  ??4NcDbLinetypeTableIterator@@QEAAAEAV0@$$QEAV0@@Z
  ??4NcDbLinetypeTableIterator@@QEAAAEAV0@AEBV0@@Z
  ??4NcDbLinetypeTableRecord@@QEAAAEAV0@$$QEAV0@@Z
  ??4NcDbLinetypeTableRecord@@QEAAAEAV0@AEBV0@@Z
  ??4NcDbLinkedData@@QEAAAEAV0@AEBV0@@Z
  ??4NcDbLinkedTableData@@QEAAAEAV0@AEBV0@@Z
  ??4NcDbLoftOptions@@QEAAAEAV0@AEBV0@@Z
  ??4NcDbLoftProfile@@QEAAAEAV0@AEBV0@@Z
  ??4NcDbLoftProfile@@QEAAAEAV0@AEBVNcDb3dProfile@@@Z
  ??4NcDbLongTransWorkSetIterator@@QEAAAEAV0@$$QEAV0@@Z
  ??4NcDbLongTransWorkSetIterator@@QEAAAEAV0@AEBV0@@Z
  ??4NcDbLongTransaction@@QEAAAEAV0@$$QEAV0@@Z
  ??4NcDbLongTransaction@@QEAAAEAV0@AEBV0@@Z
  ??4NcDbMInsertBlock@@QEAAAEAV0@$$QEAV0@@Z
  ??4NcDbMInsertBlock@@QEAAAEAV0@AEBV0@@Z
  ??4NcDbMLeader@@QEAAAEAV0@AEBV0@@Z
  ??4NcDbMLeaderStyle@@QEAAAEAV0@$$QEAV0@@Z
  ??4NcDbMLeaderStyle@@QEAAAEAV0@AEBV0@@Z
  ??4NcDbMPolygon@@QEAAAEAV0@$$QEAV0@@Z
  ??4NcDbMPolygon@@QEAAAEAV0@AEBV0@@Z
  ??4NcDbMText@@QEAAAEAV0@$$QEAV0@@Z
  ??4NcDbMText@@QEAAAEAV0@AEBV0@@Z
  ??4NcDbMatchProperties@@QEAAAEAV0@AEBV0@@Z
  ??4NcDbMaterial@@QEAAAEAV0@AEBV0@@Z
  ??4NcDbMentalRayRenderSettings@@QEAAAEAV0@AEBV0@@Z
  ??4NcDbMline@@QEAAAEAV0@AEBV0@@Z
  ??4NcDbMlineStyle@@QEAAAEAV0@$$QEAV0@@Z
  ??4NcDbMlineStyle@@QEAAAEAV0@AEBV0@@Z
  ??4NcDbMotionPath@@QEAAAEAV0@AEBV0@@Z
  ??4NcDbMultiModesGripPE@@QEAAAEAV0@$$QEAV0@@Z
  ??4NcDbMultiModesGripPE@@QEAAAEAV0@AEBV0@@Z
  ??4NcDbNamedPath@@QEAAAEAV0@AEBV0@@Z
  ??4NcDbNurbSurface@@QEAAAEAV0@AEBV0@@Z
  ??4NcDbObject@@QEAAAEAV0@AEBV0@@Z
  ??4NcDbObjectContext@@QEAAAEAV0@$$QEAV0@@Z
  ??4NcDbObjectContext@@QEAAAEAV0@AEBV0@@Z
  ??4NcDbObjectContextCollection@@QEAAAEAV0@$$QEAV0@@Z
  ??4NcDbObjectContextCollection@@QEAAAEAV0@AEBV0@@Z
  ??4NcDbObjectContextCollectionIterator@@QEAAAEAV0@$$QEAV0@@Z
  ??4NcDbObjectContextCollectionIterator@@QEAAAEAV0@AEBV0@@Z
  ??4NcDbObjectContextInterface@@QEAAAEAV0@$$QEAV0@@Z
  ??4NcDbObjectContextInterface@@QEAAAEAV0@AEBV0@@Z
  ??4NcDbObjectContextManager@@QEAAAEAV0@$$QEAV0@@Z
  ??4NcDbObjectContextManager@@QEAAAEAV0@AEBV0@@Z
  ??4NcDbObjectId@@QEAAAEAV0@AEBV0@@Z
  ??4NcDbObjectId@@QEAAAEAV0@PEBVOdDbStub@@@Z
  ??4NcDbObjectIterator@@QEAAAEAV0@AEBV0@@Z
  ??4NcDbObjectOverrule@@QEAAAEAV0@$$QEAV0@@Z
  ??4NcDbObjectOverrule@@QEAAAEAV0@AEBV0@@Z
  ??4NcDbObjectReactor@@QEAAAEAV0@AEBV0@@Z
  ??4NcDbOle2Frame@@QEAAAEAV0@AEBV0@@Z
  ??4NcDbOleFrame@@QEAAAEAV0@AEBV0@@Z
  ??4NcDbOrdinateDimension@@QEAAAEAV0@$$QEAV0@@Z
  ??4NcDbOrdinateDimension@@QEAAAEAV0@AEBV0@@Z
  ??4NcDbOsnapOverrule@@QEAAAEAV0@AEBV0@@Z
  ??4NcDbOsnapPointRef@@QEAAAEAV0@AEBV0@@Z
  ??4NcDbOsnapPointRef@@UEAAAEAVNcDbPointRef@@AEBV1@@Z
  ??4NcDbPaperOrientationPE@@QEAAAEAV0@$$QEAV0@@Z
  ??4NcDbPaperOrientationPE@@QEAAAEAV0@AEBV0@@Z
  ??4NcDbPlaceHolder@@QEAAAEAV0@$$QEAV0@@Z
  ??4NcDbPlaceHolder@@QEAAAEAV0@AEBV0@@Z
  ??4NcDbPlaneSurface@@QEAAAEAV0@AEBV0@@Z
  ??4NcDbPlotSettings@@QEAAAEAV0@$$QEAV0@@Z
  ??4NcDbPlotSettings@@QEAAAEAV0@AEBV0@@Z
  ??4NcDbPlotSettingsValidator@@QEAAAEAV0@AEBV0@@Z
  ??4NcDbPoint@@QEAAAEAV0@$$QEAV0@@Z
  ??4NcDbPoint@@QEAAAEAV0@AEBV0@@Z
  ??4NcDbPointPath@@QEAAAEAV0@AEBV0@@Z
  ??4NcDbPointRef@@UEAAAEAV0@AEBV0@@Z
  ??4NcDbPolyFaceMesh@@QEAAAEAV0@AEBV0@@Z
  ??4NcDbPolyFaceMeshVertex@@QEAAAEAV0@$$QEAV0@@Z
  ??4NcDbPolyFaceMeshVertex@@QEAAAEAV0@AEBV0@@Z
  ??4NcDbPolygonMesh@@QEAAAEAV0@AEBV0@@Z
  ??4NcDbPolygonMeshVertex@@QEAAAEAV0@$$QEAV0@@Z
  ??4NcDbPolygonMeshVertex@@QEAAAEAV0@AEBV0@@Z
  ??4NcDbPolyline@@QEAAAEAV0@$$QEAV0@@Z
  ??4NcDbPolyline@@QEAAAEAV0@AEBV0@@Z
  ??4NcDbPropertiesOverrule@@QEAAAEAV0@$$QEAV0@@Z
  ??4NcDbPropertiesOverrule@@QEAAAEAV0@AEBV0@@Z
  ??4NcDbPropertyFilterCustomizationPE@@QEAAAEAV0@$$QEAV0@@Z
  ??4NcDbPropertyFilterCustomizationPE@@QEAAAEAV0@AEBV0@@Z
  ??4NcDbProxyEntity@@QEAAAEAV0@$$QEAV0@@Z
  ??4NcDbProxyEntity@@QEAAAEAV0@AEBV0@@Z
  ??4NcDbProxyObject@@QEAAAEAV0@$$QEAV0@@Z
  ??4NcDbProxyObject@@QEAAAEAV0@AEBV0@@Z
  ??4NcDbR13ObjectId@@QEAAAEAV0@$$QEAV0@@Z
  ??4NcDbR13ObjectId@@QEAAAEAV0@AEBV0@@Z
  ??4NcDbRadialDimension@@QEAAAEAV0@$$QEAV0@@Z
  ??4NcDbRadialDimension@@QEAAAEAV0@AEBV0@@Z
  ??4NcDbRadialDimensionLarge@@QEAAAEAV0@$$QEAV0@@Z
  ??4NcDbRadialDimensionLarge@@QEAAAEAV0@AEBV0@@Z
  ??4NcDbRasterImage@@QEAAAEAV0@AEBV0@@Z
  ??4NcDbRasterImageDef@@QEAAAEAV0@AEBV0@@Z
  ??4NcDbRasterImageDefFileAccessReactor@@QEAAAEAV0@AEBV0@@Z
  ??4NcDbRasterImageDefReactor@@QEAAAEAV0@$$QEAV0@@Z
  ??4NcDbRasterImageDefReactor@@QEAAAEAV0@AEBV0@@Z
  ??4NcDbRasterImageDefTransReactor@@QEAAAEAV0@AEBV0@@Z
  ??4NcDbRasterVariables@@QEAAAEAV0@AEBV0@@Z
  ??4NcDbRay@@QEAAAEAV0@$$QEAV0@@Z
  ??4NcDbRay@@QEAAAEAV0@AEBV0@@Z
  ??4NcDbRecoverCallBack@@QEAAAEAV0@AEBV0@@Z
  ??4NcDbRegAppTable@@QEAAAEAV0@$$QEAV0@@Z
  ??4NcDbRegAppTable@@QEAAAEAV0@AEBV0@@Z
  ??4NcDbRegAppTableIterator@@QEAAAEAV0@$$QEAV0@@Z
  ??4NcDbRegAppTableIterator@@QEAAAEAV0@AEBV0@@Z
  ??4NcDbRegAppTableRecord@@QEAAAEAV0@$$QEAV0@@Z
  ??4NcDbRegAppTableRecord@@QEAAAEAV0@AEBV0@@Z
  ??4NcDbRegion@@QEAAAEAV0@$$QEAV0@@Z
  ??4NcDbRegion@@QEAAAEAV0@AEBV0@@Z
  ??4NcDbRenderEnvironment@@QEAAAEAV0@AEBV0@@Z
  ??4NcDbRenderGlobal@@QEAAAEAV0@AEBV0@@Z
  ??4NcDbRenderSettings@@QEAAAEAV0@AEBV0@@Z
  ??4NcDbRevolveOptions@@QEAAAEAV0@AEBV0@@Z
  ??4NcDbRevolvedSurface@@QEAAAEAV0@AEBV0@@Z
  ??4NcDbRotatedDimension@@QEAAAEAV0@$$QEAV0@@Z
  ??4NcDbRotatedDimension@@QEAAAEAV0@AEBV0@@Z
  ??4NcDbSelectGrip@@QEAAAEAV0@$$QEAV0@@Z
  ??4NcDbSelectGrip@@QEAAAEAV0@AEBV0@@Z
  ??4NcDbSequenceEnd@@QEAAAEAV0@$$QEAV0@@Z
  ??4NcDbSequenceEnd@@QEAAAEAV0@AEBV0@@Z
  ??4NcDbServices@@QEAAAEAV0@$$QEAV0@@Z
  ??4NcDbServices@@QEAAAEAV0@AEBV0@@Z
  ??4NcDbShape@@QEAAAEAV0@$$QEAV0@@Z
  ??4NcDbShape@@QEAAAEAV0@AEBV0@@Z
  ??4NcDbSkyBackground@@QEAAAEAV0@AEBV0@@Z
  ??4NcDbSoftOwnershipId@@QEAAAEAV0@AEBV0@@Z
  ??4NcDbSoftOwnershipId@@QEAAAEAV0@AEBVNcDbObjectId@@@Z
  ??4NcDbSoftOwnershipId@@QEAAAEAV0@PEBVOdDbStub@@@Z
  ??4NcDbSoftPointerId@@QEAAAEAV0@AEBV0@@Z
  ??4NcDbSoftPointerId@@QEAAAEAV0@AEBVNcDbObjectId@@@Z
  ??4NcDbSoftPointerId@@QEAAAEAV0@PEBVOdDbStub@@@Z
  ??4NcDbSolid@@QEAAAEAV0@$$QEAV0@@Z
  ??4NcDbSolid@@QEAAAEAV0@AEBV0@@Z
  ??4NcDbSolidBackground@@QEAAAEAV0@AEBV0@@Z
  ??4NcDbSortentsTable@@QEAAAEAV0@AEBV0@@Z
  ??4NcDbSpatialFilter@@QEAAAEAV0@AEBV0@@Z
  ??4NcDbSpatialIndex@@QEAAAEAV0@AEBV0@@Z
  ??4NcDbSpatialIndexIterator@@QEAAAEAV0@AEBV0@@Z
  ??4NcDbSpline@@QEAAAEAV0@$$QEAV0@@Z
  ??4NcDbSpline@@QEAAAEAV0@AEBV0@@Z
  ??4NcDbSubDMesh@@QEAAAEAV0@AEBV0@@Z
  ??4NcDbSubentGeometry@@QEAAAEAV0@$$QEAV0@@Z
  ??4NcDbSubentGeometry@@QEAAAEAV0@AEBV0@@Z
  ??4NcDbSubentId@@QEAAAEAV0@$$QEAV0@@Z
  ??4NcDbSubentId@@QEAAAEAV0@AEBV0@@Z
  ??4NcDbSubentRef@@QEAAAEAV0@AEBV0@@Z
  ??4NcDbSubentityOverrule@@QEAAAEAV0@$$QEAV0@@Z
  ??4NcDbSubentityOverrule@@QEAAAEAV0@AEBV0@@Z
  ??4NcDbSun@@QEAAAEAV0@AEBV0@@Z
  ??4NcDbSurface@@QEAAAEAV0@$$QEAV0@@Z
  ??4NcDbSurface@@QEAAAEAV0@AEBV0@@Z
  ??4NcDbSweepOptions@@QEAAAEAV0@AEBV0@@Z
  ??4NcDbSymbolTable@@QEAAAEAV0@$$QEAV0@@Z
  ??4NcDbSymbolTable@@QEAAAEAV0@AEBV0@@Z
  ??4NcDbSymbolTableIterator@@QEAAAEAV0@AEBV0@@Z
  ??4NcDbSymbolTableRecord@@QEAAAEAV0@$$QEAV0@@Z
  ??4NcDbSymbolTableRecord@@QEAAAEAV0@AEBV0@@Z
  ??4NcDbTable@@QEAAAEAV0@$$QEAV0@@Z
  ??4NcDbTable@@QEAAAEAV0@AEBV0@@Z
  ??4NcDbTableContent@@QEAAAEAV0@AEBV0@@Z
  ??4NcDbTableIterator@@QEAAAEAV0@AEBV0@@Z
  ??4NcDbTableStyle@@QEAAAEAV0@$$QEAV0@@Z
  ??4NcDbTableStyle@@QEAAAEAV0@AEBV0@@Z
  ??4NcDbTableTemplate@@QEAAAEAV0@AEBV0@@Z
  ??4NcDbText@@QEAAAEAV0@$$QEAV0@@Z
  ??4NcDbText@@QEAAAEAV0@AEBV0@@Z
  ??4NcDbTextFieldsPE@@QEAAAEAV0@$$QEAV0@@Z
  ??4NcDbTextFieldsPE@@QEAAAEAV0@AEBV0@@Z
  ??4NcDbTextStyleTable@@QEAAAEAV0@$$QEAV0@@Z
  ??4NcDbTextStyleTable@@QEAAAEAV0@AEBV0@@Z
  ??4NcDbTextStyleTableIterator@@QEAAAEAV0@$$QEAV0@@Z
  ??4NcDbTextStyleTableIterator@@QEAAAEAV0@AEBV0@@Z
  ??4NcDbTextStyleTableRecord@@QEAAAEAV0@$$QEAV0@@Z
  ??4NcDbTextStyleTableRecord@@QEAAAEAV0@AEBV0@@Z
  ??4NcDbTrace@@QEAAAEAV0@$$QEAV0@@Z
  ??4NcDbTrace@@QEAAAEAV0@AEBV0@@Z
  ??4NcDbTransactionManager@@QEAAAEAV0@AEBV0@@Z
  ??4NcDbTransformOverrule@@QEAAAEAV0@$$QEAV0@@Z
  ??4NcDbTransformOverrule@@QEAAAEAV0@AEBV0@@Z
  ??4NcDbUCSTable@@QEAAAEAV0@$$QEAV0@@Z
  ??4NcDbUCSTable@@QEAAAEAV0@AEBV0@@Z
  ??4NcDbUCSTableIterator@@QEAAAEAV0@$$QEAV0@@Z
  ??4NcDbUCSTableIterator@@QEAAAEAV0@AEBV0@@Z
  ??4NcDbUCSTableRecord@@QEAAAEAV0@$$QEAV0@@Z
  ??4NcDbUCSTableRecord@@QEAAAEAV0@AEBV0@@Z
  ??4NcDbUnderlayDefinition@@QEAAAEAV0@AEBV0@@Z
  ??4NcDbUnderlayFile@@QEAAAEAV0@AEBV0@@Z
  ??4NcDbUnderlayHost@@QEAAAEAV0@AEBV0@@Z
  ??4NcDbUnderlayItem@@QEAAAEAV0@AEBV0@@Z
  ??4NcDbUnderlayReference@@QEAAAEAV0@AEBV0@@Z
  ??4NcDbVertex@@QEAAAEAV0@AEBV0@@Z
  ??4NcDbVertexRef@@QEAAAEAV0@AEBV0@@Z
  ??4NcDbViewTable@@QEAAAEAV0@$$QEAV0@@Z
  ??4NcDbViewTable@@QEAAAEAV0@AEBV0@@Z
  ??4NcDbViewTableIterator@@QEAAAEAV0@$$QEAV0@@Z
  ??4NcDbViewTableIterator@@QEAAAEAV0@AEBV0@@Z
  ??4NcDbViewTableRecord@@QEAAAEAV0@$$QEAV0@@Z
  ??4NcDbViewTableRecord@@QEAAAEAV0@AEBV0@@Z
  ??4NcDbViewport@@QEAAAEAV0@$$QEAV0@@Z
  ??4NcDbViewport@@QEAAAEAV0@AEBV0@@Z
  ??4NcDbViewportTable@@QEAAAEAV0@$$QEAV0@@Z
  ??4NcDbViewportTable@@QEAAAEAV0@AEBV0@@Z
  ??4NcDbViewportTableIterator@@QEAAAEAV0@$$QEAV0@@Z
  ??4NcDbViewportTableIterator@@QEAAAEAV0@AEBV0@@Z
  ??4NcDbViewportTableRecord@@QEAAAEAV0@$$QEAV0@@Z
  ??4NcDbViewportTableRecord@@QEAAAEAV0@AEBV0@@Z
  ??4NcDbVisibilityOverrule@@QEAAAEAV0@$$QEAV0@@Z
  ??4NcDbVisibilityOverrule@@QEAAAEAV0@AEBV0@@Z
  ??4NcDbVisualStyle@@QEAAAEAV0@AEBV0@@Z
  ??4NcDbWblockCloneFiler@@QEAAAEAV0@AEBV0@@Z
  ??4NcDbWipeout@@QEAAAEAV0@$$QEAV0@@Z
  ??4NcDbWipeout@@QEAAAEAV0@AEBV0@@Z
  ??4NcDbXObject@@QEAAAEAV0@$$QEAV0@@Z
  ??4NcDbXObject@@QEAAAEAV0@AEBV0@@Z
  ??4NcDbXline@@QEAAAEAV0@$$QEAV0@@Z
  ??4NcDbXline@@QEAAAEAV0@AEBV0@@Z
  ??4NcDbXrecord@@QEAAAEAV0@$$QEAV0@@Z
  ??4NcDbXrecord@@QEAAAEAV0@AEBV0@@Z
  ??4NcDbXrecordIterator@@QEAAAEAV0@AEBV0@@Z
  ??4NcDistanceConstraint@@QEAAAEAV0@$$QEAV0@@Z
  ??4NcDistanceConstraint@@QEAAAEAV0@AEBV0@@Z
  ??4NcEdInputContextReactor@@QEAAAEAV0@AEBV0@@Z
  ??4NcEdInputPointFilter@@QEAAAEAV0@AEBV0@@Z
  ??4NcEdInputPointManager@@QEAAAEAV0@AEBV0@@Z
  ??4NcEdInputPointMonitor@@QEAAAEAV0@AEBV0@@Z
  ??4NcEdInputPointMonitorResult@@QEAAAEAV0@$$QEAV0@@Z
  ??4NcEdInputPointMonitorResult@@QEAAAEAV0@AEBV0@@Z
  ??4NcEqualCurvatureConstraint@@QEAAAEAV0@$$QEAV0@@Z
  ??4NcEqualCurvatureConstraint@@QEAAAEAV0@AEBV0@@Z
  ??4NcEqualDistanceConstraint@@QEAAAEAV0@$$QEAV0@@Z
  ??4NcEqualDistanceConstraint@@QEAAAEAV0@AEBV0@@Z
  ??4NcEqualHelpParameterConstraint@@QEAAAEAV0@$$QEAV0@@Z
  ??4NcEqualHelpParameterConstraint@@QEAAAEAV0@AEBV0@@Z
  ??4NcEqualLengthConstraint@@QEAAAEAV0@$$QEAV0@@Z
  ??4NcEqualLengthConstraint@@QEAAAEAV0@AEBV0@@Z
  ??4NcEqualRadiusConstraint@@QEAAAEAV0@$$QEAV0@@Z
  ??4NcEqualRadiusConstraint@@QEAAAEAV0@AEBV0@@Z
  ??4NcExplicitConstraint@@QEAAAEAV0@$$QEAV0@@Z
  ??4NcExplicitConstraint@@QEAAAEAV0@AEBV0@@Z
  ??4NcFdFieldReactor@@QEAAAEAV0@$$QEAV0@@Z
  ??4NcFdFieldReactor@@QEAAAEAV0@AEBV0@@Z
  ??4NcFdFieldResult@@QEAAAEAV0@$$QEAV0@@Z
  ??4NcFdFieldResult@@QEAAAEAV0@AEBV0@@Z
  ??4NcFileDependencyManager@@QEAAAEAV0@AEBV0@@Z
  ??4NcFixedConstraint@@QEAAAEAV0@$$QEAV0@@Z
  ??4NcFixedConstraint@@QEAAAEAV0@AEBV0@@Z
  ??4NcG2SmoothConstraint@@QEAAAEAV0@$$QEAV0@@Z
  ??4NcG2SmoothConstraint@@QEAAAEAV0@AEBV0@@Z
  ??4NcGUID@@QEAAAEAV0@AEBV0@@Z
  ??4NcGUID@@QEAAAEAV0@AEBVOdAnsiString@@@Z
  ??4NcGUID@@QEAAAEAV0@AEBVOdString@@@Z
  ??4NcGUID@@QEAAAEAV0@PEBD@Z
  ??4NcGeAugPolyline3d@@QEAAAEAV0@AEBV0@@Z
  ??4NcGeBoundBlock2d@@QEAAAEAV0@AEBV0@@Z
  ??4NcGeBoundedPlane@@QEAAAEAV0@AEBV0@@Z
  ??4NcGeCircArc2d@@QEAAAEAV0@AEBV0@@Z
  ??4NcGeCircArc3d@@UEAAAEAV0@AEBV0@@Z
  ??4NcGeClipBoundary2d@@QEAAAEAV0@AEBV0@@Z
  ??4NcGeCompositeCurve2d@@QEAAAEAV0@AEBV0@@Z
  ??4NcGeCompositeCurve3d@@UEAAAEAV0@AEBV0@@Z
  ??4NcGeCone@@QEAAAEAV0@AEBV0@@Z
  ??4NcGeCubicSplineCurve2d@@QEAAAEAV0@AEBV0@@Z
  ??4NcGeCubicSplineCurve3d@@QEAAAEAV0@AEBV0@@Z
  ??4NcGeCubicSplineCurve3d@@UEAAAEAVNcGeCurve3d@@AEBV1@@Z
  ??4NcGeCurve2d@@UEAAAEAV0@AEBV0@@Z
  ??4NcGeCurve3d@@UEAAAEAV0@AEBV0@@Z
  ??4NcGeCurveBoundary@@QEAAAEAV0@AEBV0@@Z
  ??4NcGeCurveCurveInt2d@@QEAAAEAV0@AEBV0@@Z
  ??4NcGeCurveCurveInt3d@@QEAAAEAV0@AEBV0@@Z
  ??4NcGeCurveSurfInt@@QEAAAEAV0@AEBV0@@Z
  ??4NcGeCylinder@@QEAAAEAV0@AEBV0@@Z
  ??4NcGeDwgIO@@QEAAAEAV0@$$QEAV0@@Z
  ??4NcGeDwgIO@@QEAAAEAV0@AEBV0@@Z
  ??4NcGeDxfIO@@QEAAAEAV0@$$QEAV0@@Z
  ??4NcGeDxfIO@@QEAAAEAV0@AEBV0@@Z
  ??4NcGeEllipArc2d@@QEAAAEAV0@AEBV0@@Z
  ??4NcGeEllipArc3d@@UEAAAEAV0@AEBV0@@Z
  ??4NcGeEntity2d@@QEAAAEAV0@AEBV0@@Z
  ??4NcGeEntity3d@@UEAAAEAV0@AEBV0@@Z
  ??4NcGeExternalBoundedSurface@@QEAAAEAV0@AEBV0@@Z
  ??4NcGeExternalBoundedSurface@@UEAAAEAVNcGeSurface@@AEBV1@@Z
  ??4NcGeExternalCurve2d@@QEAAAEAV0@AEBV0@@Z
  ??4NcGeExternalCurve3d@@QEAAAEAV0@AEBV0@@Z
  ??4NcGeExternalSurface@@QEAAAEAV0@AEBV0@@Z
  ??4NcGeFiler@@QEAAAEAV0@$$QEAV0@@Z
  ??4NcGeFiler@@QEAAAEAV0@AEBV0@@Z
  ??4NcGeInterval@@QEAAAEAV0@AEBV0@@Z
  ??4NcGeInterval@@UEAAAEAV0@AEBVMcGeInterval@@@Z
  ??4NcGeKnotVector@@QEAAAEAV0@AEBV0@@Z
  ??4NcGeKnotVector@@QEAAAEAV0@AEBV?$NcArray@NV?$HostMemoryAllocator@N@@@@@Z
  ??4NcGeLibVersion@@QEAAAEAV0@AEBV0@@Z
  ??4NcGeLine2d@@UEAAAEAV0@AEBV0@@Z
  ??4NcGeLine3d@@UEAAAEAV0@AEBV0@@Z
  ??4NcGeLineSeg2d@@UEAAAEAV0@AEBV0@@Z
  ??4NcGeLineSeg3d@@UEAAAEAV0@AEBV0@@Z
  ??4NcGeLinearEnt2d@@UEAAAEAV0@AEBV0@@Z
  ??4NcGeLinearEnt3d@@UEAAAEAV0@AEBV0@@Z
  ??4NcGeMatrix2d@@QEAAAEAV0@$$QEAV0@@Z
  ??4NcGeMatrix2d@@QEAAAEAV0@AEBV0@@Z
  ??4NcGeMatrix2d@@QEAAAEAV0@AEBVMcGeMatrix2d@@@Z
  ??4NcGeNurbCurve2d@@QEAAAEAV0@AEBV0@@Z
  ??4NcGeNurbCurve3d@@UEAAAEAV0@AEBV0@@Z
  ??4NcGeNurbSurface@@QEAAAEAV0@AEBV0@@Z
  ??4NcGeNurbSurface@@QEAAAEAV0@AEBVOdGeNurbSurface@@@Z
  ??4NcGeOffsetCurve2d@@QEAAAEAV0@AEBV0@@Z
  ??4NcGeOffsetCurve3d@@QEAAAEAV0@AEBV0@@Z
  ??4NcGeOffsetSurface@@QEAAAEAV0@AEBV0@@Z
  ??4NcGePlanarEnt@@QEAAAEAV0@AEBV0@@Z
  ??4NcGePlane@@QEAAAEAV0@AEBV0@@Z
  ??4NcGePlane@@QEAAAEAVNcGeBoundBlock2d@@AEBV1@@Z
  ??4NcGePoint2d@@QEAAAEAV0@AEBVMcGePoint2d@@@Z
  ??4NcGePointEnt2d@@QEAAAEAV0@AEBV0@@Z
  ??4NcGePointEnt3d@@QEAAAEAV0@AEBV0@@Z
  ??4NcGePointOnCurve2d@@QEAAAEAV0@AEBV0@@Z
  ??4NcGePointOnSurface@@QEAAAEAV0@AEBV0@@Z
  ??4NcGePolyline2d@@QEAAAEAV0@AEBV0@@Z
  ??4NcGePolyline3d@@QEAAAEAV0@AEBV0@@Z
  ??4NcGePosition2d@@QEAAAEAV0@AEBV0@@Z
  ??4NcGePosition3d@@QEAAAEAV0@AEBV0@@Z
  ??4NcGeRay2d@@QEAAAEAV0@AEBV0@@Z
  ??4NcGeRay3d@@QEAAAEAV0@AEBV0@@Z
  ??4NcGeScale2d@@QEAAAEAV0@AEBV0@@Z
  ??4NcGeScale3d@@QEAAAEAV0@AEBV0@@Z
  ??4NcGeScale3d@@QEAAAEAV0@AEBVOdGeScale3d@@@Z
  ??4NcGeSphere@@QEAAAEAV0@AEBV0@@Z
  ??4NcGeSplineEnt2d@@QEAAAEAV0@AEBV0@@Z
  ??4NcGeSplineEnt3d@@QEAAAEAV0@AEBV0@@Z
  ??4NcGeSurfSurfInt@@QEAAAEAV0@AEBV0@@Z
  ??4NcGeSurface@@UEAAAEAV0@AEBV0@@Z
  ??4NcGeSurface@@UEAAAEAVNcGeEntity3d@@AEBV1@@Z
  ??4NcGeTorus@@QEAAAEAV0@AEBV0@@Z
  ??4NcGeomConstraint@@QEAAAEAV0@$$QEAV0@@Z
  ??4NcGeomConstraint@@QEAAAEAV0@AEBV0@@Z
  ??4NcGiCommonDraw@@QEAAAEAV0@$$QEAV0@@Z
  ??4NcGiCommonDraw@@QEAAAEAV0@AEBV0@@Z
  ??4NcGiContext@@QEAAAEAV0@$$QEAV0@@Z
  ??4NcGiContext@@QEAAAEAV0@AEBV0@@Z
  ??4NcGiDisplayStyle@@UEAAAEAV0@AEBV0@@Z
  ??4NcGiDistantLightTraits2@@QEAAAEAV0@$$QEAV0@@Z
  ??4NcGiDistantLightTraits2@@QEAAAEAV0@AEBV0@@Z
  ??4NcGiDistantLightTraits@@QEAAAEAV0@$$QEAV0@@Z
  ??4NcGiDistantLightTraits@@QEAAAEAV0@AEBV0@@Z
  ??4NcGiDrawable@@QEAAAEAV0@AEBV0@@Z
  ??4NcGiDrawableOverrule@@QEAAAEAV0@$$QEAV0@@Z
  ??4NcGiDrawableOverrule@@QEAAAEAV0@AEBV0@@Z
  ??4NcGiDrawableTraits2@@QEAAAEAV0@$$QEAV0@@Z
  ??4NcGiDrawableTraits2@@QEAAAEAV0@AEBV0@@Z
  ??4NcGiDrawableTraits@@QEAAAEAV0@$$QEAV0@@Z
  ??4NcGiDrawableTraits@@QEAAAEAV0@AEBV0@@Z
  ??4NcGiEdgeData@@UEAAAEAV0@AEBV0@@Z
  ??4NcGiEdgeStyle@@UEAAAEAV0@AEBV0@@Z
  ??4NcGiFaceData@@UEAAAEAV0@AEBV0@@Z
  ??4NcGiFaceStyle@@UEAAAEAV0@AEBV0@@Z
  ??4NcGiGdiDrawObject@@QEAAAEAV0@$$QEAV0@@Z
  ??4NcGiGdiDrawObject@@QEAAAEAV0@AEBV0@@Z
  ??4NcGiGenericTexture@@QEAAAEAV0@AEBV0@@Z
  ??4NcGiGeometry@@QEAAAEAV0@$$QEAV0@@Z
  ??4NcGiGeometry@@QEAAAEAV0@AEBV0@@Z
  ??4NcGiGlyph@@QEAAAEAV0@$$QEAV0@@Z
  ??4NcGiGlyph@@QEAAAEAV0@AEBV0@@Z
  ??4NcGiGradientBackgroundTraits@@QEAAAEAV0@$$QEAV0@@Z
  ??4NcGiGradientBackgroundTraits@@QEAAAEAV0@AEBV0@@Z
  ??4NcGiGroundPlaneBackgroundTraits@@QEAAAEAV0@$$QEAV0@@Z
  ??4NcGiGroundPlaneBackgroundTraits@@QEAAAEAV0@AEBV0@@Z
  ??4NcGiImageBackgroundTraits@@QEAAAEAV0@$$QEAV0@@Z
  ??4NcGiImageBackgroundTraits@@QEAAAEAV0@AEBV0@@Z
  ??4NcGiImageFileTexture@@QEAAAEAV0@AEBV0@@Z
  ??4NcGiImageTexture@@QEAAAEAV0@AEBV0@@Z
  ??4NcGiLightAttenuation@@QEAAAEAV0@AEBV0@@Z
  ??4NcGiLightTraits@@QEAAAEAV0@$$QEAV0@@Z
  ??4NcGiLightTraits@@QEAAAEAV0@AEBV0@@Z
  ??4NcGiLineAttrUtils@@QEAAAEAV0@$$QEAV0@@Z
  ??4NcGiLineAttrUtils@@QEAAAEAV0@AEBV0@@Z
  ??4NcGiLinetypeEngine@@QEAAAEAV0@AEBV0@@Z
  ??4NcGiMapper@@QEAAAEAV0@AEBV0@@Z
  ??4NcGiMapper@@QEAAAEAV0@AEBVOdGiMapper@@@Z
  ??4NcGiMarbleTexture@@QEAAAEAV0@AEBV0@@Z
  ??4NcGiMaterialColor@@QEAAAEAV0@AEBV0@@Z
  ??4NcGiMaterialMap@@QEAAAEAV0@AEBV0@@Z
  ??4NcGiMaterialTexture@@QEAAAEAV0@AEBV0@@Z
  ??4NcGiMaterialTraits2@@QEAAAEAV0@$$QEAV0@@Z
  ??4NcGiMaterialTraits2@@QEAAAEAV0@AEBV0@@Z
  ??4NcGiMaterialTraits@@QEAAAEAV0@$$QEAV0@@Z
  ??4NcGiMaterialTraits@@QEAAAEAV0@AEBV0@@Z
  ??4NcGiMentalRayRenderSettingsTraits2@@QEAAAEAV0@$$QEAV0@@Z
  ??4NcGiMentalRayRenderSettingsTraits2@@QEAAAEAV0@AEBV0@@Z
  ??4NcGiMentalRayRenderSettingsTraits3@@QEAAAEAV0@$$QEAV0@@Z
  ??4NcGiMentalRayRenderSettingsTraits3@@QEAAAEAV0@AEBV0@@Z
  ??4NcGiMentalRayRenderSettingsTraits@@QEAAAEAV0@$$QEAV0@@Z
  ??4NcGiMentalRayRenderSettingsTraits@@QEAAAEAV0@AEBV0@@Z
  ??4NcGiNonEntityTraits@@QEAAAEAV0@$$QEAV0@@Z
  ??4NcGiNonEntityTraits@@QEAAAEAV0@AEBV0@@Z
  ??4NcGiPointLightTraits2@@QEAAAEAV0@$$QEAV0@@Z
  ??4NcGiPointLightTraits2@@QEAAAEAV0@AEBV0@@Z
  ??4NcGiPointLightTraits@@QEAAAEAV0@$$QEAV0@@Z
  ??4NcGiPointLightTraits@@QEAAAEAV0@AEBV0@@Z
  ??4NcGiProceduralTexture@@QEAAAEAV0@$$QEAV0@@Z
  ??4NcGiProceduralTexture@@QEAAAEAV0@AEBV0@@Z
  ??4NcGiRenderEnvironmentTraits@@QEAAAEAV0@$$QEAV0@@Z
  ??4NcGiRenderEnvironmentTraits@@QEAAAEAV0@AEBV0@@Z
  ??4NcGiRenderSettingsTraits@@QEAAAEAV0@$$QEAV0@@Z
  ??4NcGiRenderSettingsTraits@@QEAAAEAV0@AEBV0@@Z
  ??4NcGiShadowParameters2@@QEAAAEAV0@AEBV0@@Z
  ??4NcGiShadowParameters@@QEAAAEAV0@AEBV0@@Z
  ??4NcGiSkyBackgroundTraits@@QEAAAEAV0@$$QEAV0@@Z
  ??4NcGiSkyBackgroundTraits@@QEAAAEAV0@AEBV0@@Z
  ??4NcGiSkyParameters@@QEAAAEAV0@AEBV0@@Z
  ??4NcGiSolidBackgroundTraits@@QEAAAEAV0@$$QEAV0@@Z
  ??4NcGiSolidBackgroundTraits@@QEAAAEAV0@AEBV0@@Z
  ??4NcGiSpotLightTraits2@@QEAAAEAV0@$$QEAV0@@Z
  ??4NcGiSpotLightTraits2@@QEAAAEAV0@AEBV0@@Z
  ??4NcGiSpotLightTraits@@QEAAAEAV0@$$QEAV0@@Z
  ??4NcGiSpotLightTraits@@QEAAAEAV0@AEBV0@@Z
  ??4NcGiStandardLightTraits@@QEAAAEAV0@$$QEAV0@@Z
  ??4NcGiStandardLightTraits@@QEAAAEAV0@AEBV0@@Z
  ??4NcGiSubEntityTraits@@QEAAAEAV0@$$QEAV0@@Z
  ??4NcGiSubEntityTraits@@QEAAAEAV0@AEBV0@@Z
  ??4NcGiTextEngine@@QEAAAEAV0@AEBV0@@Z
  ??4NcGiTextStyle@@QEAAAEAV0@AEBV0@@Z
  ??4NcGiToneOperatorParameters@@QEAAAEAV0@AEBV0@@Z
  ??4NcGiVariant@@QEAAAEAV0@AEBV0@@Z
  ??4NcGiVertexData@@UEAAAEAV0@AEBV0@@Z
  ??4NcGiViewport@@QEAAAEAV0@$$QEAV0@@Z
  ??4NcGiViewport@@QEAAAEAV0@AEBV0@@Z
  ??4NcGiViewportDrawNrx@@QEAAAEAV0@$$QEAV0@@Z
  ??4NcGiViewportDrawNrx@@QEAAAEAV0@AEBV0@@Z
  ??4NcGiViewportDrawNrxHostImpl@@QEAAAEAU0@AEBU0@@Z
  ??4NcGiViewportGeometry@@QEAAAEAV0@$$QEAV0@@Z
  ??4NcGiViewportGeometry@@QEAAAEAV0@AEBV0@@Z
  ??4NcGiViewportTraits@@QEAAAEAV0@$$QEAV0@@Z
  ??4NcGiViewportTraits@@QEAAAEAV0@AEBV0@@Z
  ??4NcGiVisualStyleTraits@@QEAAAEAV0@$$QEAV0@@Z
  ??4NcGiVisualStyleTraits@@QEAAAEAV0@AEBV0@@Z
  ??4NcGiWebLightTraits@@QEAAAEAV0@$$QEAV0@@Z
  ??4NcGiWebLightTraits@@QEAAAEAV0@AEBV0@@Z
  ??4NcGiWoodTexture@@QEAAAEAV0@AEBV0@@Z
  ??4NcGiWorldDraw@@QEAAAEAV0@$$QEAV0@@Z
  ??4NcGiWorldDraw@@QEAAAEAV0@AEBV0@@Z
  ??4NcGiWorldDrawHostImpl@@QEAAAEAU0@AEBU0@@Z
  ??4NcGiWorldGeometry@@QEAAAEAV0@$$QEAV0@@Z
  ??4NcGiWorldGeometry@@QEAAAEAV0@AEBV0@@Z
  ??4NcGsDCPoint@@QEAAAEAV0@PEBVOdGsDCPoint@@@Z
  ??4NcGsDCPoint@@QEAAXAEBV0@@Z
  ??4NcGsDCPoint@@QEAAXW4MaxFlag@0@@Z
  ??4NcGsDCPoint@@QEAAXW4MinFlag@0@@Z
  ??4NcGsDCRect@@QEAAAEAV0@AEBV0@@Z
  ??4NcGsDevice@@QEAAAEAV0@AEBV0@@Z
  ??4NcGsModel@@QEAAAEAV0@AEBV0@@Z
  ??4NcGsNode@@QEAAAEAV0@AEBV0@@Z
  ??4NcGsView@@QEAAAEAV0@AEBV0@@Z
  ??4NcHeapOperators@@QEAAAEAV0@$$QEAV0@@Z
  ??4NcHeapOperators@@QEAAAEAV0@AEBV0@@Z
  ??4NcHelpParameter@@QEAAAEAV0@$$QEAV0@@Z
  ??4NcHelpParameter@@QEAAAEAV0@AEBV0@@Z
  ??4NcHorizontalConstraint@@QEAAAEAV0@$$QEAV0@@Z
  ??4NcHorizontalConstraint@@QEAAAEAV0@AEBV0@@Z
  ??4NcLyLayerFilter@@QEAAAEAV0@$$QEAV0@@Z
  ??4NcLyLayerFilter@@QEAAAEAV0@AEBV0@@Z
  ??4NcLyLayerFilterManager@@QEAAAEAV0@$$QEAV0@@Z
  ??4NcLyLayerFilterManager@@QEAAAEAV0@AEBV0@@Z
  ??4NcLyLayerGroup@@QEAAAEAV0@$$QEAV0@@Z
  ??4NcLyLayerGroup@@QEAAAEAV0@AEBV0@@Z
  ??4NcMidPointConstraint@@QEAAAEAV0@$$QEAV0@@Z
  ??4NcMidPointConstraint@@QEAAAEAV0@AEBV0@@Z
  ??4NcNormalConstraint@@QEAAAEAV0@$$QEAV0@@Z
  ??4NcNormalConstraint@@QEAAAEAV0@AEBV0@@Z
  ??4NcParallelConstraint@@QEAAAEAV0@$$QEAV0@@Z
  ??4NcParallelConstraint@@QEAAAEAV0@AEBV0@@Z
  ??4NcPcPointDouble@@QEAAAEAV0@$$QEAV0@@Z
  ??4NcPcPointDouble@@QEAAAEAV0@AEBV0@@Z
  ??4NcPcPointFloat@@QEAAAEAV0@$$QEAV0@@Z
  ??4NcPcPointFloat@@QEAAAEAV0@AEBV0@@Z
  ??4NcPerpendicularConstraint@@QEAAAEAV0@$$QEAV0@@Z
  ??4NcPerpendicularConstraint@@QEAAAEAV0@AEBV0@@Z
  ??4NcPointCoincidenceConstraint@@QEAAAEAV0@$$QEAV0@@Z
  ??4NcPointCoincidenceConstraint@@QEAAAEAV0@AEBV0@@Z
  ??4NcPointCurveConstraint@@QEAAAEAV0@$$QEAV0@@Z
  ??4NcPointCurveConstraint@@QEAAAEAV0@AEBV0@@Z
  ??4NcRadiusDiameterConstraint@@QEAAAEAV0@$$QEAV0@@Z
  ??4NcRadiusDiameterConstraint@@QEAAAEAV0@AEBV0@@Z
  ??4NcRxClass@@QEAAAEAV0@$$QEAV0@@Z
  ??4NcRxClass@@QEAAAEAV0@AEBV0@@Z
  ??4NcRxClassExtPE@@QEAAAEAV0@$$QEAV0@@Z
  ??4NcRxClassExtPE@@QEAAAEAV0@AEBV0@@Z
  ??4NcRxDLinkerReactor@@QEAAAEAV0@$$QEAV0@@Z
  ??4NcRxDLinkerReactor@@QEAAAEAV0@AEBV0@@Z
  ??4NcRxDictionary@@QEAAAEAV0@AEBV0@@Z
  ??4NcRxDictionaryIterator@@QEAAAEAV0@$$QEAV0@@Z
  ??4NcRxDictionaryIterator@@QEAAAEAV0@AEBV0@@Z
  ??4NcRxDynamicLinker@@QEAAAEAV0@$$QEAV0@@Z
  ??4NcRxDynamicLinker@@QEAAAEAV0@AEBV0@@Z
  ??4NcRxEvent@@QEAAAEAV0@$$QEAV0@@Z
  ??4NcRxEvent@@QEAAAEAV0@AEBV0@@Z
  ??4NcRxEventReactor@@QEAAAEAV0@AEBV0@@Z
  ??4NcRxIterator@@QEAAAEAV0@$$QEAV0@@Z
  ??4NcRxIterator@@QEAAAEAV0@AEBV0@@Z
  ??4NcRxKernel@@QEAAAEAV0@AEBV0@@Z
  ??4NcRxObject@@QEAAAEAV0@AEBV0@@Z
  ??4NcRxObjectPtr@@QEAAAEAV0@AEBV0@@Z
  ??4NcRxObjectPtr@@QEAAAEAV0@AEBVNcBaseObjectPtr@@@Z
  ??4NcRxObjectPtr@@QEAAAEAV0@PEBVOdRxObject@@@Z
  ??4NcRxOverrule@@QEAAAEAV0@AEBV0@@Z
  ??4NcRxProtocolReactor@@QEAAAEAV0@$$QEAV0@@Z
  ??4NcRxProtocolReactor@@QEAAAEAV0@AEBV0@@Z
  ??4NcRxProtocolReactorIterator@@QEAAAEAV0@$$QEAV0@@Z
  ??4NcRxProtocolReactorIterator@@QEAAAEAV0@AEBV0@@Z
  ??4NcRxProtocolReactorList@@QEAAAEAV0@$$QEAV0@@Z
  ??4NcRxProtocolReactorList@@QEAAAEAV0@AEBV0@@Z
  ??4NcRxProtocolReactorListIterator@@QEAAAEAV0@$$QEAV0@@Z
  ??4NcRxProtocolReactorListIterator@@QEAAAEAV0@AEBV0@@Z
  ??4NcRxProtocolReactorManager@@QEAAAEAV0@$$QEAV0@@Z
  ??4NcRxProtocolReactorManager@@QEAAAEAV0@AEBV0@@Z
  ??4NcRxProtocolReactorManagerFactory@@QEAAAEAV0@$$QEAV0@@Z
  ??4NcRxProtocolReactorManagerFactory@@QEAAAEAV0@AEBV0@@Z
  ??4NcRxService@@QEAAAEAV0@$$QEAV0@@Z
  ??4NcRxService@@QEAAAEAV0@AEBV0@@Z
  ??4NcRxVariableChangedEventArgs@@QEAAAEAV0@$$QEAV0@@Z
  ??4NcRxVariableChangedEventArgs@@QEAAAEAV0@AEBV0@@Z
  ??4NcRxVariableChangingEventArgs@@QEAAAEAV0@$$QEAV0@@Z
  ??4NcRxVariableChangingEventArgs@@QEAAAEAV0@AEBV0@@Z
  ??4NcRxVariablesDictionary@@QEAAAEAV0@AEBV0@@Z
  ??4NcString@@QEAAAEAV0@AEBV0@@Z
  ??4NcString@@QEAAAEAV0@AEBV?$CStringT@_WV?$StrTraitMFC_DLL@_WV?$ChTraitsCRT@_W@ATL@@@@@ATL@@@Z
  ??4NcString@@QEAAAEAV0@AEBVNcDbHandle@@@Z
  ??4NcString@@QEAAAEAV0@D@Z
  ??4NcString@@QEAAAEAV0@PEBD@Z
  ??4NcString@@QEAAAEAV0@PEBVOdString@@@Z
  ??4NcString@@QEAAAEAV0@PEB_W@Z
  ??4NcString@@QEAAAEAV0@_W@Z
  ??4NcSymmetricConstraint@@QEAAAEAV0@$$QEAV0@@Z
  ??4NcSymmetricConstraint@@QEAAAEAV0@AEBV0@@Z
  ??4NcTangentConstraint@@QEAAAEAV0@$$QEAV0@@Z
  ??4NcTangentConstraint@@QEAAAEAV0@AEBV0@@Z
  ??4NcTransaction@@QEAAAEAV0@AEBV0@@Z
  ??4NcTransactionManager@@QEAAAEAV0@$$QEAV0@@Z
  ??4NcTransactionManager@@QEAAAEAV0@AEBV0@@Z
  ??4NcTransactionReactor@@QEAAAEAV0@$$QEAV0@@Z
  ??4NcTransactionReactor@@QEAAAEAV0@AEBV0@@Z
  ??4NcUnderlayLayer@@QEAAAEAV0@AEBV0@@Z
  ??4NcValue@@QEAAAEAV0@AEBUresbuf@@@Z
  ??4NcValue@@QEAAAEAV0@AEBUtagVARIANT@@@Z
  ??4NcValue@@QEAAAEAV0@AEBV0@@Z
  ??4NcValue@@QEAAAEAV0@AEBVNcCmColor@@@Z
  ??4NcValue@@QEAAAEAV0@AEBVNcDbEvalVariant@@@Z
  ??4NcValue@@QEAAAEAV0@AEBVNcDbObjectId@@@Z
  ??4NcValue@@QEAAAEAV0@AEBVNcGePoint2d@@@Z
  ??4NcValue@@QEAAAEAV0@AEBVNcGePoint3d@@@Z
  ??4NcValue@@QEAAAEAV0@J@Z
  ??4NcValue@@QEAAAEAV0@N@Z
  ??4NcValue@@QEAAAEAV0@PEB_W@Z
  ??4NcValue@@QEAAAEAV0@_J@Z
  ??4NcVerticalConstraint@@QEAAAEAV0@$$QEAV0@@Z
  ??4NcVerticalConstraint@@QEAAAEAV0@AEBV0@@Z
  ??4NcViewFrustum@@QEAAAEAV0@AEBV0@@Z
  ??4NrxGateDBGlobals@@QEAAAEAV0@AEBV0@@Z
  ??4NsdkHlrCollector@@QEAAAEAV0@AEBV0@@Z
  ??4NsdkHlrData@@QEAAAEAV0@AEBV0@@Z
  ??4NsdkHlrEngine@@QEAAAEAV0@AEBV0@@Z
  ??4NtilFormatCodecLibrary@Ntil@@QEAAAEAU01@$$QEAU01@@Z
  ??4NtilFormatCodecLibrary@Ntil@@QEAAAEAU01@AEBU01@@Z
  ??4OPMPerInstancePropertyExtension@@QEAAAEAV0@AEBV0@@Z
  ??4OPMPerInstancePropertyExtensionFactory@@QEAAAEAV0@AEBV0@@Z
  ??4OPMPerInstancePropertySources@@QEAAAEAV0@AEBV0@@Z
  ??4OPMPropertyExtension@@QEAAAEAV0@AEBV0@@Z
  ??4OPMPropertyExtensionFactory@@QEAAAEAV0@AEBV0@@Z
  ??4ObjectReactorsStorage@@QEAAAEAV0@AEBV0@@Z
  ??4Offset@Ntil@@QEAAAEAV01@AEBV01@@Z
  ??4PixelSelectorInterface@Ntil@@QEAAAEAV01@AEBV01@@Z
  ??4PngCompressionType@Ntil@@QEAAAEAV01@AEBV01@@Z
  ??4PngCustomProperty@Ntil@@QEAAAEAV01@AEBV01@@Z
  ??4PngFormatCodec@Ntil@@QEAAAEAV01@AEBV01@@Z
  ??4PngGamma@Ntil@@QEAAAEAV01@AEBV01@@Z
  ??4PngGraySignificantBits@Ntil@@QEAAAEAV01@AEBV01@@Z
  ??4PngHistogram@Ntil@@QEAAAEAV01@AEBV01@@Z
  ??4PngInterlacing@Ntil@@QEAAAEAV01@AEBV01@@Z
  ??4PngText@Ntil@@QEAAAEAV01@AEBV01@@Z
  ??4Point2d@Ntil@@QEAAAEAV01@AEBV01@@Z
  ??4Resample@Ntil@@QEAAAEAU01@$$QEAU01@@Z
  ??4Resample@Ntil@@QEAAAEAU01@AEBU01@@Z
  ??4RgbColor10@Ntil@@QEAAAEBU01@AEBU01@@Z
  ??4RgbColor10@Ntil@@QEAAAEBU01@I@Z
  ??4RgbColor16f@Ntil@@QEAAAEBU01@AEBU01@@Z
  ??4RgbColor16f@Ntil@@QEAAAEBU01@_K@Z
  ??4RgbColor16i@Ntil@@QEAAAEBU01@AEBU01@@Z
  ??4RgbColor16i@Ntil@@QEAAAEBU01@_K@Z
  ??4RgbColor32f@Ntil@@QEAAAEBU01@AEBU01@@Z
  ??4RgbColor32f@Ntil@@QEAAAEBU01@U_NTIL_DATA128@1@@Z
  ??4RgbColor5b@Ntil@@QEAAAEBU01@AEBU01@@Z
  ??4RgbColor5b@Ntil@@QEAAAEBU01@G@Z
  ??4RgbColor@Ntil@@QEAAAEBU01@AEBU01@@Z
  ??4RgbColor@Ntil@@QEAAAEBU01@I@Z
  ??4RgbGrayModel@Ntil@@QEAAAEAV01@AEBV01@@Z
  ??4RgbModel@Ntil@@QEAAAEAV01@AEBV01@@Z
  ??4RgbPaletteModel@Ntil@@QEAAAEAV01@AEBV01@@Z
  ??4RgbPaletteModelException@Ntil@@QEAAAEAV01@AEBV01@@Z
  ??4RowProviderInterface@Ntil@@QEAAAEAV01@AEBV01@@Z
  ??4RxClassStorage@@QEAAAEAV0@AEBV0@@Z
  ??4SeekableDataStreamInterface@Ntil@@QEAAAEAV01@AEBV01@@Z
  ??4Shear@Ntil@@QEAAAEAU01@$$QEAU01@@Z
  ??4Shear@Ntil@@QEAAAEAU01@AEBU01@@Z
  ??4Size@Ntil@@QEAAAEBV01@AEBV01@@Z
  ??4SpanProviderInterface@Ntil@@QEAAAEAV01@AEBV01@@Z
  ??4StringBuffer@Ntil@@QEAAAEAV01@AEBV01@@Z
  ??4TiffCompressionType@Ntil@@QEAAAEAV01@AEBV01@@Z
  ??4TiffFormatCodec@Ntil@@QEAAAEAV01@AEBV01@@Z
  ??4TiffGrayResponseCurve@Ntil@@QEAAAEAV01@AEBV01@@Z
  ??4TiffPrivateTag@Ntil@@QEAAAEAV01@AEBV01@@Z
  ??4TiffProperty@Ntil@@QEAAAEAV01@AEBV01@@Z
  ??4TiffText@Ntil@@QEAAAEAV01@AEBV01@@Z
  ??4Vector2d@Ntil@@QEAAAEAV01@AEBV01@@Z
  ??4VectorUL@Ntil@@QEAAAEAV01@AEBV01@@Z
  ??4half@Ntil@@QEAAAEAV01@M@Z
  ??4half@Ntil@@QEAAAEAV01@V01@@Z
  ??4pair@@QEAAAEAU0@$$QEAU0@@Z
  ??4pair@@QEAAAEAU0@AEBU0@@Z
  ??4resbuf@@QEAAAEAU0@$$QEAU0@@Z
  ??4resbuf@@QEAAAEAU0@AEBU0@@Z
  ??8?$HostArray@HV?$HostMemoryAllocator@H@@@@QEBA_NAEBV0@@Z
  ??8?$HostArray@NV?$HostMemoryAllocator@N@@@@QEBA_NAEBV0@@Z
  ??8?$HostArray@PEAUHINSTANCE__@@V?$HostObjectsAllocator@PEAUHINSTANCE__@@@@@@QEBA_NAEBV0@@Z
  ??8?$HostArray@PEAVNcDb2dVertex@@V?$HostObjectsAllocator@PEAVNcDb2dVertex@@@@@@QEBA_NAEBV0@@Z
  ??8?$HostArray@PEAVNcDb3dPolylineVertex@@V?$HostObjectsAllocator@PEAVNcDb3dPolylineVertex@@@@@@QEBA_NAEBV0@@Z
  ??8?$HostArray@PEAVNcDbDimData@@V?$HostMemoryAllocator@PEAVNcDbDimData@@@@@@QEBA_NAEBV0@@Z
  ??8?$HostArray@PEAVNcDbEntity@@V?$HostObjectsAllocator@PEAVNcDbEntity@@@@@@QEBA_NAEBV0@@Z
  ??8?$HostArray@PEAVNcDbGripData@@V?$HostMemoryAllocator@PEAVNcDbGripData@@@@@@QEBA_NAEBV0@@Z
  ??8?$HostArray@PEAVNcDbNurbSurface@@V?$HostObjectsAllocator@PEAVNcDbNurbSurface@@@@@@QEBA_NAEBV0@@Z
  ??8?$HostArray@PEAVNcDbPolygonMeshVertex@@V?$HostObjectsAllocator@PEAVNcDbPolygonMeshVertex@@@@@@QEBA_NAEBV0@@Z
  ??8?$HostArray@PEAVNcDbVertex@@V?$HostObjectsAllocator@PEAVNcDbVertex@@@@@@QEBA_NAEBV0@@Z
  ??8?$HostArray@PEAVNcLyLayerFilter@@V?$HostObjectsAllocator@PEAVNcLyLayerFilter@@@@@@QEBA_NAEBV0@@Z
  ??8?$HostArray@PEAVNcTransaction@@V?$HostObjectsAllocator@PEAVNcTransaction@@@@@@QEBA_NAEBV0@@Z
  ??8?$HostArray@PEAVNsdkHlrData@@V?$HostObjectsAllocator@PEAVNsdkHlrData@@@@@@QEBA_NAEBV0@@Z
  ??8?$HostArray@PEAVOdDbEntity@@V?$HostObjectsAllocator@PEAVOdDbEntity@@@@@@QEBA_NAEBV0@@Z
  ??8?$HostArray@PEAXV?$HostMemoryAllocator@PEAX@@@@QEBA_NAEBV0@@Z
  ??8?$HostArray@VMcGeVector2d@@V?$HostMemoryAllocator@VMcGeVector2d@@@@@@QEBA_NAEBV0@@Z
  ??8?$HostArray@VNcDbEvalVariant@@V?$HostMemoryAllocator@VNcDbEvalVariant@@@@@@QEBA_NAEBV0@@Z
  ??8?$HostArray@VNcDbFullSubentPath@@V?$HostObjectsAllocator@VNcDbFullSubentPath@@@@@@QEBA_NAEBV0@@Z
  ??8?$HostArray@VNcDbObjectId@@V?$HostObjectsAllocator@VNcDbObjectId@@@@@@QEBA_NAEBV0@@Z
  ??8?$HostArray@VNcGePoint2d@@V?$HostMemoryAllocator@VNcGePoint2d@@@@@@QEBA_NAEBV0@@Z
  ??8?$HostArray@VNcGePoint3d@@V?$HostMemoryAllocator@VNcGePoint3d@@@@@@QEBA_NAEBV0@@Z
  ??8?$HostArray@VNcGeVector3d@@V?$HostMemoryAllocator@VNcGeVector3d@@@@@@QEBA_NAEBV0@@Z
  ??8?$HostArray@_JV?$HostMemoryAllocator@_J@@@@QEBA_NAEBV0@@Z
  ??8?$NcArray@HV?$HostMemoryAllocator@H@@@@QEBA_NAEBV0@@Z
  ??8?$NcArray@NV?$HostMemoryAllocator@N@@@@QEBA_NAEBV0@@Z
  ??8?$NcArray@PEAUHINSTANCE__@@V?$HostObjectsAllocator@PEAUHINSTANCE__@@@@@@QEBA_NAEBV0@@Z
  ??8?$NcArray@PEAVNcDb2dVertex@@V?$HostObjectsAllocator@PEAVNcDb2dVertex@@@@@@QEBA_NAEBV0@@Z
  ??8?$NcArray@PEAVNcDb3dPolylineVertex@@V?$HostObjectsAllocator@PEAVNcDb3dPolylineVertex@@@@@@QEBA_NAEBV0@@Z
  ??8?$NcArray@PEAVNcDbDimData@@V?$HostMemoryAllocator@PEAVNcDbDimData@@@@@@QEBA_NAEBV0@@Z
  ??8?$NcArray@PEAVNcDbEntity@@V?$HostObjectsAllocator@PEAVNcDbEntity@@@@@@QEBA_NAEBV0@@Z
  ??8?$NcArray@PEAVNcDbGripData@@V?$HostMemoryAllocator@PEAVNcDbGripData@@@@@@QEBA_NAEBV0@@Z
  ??8?$NcArray@PEAVNcDbNurbSurface@@V?$HostObjectsAllocator@PEAVNcDbNurbSurface@@@@@@QEBA_NAEBV0@@Z
  ??8?$NcArray@PEAVNcDbPolygonMeshVertex@@V?$HostObjectsAllocator@PEAVNcDbPolygonMeshVertex@@@@@@QEBA_NAEBV0@@Z
  ??8?$NcArray@PEAVNcDbVertex@@V?$HostObjectsAllocator@PEAVNcDbVertex@@@@@@QEBA_NAEBV0@@Z
  ??8?$NcArray@PEAVNcLyLayerFilter@@V?$HostObjectsAllocator@PEAVNcLyLayerFilter@@@@@@QEBA_NAEBV0@@Z
  ??8?$NcArray@PEAVNcTransaction@@V?$HostObjectsAllocator@PEAVNcTransaction@@@@@@QEBA_NAEBV0@@Z
  ??8?$NcArray@PEAVNsdkHlrData@@V?$HostObjectsAllocator@PEAVNsdkHlrData@@@@@@QEBA_NAEBV0@@Z
  ??8?$NcArray@PEAVOdDbEntity@@V?$HostObjectsAllocator@PEAVOdDbEntity@@@@@@QEBA_NAEBV0@@Z
  ??8?$NcArray@PEAXV?$HostMemoryAllocator@PEAX@@@@QEBA_NAEBV0@@Z
  ??8?$NcArray@VMcGeVector2d@@V?$HostMemoryAllocator@VMcGeVector2d@@@@@@QEBA_NAEBV0@@Z
  ??8?$NcArray@VNcDbEvalVariant@@V?$HostMemoryAllocator@VNcDbEvalVariant@@@@@@QEBA_NAEBV0@@Z
  ??8?$NcArray@VNcDbFullSubentPath@@V?$HostObjectsAllocator@VNcDbFullSubentPath@@@@@@QEBA_NAEBV0@@Z
  ??8?$NcArray@VNcDbObjectId@@V?$HostObjectsAllocator@VNcDbObjectId@@@@@@QEBA_NAEBV0@@Z
  ??8?$NcArray@VNcGePoint2d@@V?$HostMemoryAllocator@VNcGePoint2d@@@@@@QEBA_NAEBV0@@Z
  ??8?$NcArray@VNcGePoint3d@@V?$HostMemoryAllocator@VNcGePoint3d@@@@@@QEBA_NAEBV0@@Z
  ??8?$NcArray@VNcGeVector3d@@V?$HostMemoryAllocator@VNcGeVector3d@@@@@@QEBA_NAEBV0@@Z
  ??8?$NcArray@_JV?$HostMemoryAllocator@_J@@@@QEBA_NAEBV0@@Z
  ??8CNsiApproxNum@@UEBAHAEBVCNsiDecimal@@@Z
  ??8CNsiApproxNum@@UEBAHAEBVCNsiDouble@@@Z
  ??8CNsiApproxNum@@UEBAHAEBVCNsiFloat@@@Z
  ??8CNsiApproxNum@@UEBAHAEBVCNsiInt@@@Z
  ??8CNsiApproxNum@@UEBAHAEBVCNsiNumeric@@@Z
  ??8CNsiApproxNum@@UEBAHAEBVCNsiReal@@@Z
  ??8CNsiApproxNum@@UEBAHAEBVCNsiSmallInt@@@Z
  ??8CNsiApproxNum@@UEBAHF@Z
  ??8CNsiApproxNum@@UEBAHH@Z
  ??8CNsiApproxNum@@UEBAHJ@Z
  ??8CNsiApproxNum@@UEBAHN@Z
  ??8CNsiBinary@@QEBAHAEBV0@@Z
  ??8CNsiChar@@QEBAHAEBV0@@Z
  ??8CNsiChar@@QEBAHAEBVCNsiUcStr@@@Z
  ??8CNsiDT@@QEBAHAEBV0@@Z
  ??8CNsiDate@@QEBAHAEBV0@@Z
  ??8CNsiExactNum@@UEBAHAEBVCNsiDecimal@@@Z
  ??8CNsiExactNum@@UEBAHAEBVCNsiDouble@@@Z
  ??8CNsiExactNum@@UEBAHAEBVCNsiFloat@@@Z
  ??8CNsiExactNum@@UEBAHAEBVCNsiInt@@@Z
  ??8CNsiExactNum@@UEBAHAEBVCNsiNumeric@@@Z
  ??8CNsiExactNum@@UEBAHAEBVCNsiReal@@@Z
  ??8CNsiExactNum@@UEBAHAEBVCNsiSmallInt@@@Z
  ??8CNsiExactNum@@UEBAHF@Z
  ??8CNsiExactNum@@UEBAHH@Z
  ??8CNsiExactNum@@UEBAHJ@Z
  ??8CNsiExactNum@@UEBAHN@Z
  ??8CNsiIdent@@QEBAHAEBV0@@Z
  ??8CNsiNum@@UEBAHAEBVCNsiDecimal@@@Z
  ??8CNsiNum@@UEBAHAEBVCNsiDouble@@@Z
  ??8CNsiNum@@UEBAHAEBVCNsiFloat@@@Z
  ??8CNsiNum@@UEBAHAEBVCNsiInt@@@Z
  ??8CNsiNum@@UEBAHAEBVCNsiNumeric@@@Z
  ??8CNsiNum@@UEBAHAEBVCNsiReal@@@Z
  ??8CNsiNum@@UEBAHAEBVCNsiSmallInt@@@Z
  ??8CNsiNum@@UEBAHF@Z
  ??8CNsiNum@@UEBAHH@Z
  ??8CNsiNum@@UEBAHJ@Z
  ??8CNsiNum@@UEBAHN@Z
  ??8CNsiTime@@QEBAHAEBV0@@Z
  ??8CNsiTimeStamp@@QEBAHAEBV0@@Z
  ??8CNsiYM@@QEBAHAEBV0@@Z
  ??8DataModel@Ntil@@UEBA_NAEBV01@@Z
  ??8FileSpecifier@Ntil@@UEAA_NAEBV01@@Z
  ??8Image@Ntil@@QEBA_NAEBV01@@Z
  ??8ImagePixel@Ntil@@QEBA_NAEBU01@@Z
  ??8ImageRep@Ntil@@UEBA_NAEBV01@@Z
  ??8Matrix2d@Ntil@@QEBA_NAEBV01@@Z
  ??8NcCmColor@@QEBA_NAEBV0@@Z
  ??8NcCmColor@@QEBA_NAEBVNcCmColorBase@@@Z
  ??8NcCmEntityColor@@QEBA_NAEBV0@@Z
  ??8NcCmTransparency@@QEAA_NAEBV0@@Z
  ??8NcDbCompoundObjectId@@QEBA_NAEBV0@@Z
  ??8NcDbDataCell@@UEBA_NAEBV0@@Z
  ??8NcDbDate@@QEBA_NAEBV0@@Z
  ??8NcDbEvalEdgeInfo@@QEBA_NAEBV0@@Z
  ??8NcDbEvalVariant@@QEBA_NAEBV0@@Z
  ??8NcDbExtents@@QEBA_NAEBV0@@Z
  ??8NcDbFullSubentPath@@QEBA_NAEBV0@@Z
  ??8NcDbHandle@@QEBA_NAEBV0@@Z
  ??8NcDbHardOwnershipId@@QEBA_NAEBVNcDbObjectId@@@Z
  ??8NcDbHardOwnershipId@@QEBA_NPEBVOdDbStub@@@Z
  ??8NcDbHardPointerId@@QEBA_NAEBVNcDbObjectId@@@Z
  ??8NcDbHardPointerId@@QEBA_NPEBVOdDbStub@@@Z
  ??8NcDbHomeView@@QEBA_NAEBV0@@Z
  ??8NcDbMentalRayRenderSettings@@UEAA_NAEBV0@@Z
  ??8NcDbObjectId@@QEBA_NAEBV0@@Z
  ??8NcDbObjectId@@QEBA_NPEBVOdDbStub@@@Z
  ??8NcDbR13ObjectId@@QEBA_NAEBV0@@Z
  ??8NcDbR13ObjectId@@QEBA_NPEBVOdDbStub@@@Z
  ??8NcDbRenderEnvironment@@UEAA_NAEBV0@@Z
  ??8NcDbRenderSettings@@UEAA_NAEBV0@@Z
  ??8NcDbSoftOwnershipId@@QEBA_NAEBVNcDbObjectId@@@Z
  ??8NcDbSoftOwnershipId@@QEBA_NPEBVOdDbStub@@@Z
  ??8NcDbSoftPointerId@@QEBA_NAEBVNcDbObjectId@@@Z
  ??8NcDbSoftPointerId@@QEBA_NPEBVOdDbStub@@@Z
  ??8NcDbSubentId@@QEBA_NAEBV0@@Z
  ??8NcGUID@@QEBA_NAEBV0@@Z
  ??8NcGUID@@QEBA_NAEBVOdGUID@@@Z
  ??8NcGeEntity2d@@QEBAHAEBV0@@Z
  ??8NcGeEntity3d@@UEBAHAEBV0@@Z
  ??8NcGeLibVersion@@QEBAHAEBV0@@Z
  ??8NcGeMatrix3d@@QEBA_NAEBV0@@Z
  ??8NcGePoint3d@@QEBA_NAEBV0@@Z
  ??8NcGeScale2d@@QEBA_NAEBV0@@Z
  ??8NcGeScale3d@@QEBA_NAEBV0@@Z
  ??8NcGeSurface@@UEBAHAEBVNcGeEntity3d@@@Z
  ??8NcGeVector3d@@QEBA_NAEBV0@@Z
  ??8NcGiDisplayStyle@@UEBA_NAEBV0@@Z
  ??8NcGiEdgeStyle@@UEBA_NAEBV0@@Z
  ??8NcGiFaceStyle@@UEBA_NAEBV0@@Z
  ??8NcGiGenericTexture@@UEBA_NAEBVNcGiMaterialTexture@@@Z
  ??8NcGiImageFileTexture@@UEBA_NAEBVNcGiMaterialTexture@@@Z
  ??8NcGiLightAttenuation@@QEBA_NAEBV0@@Z
  ??8NcGiMapper@@QEBA_NAEBV0@@Z
  ??8NcGiMarbleTexture@@UEBA_NAEBVNcGiMaterialTexture@@@Z
  ??8NcGiMaterialColor@@QEBA_NAEBV0@@Z
  ??8NcGiMaterialMap@@QEBA_NAEBV0@@Z
  ??8NcGiMaterialTexture@@UEBA_NAEBV0@@Z
  ??8NcGiShadowParameters2@@QEBA_NAEBV0@@Z
  ??8NcGiShadowParameters@@QEBA_NAEBV0@@Z
  ??8NcGiSkyParameters@@QEBA_NAEBV0@@Z
  ??8NcGiToneOperatorParameters@@QEBA_NAEBV0@@Z
  ??8NcGiVariant@@UEBA_NAEBV0@@Z
  ??8NcGiWoodTexture@@UEBA_NAEBVNcGiMaterialTexture@@@Z
  ??8NcGsDCPoint@@QEBA_NAEBV0@@Z
  ??8NcGsDCRect@@QEBA_NAEBV0@@Z
  ??8NcRxObjectPtr@@QEBA_NPEBVOdRxObject@@@Z
  ??8NcString@@QEBA_NAEBV0@@Z
  ??8NcString@@QEBA_NAEBV?$CStringT@_WV?$StrTraitMFC_DLL@_WV?$ChTraitsCRT@_W@ATL@@@@@ATL@@@Z
  ??8NcString@@QEBA_NPEBD@Z
  ??8NcString@@QEBA_NPEB_W@Z
  ??8NcString@@QEBA_N_W@Z
  ??8NcValue@@QEBA_NAEBV0@@Z
  ??8Offset@Ntil@@QEBA_NAEBV01@@Z
  ??8Point2d@Ntil@@QEBA_NAEBV01@@Z
  ??8RgbColor10@Ntil@@QEBA_NAEBU01@@Z
  ??8RgbColor10@Ntil@@QEBA_NI@Z
  ??8RgbColor16f@Ntil@@QEBA_NAEBU01@@Z
  ??8RgbColor16f@Ntil@@QEBA_N_K@Z
  ??8RgbColor16i@Ntil@@QEBA_NAEBU01@@Z
  ??8RgbColor16i@Ntil@@QEBA_N_K@Z
  ??8RgbColor32f@Ntil@@QEBA_NAEBU01@@Z
  ??8RgbColor32f@Ntil@@QEBA_NU_NTIL_DATA128@1@@Z
  ??8RgbColor5b@Ntil@@QEBA_NAEBU01@@Z
  ??8RgbColor5b@Ntil@@QEBA_NG@Z
  ??8RgbColor@Ntil@@QEBA_NAEBU01@@Z
  ??8RgbColor@Ntil@@QEBA_NI@Z
  ??8RgbPaletteModel@Ntil@@UEBA_NAEBVDataModel@1@@Z
  ??8Size@Ntil@@QEBA_NAEBV01@@Z
  ??8StringBuffer@Ntil@@QEBA_NAEBV01@@Z
  ??8Vector2d@Ntil@@UEBA_NAEBV01@@Z
  ??9?$HostArray@HV?$HostMemoryAllocator@H@@@@QEBA_NAEBV0@@Z
  ??9?$HostArray@NV?$HostMemoryAllocator@N@@@@QEBA_NAEBV0@@Z
  ??9?$HostArray@PEAUHINSTANCE__@@V?$HostObjectsAllocator@PEAUHINSTANCE__@@@@@@QEBA_NAEBV0@@Z
  ??9?$HostArray@PEAVNcDb2dVertex@@V?$HostObjectsAllocator@PEAVNcDb2dVertex@@@@@@QEBA_NAEBV0@@Z
  ??9?$HostArray@PEAVNcDb3dPolylineVertex@@V?$HostObjectsAllocator@PEAVNcDb3dPolylineVertex@@@@@@QEBA_NAEBV0@@Z
  ??9?$HostArray@PEAVNcDbDimData@@V?$HostMemoryAllocator@PEAVNcDbDimData@@@@@@QEBA_NAEBV0@@Z
  ??9?$HostArray@PEAVNcDbEntity@@V?$HostObjectsAllocator@PEAVNcDbEntity@@@@@@QEBA_NAEBV0@@Z
  ??9?$HostArray@PEAVNcDbGripData@@V?$HostMemoryAllocator@PEAVNcDbGripData@@@@@@QEBA_NAEBV0@@Z
  ??9?$HostArray@PEAVNcDbNurbSurface@@V?$HostObjectsAllocator@PEAVNcDbNurbSurface@@@@@@QEBA_NAEBV0@@Z
  ??9?$HostArray@PEAVNcDbPolygonMeshVertex@@V?$HostObjectsAllocator@PEAVNcDbPolygonMeshVertex@@@@@@QEBA_NAEBV0@@Z
  ??9?$HostArray@PEAVNcDbVertex@@V?$HostObjectsAllocator@PEAVNcDbVertex@@@@@@QEBA_NAEBV0@@Z
  ??9?$HostArray@PEAVNcLyLayerFilter@@V?$HostObjectsAllocator@PEAVNcLyLayerFilter@@@@@@QEBA_NAEBV0@@Z
  ??9?$HostArray@PEAVNcTransaction@@V?$HostObjectsAllocator@PEAVNcTransaction@@@@@@QEBA_NAEBV0@@Z
  ??9?$HostArray@PEAVNsdkHlrData@@V?$HostObjectsAllocator@PEAVNsdkHlrData@@@@@@QEBA_NAEBV0@@Z
  ??9?$HostArray@PEAVOdDbEntity@@V?$HostObjectsAllocator@PEAVOdDbEntity@@@@@@QEBA_NAEBV0@@Z
  ??9?$HostArray@PEAXV?$HostMemoryAllocator@PEAX@@@@QEBA_NAEBV0@@Z
  ??9?$HostArray@VMcGeVector2d@@V?$HostMemoryAllocator@VMcGeVector2d@@@@@@QEBA_NAEBV0@@Z
  ??9?$HostArray@VNcDbEvalVariant@@V?$HostMemoryAllocator@VNcDbEvalVariant@@@@@@QEBA_NAEBV0@@Z
  ??9?$HostArray@VNcDbFullSubentPath@@V?$HostObjectsAllocator@VNcDbFullSubentPath@@@@@@QEBA_NAEBV0@@Z
  ??9?$HostArray@VNcDbObjectId@@V?$HostObjectsAllocator@VNcDbObjectId@@@@@@QEBA_NAEBV0@@Z
  ??9?$HostArray@VNcGePoint2d@@V?$HostMemoryAllocator@VNcGePoint2d@@@@@@QEBA_NAEBV0@@Z
  ??9?$HostArray@VNcGePoint3d@@V?$HostMemoryAllocator@VNcGePoint3d@@@@@@QEBA_NAEBV0@@Z
  ??9?$HostArray@VNcGeVector3d@@V?$HostMemoryAllocator@VNcGeVector3d@@@@@@QEBA_NAEBV0@@Z
  ??9?$HostArray@_JV?$HostMemoryAllocator@_J@@@@QEBA_NAEBV0@@Z
  ??9CNsiApproxNum@@UEBAHAEBVCNsiDecimal@@@Z
  ??9CNsiApproxNum@@UEBAHAEBVCNsiDouble@@@Z
  ??9CNsiApproxNum@@UEBAHAEBVCNsiFloat@@@Z
  ??9CNsiApproxNum@@UEBAHAEBVCNsiInt@@@Z
  ??9CNsiApproxNum@@UEBAHAEBVCNsiNumeric@@@Z
  ??9CNsiApproxNum@@UEBAHAEBVCNsiReal@@@Z
  ??9CNsiApproxNum@@UEBAHAEBVCNsiSmallInt@@@Z
  ??9CNsiApproxNum@@UEBAHF@Z
  ??9CNsiApproxNum@@UEBAHH@Z
  ??9CNsiApproxNum@@UEBAHJ@Z
  ??9CNsiApproxNum@@UEBAHN@Z
  ??9CNsiBinary@@QEBAHAEBV0@@Z
  ??9CNsiChar@@QEBAHAEBV0@@Z
  ??9CNsiChar@@QEBAHAEBVCNsiUcStr@@@Z
  ??9CNsiDT@@QEBAHAEBV0@@Z
  ??9CNsiDate@@QEBAHAEBV0@@Z
  ??9CNsiExactNum@@UEBAHAEBVCNsiDecimal@@@Z
  ??9CNsiExactNum@@UEBAHAEBVCNsiDouble@@@Z
  ??9CNsiExactNum@@UEBAHAEBVCNsiFloat@@@Z
  ??9CNsiExactNum@@UEBAHAEBVCNsiInt@@@Z
  ??9CNsiExactNum@@UEBAHAEBVCNsiNumeric@@@Z
  ??9CNsiExactNum@@UEBAHAEBVCNsiReal@@@Z
  ??9CNsiExactNum@@UEBAHAEBVCNsiSmallInt@@@Z
  ??9CNsiExactNum@@UEBAHF@Z
  ??9CNsiExactNum@@UEBAHH@Z
  ??9CNsiExactNum@@UEBAHJ@Z
  ??9CNsiExactNum@@UEBAHN@Z
  ??9CNsiNum@@UEBAHAEBVCNsiDecimal@@@Z
  ??9CNsiNum@@UEBAHAEBVCNsiDouble@@@Z
  ??9CNsiNum@@UEBAHAEBVCNsiFloat@@@Z
  ??9CNsiNum@@UEBAHAEBVCNsiInt@@@Z
  ??9CNsiNum@@UEBAHAEBVCNsiNumeric@@@Z
  ??9CNsiNum@@UEBAHAEBVCNsiReal@@@Z
  ??9CNsiNum@@UEBAHAEBVCNsiSmallInt@@@Z
  ??9CNsiNum@@UEBAHF@Z
  ??9CNsiNum@@UEBAHH@Z
  ??9CNsiNum@@UEBAHJ@Z
  ??9CNsiNum@@UEBAHN@Z
  ??9CNsiTime@@QEBAHAEBV0@@Z
  ??9CNsiTimeStamp@@QEBAHAEBV0@@Z
  ??9CNsiYM@@QEBAHAEBV0@@Z
  ??9DataModel@Ntil@@UEBA_NAEBV01@@Z
  ??9FileSpecifier@Ntil@@UEAA_NAEBV01@@Z
  ??9Image@Ntil@@QEBA_NAEBV01@@Z
  ??9ImagePixel@Ntil@@QEBA_NAEBU01@@Z
  ??9Matrix2d@Ntil@@QEBA_NAEBV01@@Z
  ??9NcCmColor@@QEBA_NAEBV0@@Z
  ??9NcCmColor@@QEBA_NAEBVNcCmColorBase@@@Z
  ??9NcCmEntityColor@@QEBA_NAEBV0@@Z
  ??9NcCmTransparency@@QEAA_NAEBV0@@Z
  ??9NcDbCompoundObjectId@@QEBA_NAEBV0@@Z
  ??9NcDbDataCell@@UEBA_NAEBV0@@Z
  ??9NcDbEvalVariant@@QEBA_NAEBV0@@Z
  ??9NcDbExtents@@QEBA_NAEBV0@@Z
  ??9NcDbFullSubentPath@@QEBA_NAEBV0@@Z
  ??9NcDbHandle@@QEBA_NAEBV0@@Z
  ??9NcDbHardOwnershipId@@QEBA_NAEBVNcDbObjectId@@@Z
  ??9NcDbHardOwnershipId@@QEBA_NPEBVOdDbStub@@@Z
  ??9NcDbHardPointerId@@QEBA_NAEBVNcDbObjectId@@@Z
  ??9NcDbHardPointerId@@QEBA_NPEBVOdDbStub@@@Z
  ??9NcDbHomeView@@QEBA_NAEBV0@@Z
  ??9NcDbObjectId@@QEBA_NAEBV0@@Z
  ??9NcDbObjectId@@QEBA_NPEBVOdDbStub@@@Z
  ??9NcDbR13ObjectId@@QEBA_NAEBV0@@Z
  ??9NcDbR13ObjectId@@QEBA_NPEBVOdDbStub@@@Z
  ??9NcDbSoftOwnershipId@@QEBA_NAEBVNcDbObjectId@@@Z
  ??9NcDbSoftOwnershipId@@QEBA_NPEBVOdDbStub@@@Z
  ??9NcDbSoftPointerId@@QEBA_NAEBVNcDbObjectId@@@Z
  ??9NcDbSoftPointerId@@QEBA_NPEBVOdDbStub@@@Z
  ??9NcDbSubentId@@QEBA_NAEBV0@@Z
  ??9NcGUID@@QEBA_NAEBV0@@Z
  ??9NcGUID@@QEBA_NAEBVOdGUID@@@Z
  ??9NcGeEntity2d@@QEBAHAEBV0@@Z
  ??9NcGeEntity3d@@UEBAHAEBV0@@Z
  ??9NcGeLibVersion@@QEBAHAEBV0@@Z
  ??9NcGeMatrix3d@@QEBA_NAEBV0@@Z
  ??9NcGePoint3d@@QEBA_NAEBV0@@Z
  ??9NcGeScale2d@@QEBA_NAEBV0@@Z
  ??9NcGeScale3d@@QEBA_NAEBV0@@Z
  ??9NcGeSurface@@UEBAHAEBVNcGeEntity3d@@@Z
  ??9NcGeVector3d@@QEBA_NAEBV0@@Z
  ??9NcGiMapper@@QEBA_NAEBV0@@Z
  ??9NcGsDCPoint@@QEBA_NAEBV0@@Z
  ??9NcGsDCRect@@QEBA_NAEBV0@@Z
  ??9NcRxObjectPtr@@QEBA_NPEBVOdRxObject@@@Z
  ??9NcString@@QEBA_NAEBV0@@Z
  ??9NcString@@QEBA_NAEBV?$CStringT@_WV?$StrTraitMFC_DLL@_WV?$ChTraitsCRT@_W@ATL@@@@@ATL@@@Z
  ??9NcString@@QEBA_NPEBD@Z
  ??9NcString@@QEBA_NPEB_W@Z
  ??9NcString@@QEBA_N_W@Z
  ??9NcValue@@QEBA_NAEBV0@@Z
  ??9Offset@Ntil@@QEBA_NAEBV01@@Z
  ??9Point2d@Ntil@@QEBA_NAEBV01@@Z
  ??9RgbColor10@Ntil@@QEBA_NAEBU01@@Z
  ??9RgbColor10@Ntil@@QEBA_NI@Z
  ??9RgbColor16f@Ntil@@QEBA_NAEBU01@@Z
  ??9RgbColor16f@Ntil@@QEBA_N_K@Z
  ??9RgbColor16i@Ntil@@QEBA_NAEBU01@@Z
  ??9RgbColor16i@Ntil@@QEBA_N_K@Z
  ??9RgbColor32f@Ntil@@QEBA_NAEBU01@@Z
  ??9RgbColor32f@Ntil@@QEBA_NU_NTIL_DATA128@1@@Z
  ??9RgbColor5b@Ntil@@QEBA_NAEBU01@@Z
  ??9RgbColor5b@Ntil@@QEBA_NG@Z
  ??9RgbColor@Ntil@@QEBA_NAEBU01@@Z
  ??9RgbColor@Ntil@@QEBA_NI@Z
  ??9RgbPaletteModel@Ntil@@UEBA_NAEBVDataModel@1@@Z
  ??9Size@Ntil@@QEBA_NAEBV01@@Z
  ??9StringBuffer@Ntil@@QEBA_NAEBV01@@Z
  ??9Vector2d@Ntil@@UEBA_NAEBV01@@Z
  ??A?$HostArray@HV?$HostMemoryAllocator@H@@@@QEAAAEAHI@Z
  ??A?$HostArray@HV?$HostMemoryAllocator@H@@@@QEBAAEBHI@Z
  ??A?$HostArray@NV?$HostMemoryAllocator@N@@@@QEAAAEANI@Z
  ??A?$HostArray@NV?$HostMemoryAllocator@N@@@@QEBAAEBNI@Z
  ??A?$HostArray@PEAUHINSTANCE__@@V?$HostObjectsAllocator@PEAUHINSTANCE__@@@@@@QEAAAEAPEAUHINSTANCE__@@I@Z
  ??A?$HostArray@PEAUHINSTANCE__@@V?$HostObjectsAllocator@PEAUHINSTANCE__@@@@@@QEBAAEBQEAUHINSTANCE__@@I@Z
  ??A?$HostArray@PEAVNcDb2dVertex@@V?$HostObjectsAllocator@PEAVNcDb2dVertex@@@@@@QEAAAEAPEAVNcDb2dVertex@@I@Z
  ??A?$HostArray@PEAVNcDb2dVertex@@V?$HostObjectsAllocator@PEAVNcDb2dVertex@@@@@@QEBAAEBQEAVNcDb2dVertex@@I@Z
  ??A?$HostArray@PEAVNcDb3dPolylineVertex@@V?$HostObjectsAllocator@PEAVNcDb3dPolylineVertex@@@@@@QEAAAEAPEAVNcDb3dPolylineVertex@@I@Z
  ??A?$HostArray@PEAVNcDb3dPolylineVertex@@V?$HostObjectsAllocator@PEAVNcDb3dPolylineVertex@@@@@@QEBAAEBQEAVNcDb3dPolylineVertex@@I@Z
  ??A?$HostArray@PEAVNcDbDimData@@V?$HostMemoryAllocator@PEAVNcDbDimData@@@@@@QEAAAEAPEAVNcDbDimData@@I@Z
  ??A?$HostArray@PEAVNcDbDimData@@V?$HostMemoryAllocator@PEAVNcDbDimData@@@@@@QEBAAEBQEAVNcDbDimData@@I@Z
  ??A?$HostArray@PEAVNcDbEntity@@V?$HostObjectsAllocator@PEAVNcDbEntity@@@@@@QEAAAEAPEAVNcDbEntity@@I@Z
  ??A?$HostArray@PEAVNcDbEntity@@V?$HostObjectsAllocator@PEAVNcDbEntity@@@@@@QEBAAEBQEAVNcDbEntity@@I@Z
  ??A?$HostArray@PEAVNcDbGripData@@V?$HostMemoryAllocator@PEAVNcDbGripData@@@@@@QEAAAEAPEAVNcDbGripData@@I@Z
  ??A?$HostArray@PEAVNcDbGripData@@V?$HostMemoryAllocator@PEAVNcDbGripData@@@@@@QEBAAEBQEAVNcDbGripData@@I@Z
  ??A?$HostArray@PEAVNcDbNurbSurface@@V?$HostObjectsAllocator@PEAVNcDbNurbSurface@@@@@@QEAAAEAPEAVNcDbNurbSurface@@I@Z
  ??A?$HostArray@PEAVNcDbNurbSurface@@V?$HostObjectsAllocator@PEAVNcDbNurbSurface@@@@@@QEBAAEBQEAVNcDbNurbSurface@@I@Z
  ??A?$HostArray@PEAVNcDbPolygonMeshVertex@@V?$HostObjectsAllocator@PEAVNcDbPolygonMeshVertex@@@@@@QEAAAEAPEAVNcDbPolygonMeshVertex@@I@Z
  ??A?$HostArray@PEAVNcDbPolygonMeshVertex@@V?$HostObjectsAllocator@PEAVNcDbPolygonMeshVertex@@@@@@QEBAAEBQEAVNcDbPolygonMeshVertex@@I@Z
  ??A?$HostArray@PEAVNcDbVertex@@V?$HostObjectsAllocator@PEAVNcDbVertex@@@@@@QEAAAEAPEAVNcDbVertex@@I@Z
  ??A?$HostArray@PEAVNcDbVertex@@V?$HostObjectsAllocator@PEAVNcDbVertex@@@@@@QEBAAEBQEAVNcDbVertex@@I@Z
  ??A?$HostArray@PEAVNcLyLayerFilter@@V?$HostObjectsAllocator@PEAVNcLyLayerFilter@@@@@@QEAAAEAPEAVNcLyLayerFilter@@I@Z
  ??A?$HostArray@PEAVNcLyLayerFilter@@V?$HostObjectsAllocator@PEAVNcLyLayerFilter@@@@@@QEBAAEBQEAVNcLyLayerFilter@@I@Z
  ??A?$HostArray@PEAVNcTransaction@@V?$HostObjectsAllocator@PEAVNcTransaction@@@@@@QEAAAEAPEAVNcTransaction@@I@Z
  ??A?$HostArray@PEAVNcTransaction@@V?$HostObjectsAllocator@PEAVNcTransaction@@@@@@QEBAAEBQEAVNcTransaction@@I@Z
  ??A?$HostArray@PEAVNsdkHlrData@@V?$HostObjectsAllocator@PEAVNsdkHlrData@@@@@@QEAAAEAPEAVNsdkHlrData@@I@Z
  ??A?$HostArray@PEAVNsdkHlrData@@V?$HostObjectsAllocator@PEAVNsdkHlrData@@@@@@QEBAAEBQEAVNsdkHlrData@@I@Z
  ??A?$HostArray@PEAVOdDbEntity@@V?$HostObjectsAllocator@PEAVOdDbEntity@@@@@@QEAAAEAPEAVOdDbEntity@@I@Z
  ??A?$HostArray@PEAVOdDbEntity@@V?$HostObjectsAllocator@PEAVOdDbEntity@@@@@@QEBAAEBQEAVOdDbEntity@@I@Z
  ??A?$HostArray@PEAXV?$HostMemoryAllocator@PEAX@@@@QEAAAEAPEAXI@Z
  ??A?$HostArray@PEAXV?$HostMemoryAllocator@PEAX@@@@QEBAAEBQEAXI@Z
  ??A?$HostArray@VMcGeVector2d@@V?$HostMemoryAllocator@VMcGeVector2d@@@@@@QEAAAEAVMcGeVector2d@@I@Z
  ??A?$HostArray@VMcGeVector2d@@V?$HostMemoryAllocator@VMcGeVector2d@@@@@@QEBAAEBVMcGeVector2d@@I@Z
  ??A?$HostArray@VNcDbEvalVariant@@V?$HostMemoryAllocator@VNcDbEvalVariant@@@@@@QEAAAEAVNcDbEvalVariant@@I@Z
  ??A?$HostArray@VNcDbEvalVariant@@V?$HostMemoryAllocator@VNcDbEvalVariant@@@@@@QEBAAEBVNcDbEvalVariant@@I@Z
  ??A?$HostArray@VNcDbFullSubentPath@@V?$HostObjectsAllocator@VNcDbFullSubentPath@@@@@@QEAAAEAVNcDbFullSubentPath@@I@Z
  ??A?$HostArray@VNcDbFullSubentPath@@V?$HostObjectsAllocator@VNcDbFullSubentPath@@@@@@QEBAAEBVNcDbFullSubentPath@@I@Z
  ??A?$HostArray@VNcDbObjectId@@V?$HostObjectsAllocator@VNcDbObjectId@@@@@@QEAAAEAVNcDbObjectId@@I@Z
  ??A?$HostArray@VNcDbObjectId@@V?$HostObjectsAllocator@VNcDbObjectId@@@@@@QEBAAEBVNcDbObjectId@@I@Z
  ??A?$HostArray@VNcGePoint2d@@V?$HostMemoryAllocator@VNcGePoint2d@@@@@@QEAAAEAVNcGePoint2d@@I@Z
  ??A?$HostArray@VNcGePoint2d@@V?$HostMemoryAllocator@VNcGePoint2d@@@@@@QEBAAEBVNcGePoint2d@@I@Z
  ??A?$HostArray@VNcGePoint3d@@V?$HostMemoryAllocator@VNcGePoint3d@@@@@@QEAAAEAVNcGePoint3d@@I@Z
  ??A?$HostArray@VNcGePoint3d@@V?$HostMemoryAllocator@VNcGePoint3d@@@@@@QEBAAEBVNcGePoint3d@@I@Z
  ??A?$HostArray@VNcGeVector3d@@V?$HostMemoryAllocator@VNcGeVector3d@@@@@@QEAAAEAVNcGeVector3d@@I@Z
  ??A?$HostArray@VNcGeVector3d@@V?$HostMemoryAllocator@VNcGeVector3d@@@@@@QEBAAEBVNcGeVector3d@@I@Z
  ??A?$HostArray@_JV?$HostMemoryAllocator@_J@@@@QEAAAEA_JI@Z
  ??A?$HostArray@_JV?$HostMemoryAllocator@_J@@@@QEBAAEB_JI@Z
  ??A?$NcArray@HV?$HostMemoryAllocator@H@@@@QEAAAEAHH@Z
  ??A?$NcArray@HV?$HostMemoryAllocator@H@@@@QEBAAEBHH@Z
  ??A?$NcArray@NV?$HostMemoryAllocator@N@@@@QEAAAEANH@Z
  ??A?$NcArray@NV?$HostMemoryAllocator@N@@@@QEBAAEBNH@Z
  ??A?$NcArray@PEAUHINSTANCE__@@V?$HostObjectsAllocator@PEAUHINSTANCE__@@@@@@QEAAAEAPEAUHINSTANCE__@@H@Z
  ??A?$NcArray@PEAUHINSTANCE__@@V?$HostObjectsAllocator@PEAUHINSTANCE__@@@@@@QEBAAEBQEAUHINSTANCE__@@H@Z
  ??A?$NcArray@PEAVNcDb2dVertex@@V?$HostObjectsAllocator@PEAVNcDb2dVertex@@@@@@QEAAAEAPEAVNcDb2dVertex@@H@Z
  ??A?$NcArray@PEAVNcDb2dVertex@@V?$HostObjectsAllocator@PEAVNcDb2dVertex@@@@@@QEBAAEBQEAVNcDb2dVertex@@H@Z
  ??A?$NcArray@PEAVNcDb3dPolylineVertex@@V?$HostObjectsAllocator@PEAVNcDb3dPolylineVertex@@@@@@QEAAAEAPEAVNcDb3dPolylineVertex@@H@Z
  ??A?$NcArray@PEAVNcDb3dPolylineVertex@@V?$HostObjectsAllocator@PEAVNcDb3dPolylineVertex@@@@@@QEBAAEBQEAVNcDb3dPolylineVertex@@H@Z
  ??A?$NcArray@PEAVNcDbDimData@@V?$HostMemoryAllocator@PEAVNcDbDimData@@@@@@QEAAAEAPEAVNcDbDimData@@H@Z
  ??A?$NcArray@PEAVNcDbDimData@@V?$HostMemoryAllocator@PEAVNcDbDimData@@@@@@QEBAAEBQEAVNcDbDimData@@H@Z
  ??A?$NcArray@PEAVNcDbEntity@@V?$HostObjectsAllocator@PEAVNcDbEntity@@@@@@QEAAAEAPEAVNcDbEntity@@H@Z
  ??A?$NcArray@PEAVNcDbEntity@@V?$HostObjectsAllocator@PEAVNcDbEntity@@@@@@QEBAAEBQEAVNcDbEntity@@H@Z
  ??A?$NcArray@PEAVNcDbGripData@@V?$HostMemoryAllocator@PEAVNcDbGripData@@@@@@QEAAAEAPEAVNcDbGripData@@H@Z
  ??A?$NcArray@PEAVNcDbGripData@@V?$HostMemoryAllocator@PEAVNcDbGripData@@@@@@QEBAAEBQEAVNcDbGripData@@H@Z
  ??A?$NcArray@PEAVNcDbNurbSurface@@V?$HostObjectsAllocator@PEAVNcDbNurbSurface@@@@@@QEAAAEAPEAVNcDbNurbSurface@@H@Z
  ??A?$NcArray@PEAVNcDbNurbSurface@@V?$HostObjectsAllocator@PEAVNcDbNurbSurface@@@@@@QEBAAEBQEAVNcDbNurbSurface@@H@Z
  ??A?$NcArray@PEAVNcDbPolygonMeshVertex@@V?$HostObjectsAllocator@PEAVNcDbPolygonMeshVertex@@@@@@QEAAAEAPEAVNcDbPolygonMeshVertex@@H@Z
  ??A?$NcArray@PEAVNcDbPolygonMeshVertex@@V?$HostObjectsAllocator@PEAVNcDbPolygonMeshVertex@@@@@@QEBAAEBQEAVNcDbPolygonMeshVertex@@H@Z
  ??A?$NcArray@PEAVNcDbVertex@@V?$HostObjectsAllocator@PEAVNcDbVertex@@@@@@QEAAAEAPEAVNcDbVertex@@H@Z
  ??A?$NcArray@PEAVNcDbVertex@@V?$HostObjectsAllocator@PEAVNcDbVertex@@@@@@QEBAAEBQEAVNcDbVertex@@H@Z
  ??A?$NcArray@PEAVNcLyLayerFilter@@V?$HostObjectsAllocator@PEAVNcLyLayerFilter@@@@@@QEAAAEAPEAVNcLyLayerFilter@@H@Z
  ??A?$NcArray@PEAVNcLyLayerFilter@@V?$HostObjectsAllocator@PEAVNcLyLayerFilter@@@@@@QEBAAEBQEAVNcLyLayerFilter@@H@Z
  ??A?$NcArray@PEAVNcTransaction@@V?$HostObjectsAllocator@PEAVNcTransaction@@@@@@QEAAAEAPEAVNcTransaction@@H@Z
  ??A?$NcArray@PEAVNcTransaction@@V?$HostObjectsAllocator@PEAVNcTransaction@@@@@@QEBAAEBQEAVNcTransaction@@H@Z
  ??A?$NcArray@PEAVNsdkHlrData@@V?$HostObjectsAllocator@PEAVNsdkHlrData@@@@@@QEAAAEAPEAVNsdkHlrData@@H@Z
  ??A?$NcArray@PEAVNsdkHlrData@@V?$HostObjectsAllocator@PEAVNsdkHlrData@@@@@@QEBAAEBQEAVNsdkHlrData@@H@Z
  ??A?$NcArray@PEAVOdDbEntity@@V?$HostObjectsAllocator@PEAVOdDbEntity@@@@@@QEAAAEAPEAVOdDbEntity@@H@Z
  ??A?$NcArray@PEAVOdDbEntity@@V?$HostObjectsAllocator@PEAVOdDbEntity@@@@@@QEBAAEBQEAVOdDbEntity@@H@Z
  ??A?$NcArray@PEAXV?$HostMemoryAllocator@PEAX@@@@QEAAAEAPEAXH@Z
  ??A?$NcArray@PEAXV?$HostMemoryAllocator@PEAX@@@@QEBAAEBQEAXH@Z
  ??A?$NcArray@VMcGeVector2d@@V?$HostMemoryAllocator@VMcGeVector2d@@@@@@QEAAAEAVMcGeVector2d@@H@Z
  ??A?$NcArray@VMcGeVector2d@@V?$HostMemoryAllocator@VMcGeVector2d@@@@@@QEBAAEBVMcGeVector2d@@H@Z
  ??A?$NcArray@VNcDbEvalVariant@@V?$HostMemoryAllocator@VNcDbEvalVariant@@@@@@QEAAAEAVNcDbEvalVariant@@H@Z
  ??A?$NcArray@VNcDbEvalVariant@@V?$HostMemoryAllocator@VNcDbEvalVariant@@@@@@QEBAAEBVNcDbEvalVariant@@H@Z
  ??A?$NcArray@VNcDbFullSubentPath@@V?$HostObjectsAllocator@VNcDbFullSubentPath@@@@@@QEAAAEAVNcDbFullSubentPath@@H@Z
  ??A?$NcArray@VNcDbFullSubentPath@@V?$HostObjectsAllocator@VNcDbFullSubentPath@@@@@@QEBAAEBVNcDbFullSubentPath@@H@Z
  ??A?$NcArray@VNcDbObjectId@@V?$HostObjectsAllocator@VNcDbObjectId@@@@@@QEAAAEAVNcDbObjectId@@H@Z
  ??A?$NcArray@VNcDbObjectId@@V?$HostObjectsAllocator@VNcDbObjectId@@@@@@QEBAAEBVNcDbObjectId@@H@Z
  ??A?$NcArray@VNcGePoint2d@@V?$HostMemoryAllocator@VNcGePoint2d@@@@@@QEAAAEAVNcGePoint2d@@H@Z
  ??A?$NcArray@VNcGePoint2d@@V?$HostMemoryAllocator@VNcGePoint2d@@@@@@QEBAAEBVNcGePoint2d@@H@Z
  ??A?$NcArray@VNcGePoint3d@@V?$HostMemoryAllocator@VNcGePoint3d@@@@@@QEAAAEAVNcGePoint3d@@H@Z
  ??A?$NcArray@VNcGePoint3d@@V?$HostMemoryAllocator@VNcGePoint3d@@@@@@QEBAAEBVNcGePoint3d@@H@Z
  ??A?$NcArray@VNcGeVector3d@@V?$HostMemoryAllocator@VNcGeVector3d@@@@@@QEAAAEAVNcGeVector3d@@H@Z
  ??A?$NcArray@VNcGeVector3d@@V?$HostMemoryAllocator@VNcGeVector3d@@@@@@QEBAAEBVNcGeVector3d@@H@Z
  ??A?$NcArray@_JV?$HostMemoryAllocator@_J@@@@QEAAAEA_JH@Z
  ??A?$NcArray@_JV?$HostMemoryAllocator@_J@@@@QEBAAEB_JH@Z
  ??ACNsiIRow@@QEBAPEAVCNsiData@@H@Z
  ??ACNsiList@@QEAAPEAVCNsiObject@@H@Z
  ??ACNsiRow@@QEBAAEAVCNsiColumn@@H@Z
  ??ACNsiUcStr@@QEBAAEBVCNsiUcChar@@H@Z
  ??ANcGeKnotVector@@QEAAAEANH@Z
  ??ANcGeKnotVector@@QEBA?BNH@Z
  ??ANcGePoint3d@@QEAAAEANI@Z
  ??ANcGePoint3d@@QEBANI@Z
  ??ANcGeScale2d@@QEAAAEANI@Z
  ??ANcGeScale2d@@QEBANI@Z
  ??ANcGeScale3d@@QEAAAEANI@Z
  ??ANcGeScale3d@@QEBANI@Z
  ??ANcGeVector3d@@QEAAAEANI@Z
  ??ANcGeVector3d@@QEBANI@Z
  ??ANcString@@QEBAGH@Z
  ??BNcCmEntityColor@@QEBA?AVOdCmEntityColor@@XZ
  ??BNcDbDataCell@@UEBAAEAVNcDbHardOwnershipId@@XZ
  ??BNcDbDataCell@@UEBAAEAVNcDbHardPointerId@@XZ
  ??BNcDbDataCell@@UEBAAEAVNcDbObjectId@@XZ
  ??BNcDbDataCell@@UEBAAEAVNcDbSoftOwnershipId@@XZ
  ??BNcDbDataCell@@UEBAAEAVNcDbSoftPointerId@@XZ
  ??BNcDbDataCell@@UEBAAEAVNcGePoint3d@@XZ
  ??BNcDbDataCell@@UEBAAEAVNcGeVector3d@@XZ
  ??BNcDbDataCell@@UEBAHXZ
  ??BNcDbDataCell@@UEBANXZ
  ??BNcDbDataCell@@UEBAPEB_WXZ
  ??BNcDbDataCell@@UEBA_NXZ
  ??BNcDbHandle@@QEBA?AVOdDbHandle@@XZ
  ??BNcDbHandle@@QEBAKXZ
  ??BNcDbHandle@@QEBA_KXZ
  ??BNcDbHardOwnershipId@@QEBAPEAVOdDbStub@@XZ
  ??BNcDbHardPointerId@@QEBAPEAVOdDbStub@@XZ
  ??BNcDbObjectId@@QEBAPEAVOdDbStub@@XZ
  ??BNcDbSoftOwnershipId@@QEBAPEAVOdDbStub@@XZ
  ??BNcDbSoftPointerId@@QEBAPEAVOdDbStub@@XZ
  ??BNcGePoint2d@@QEAAAEAVOdGePoint2d@@XZ
  ??BNcGePoint2d@@QEBAAEBVOdGePoint2d@@XZ
  ??BNcGePoint3d@@QEAAAEAVOdGePoint3d@@XZ
  ??BNcGePoint3d@@QEBAAEBVOdGePoint3d@@XZ
  ??BNcGePointEnt2d@@QEBA?AVNcGePoint2d@@XZ
  ??BNcGePointEnt3d@@QEBA?AVNcGePoint3d@@XZ
  ??BNcGeScale2d@@QEBA?AVNcGeMatrix2d@@XZ
  ??BNcGeScale2d@@QEBA?AVNcGeScale3d@@XZ
  ??BNcGeScale3d@@QEBA?AVNcGeMatrix3d@@XZ
  ??BNcGeScale3d@@QEBA?AVOdGeScale3d@@XZ
  ??BNcGeVector3d@@QEAAAEAVOdGeVector3d@@XZ
  ??BNcGeVector3d@@QEBA?AVNcGeMatrix3d@@XZ
  ??BNcGeVector3d@@QEBAAEBVOdGeVector3d@@XZ
  ??BNcRxObjectPtr@@QEAAPEAVOdRxObject@@XZ
  ??BNcRxObjectPtr@@QEBAPEBVOdRxObject@@XZ
  ??BNcString@@QEBAPEBDXZ
  ??BNcString@@QEBAPEBGXZ
  ??BNcString@@QEBAPEB_WXZ
  ??BNcValue@@QEBA?AVNcDbObjectId@@XZ
  ??BNcValue@@QEBA?AVNcGePoint2d@@XZ
  ??BNcValue@@QEBA?AVNcGePoint3d@@XZ
  ??BNcValue@@QEBAJXZ
  ??BNcValue@@QEBANXZ
  ??BNcValue@@QEBAPEB_WXZ
  ??BNcValue@@QEBA_JXZ
  ??BRgbColor10@Ntil@@QEBAIXZ
  ??BRgbColor16f@Ntil@@QEBA_KXZ
  ??BRgbColor16i@Ntil@@QEBA_KXZ
  ??BRgbColor32f@Ntil@@QEBA?AU_NTIL_DATA128@1@XZ
  ??BRgbColor5b@Ntil@@QEBAGXZ
  ??BRgbColor@Ntil@@QEBAIXZ
  ??Bhalf@Ntil@@QEBAMXZ
  ??CNcRxObjectPtr@@QEAAPEAVOdRxObject@@XZ
  ??CNcRxObjectPtr@@QEBAPEBVOdRxObject@@XZ
  ??D@YA?AVNcGePoint3d@@AEBVNcGeMatrix3d@@AEBV0@@Z
  ??D@YA?AVNcGeVector3d@@AEBVNcGeMatrix3d@@AEBV0@@Z
  ??D@YA?AVNcGeVector3d@@NAEBV0@@Z
  ??DCNsiDT@@QEBA?AV0@AEBVCNsiDecimal@@@Z
  ??DCNsiDT@@QEBA?AV0@AEBVCNsiInt@@@Z
  ??DCNsiDT@@QEBA?AV0@AEBVCNsiNumeric@@@Z
  ??DCNsiDT@@QEBA?AV0@AEBVCNsiSmallInt@@@Z
  ??DCNsiDT@@QEBA?AV0@J@Z
  ??DCNsiDecimal@@QEBA?AVCNsiDouble@@AEBV0@@Z
  ??DCNsiDecimal@@QEBA?AVCNsiDouble@@AEBVCNsiInt@@@Z
  ??DCNsiDecimal@@QEBA?AVCNsiDouble@@AEBVCNsiNumeric@@@Z
  ??DCNsiDecimal@@QEBA?AVCNsiDouble@@AEBVCNsiSmallInt@@@Z
  ??DCNsiDecimal@@QEBA?AVCNsiDouble@@F@Z
  ??DCNsiDecimal@@QEBA?AVCNsiDouble@@H@Z
  ??DCNsiDecimal@@QEBA?AVCNsiDouble@@J@Z
  ??DCNsiDecimal@@QEBA?AVCNsiDouble@@N@Z
  ??DCNsiDouble@@QEBA?AV0@AEBV0@@Z
  ??DCNsiDouble@@QEBA?AV0@AEBVCNsiDecimal@@@Z
  ??DCNsiDouble@@QEBA?AV0@AEBVCNsiFloat@@@Z
  ??DCNsiDouble@@QEBA?AV0@AEBVCNsiInt@@@Z
  ??DCNsiDouble@@QEBA?AV0@AEBVCNsiNumeric@@@Z
  ??DCNsiDouble@@QEBA?AV0@AEBVCNsiReal@@@Z
  ??DCNsiDouble@@QEBA?AV0@AEBVCNsiSmallInt@@@Z
  ??DCNsiDouble@@QEBA?AV0@F@Z
  ??DCNsiDouble@@QEBA?AV0@H@Z
  ??DCNsiDouble@@QEBA?AV0@J@Z
  ??DCNsiDouble@@QEBA?AV0@N@Z
  ??DCNsiFloat@@QEBA?AV0@AEBV0@@Z
  ??DCNsiFloat@@QEBA?AV0@AEBVCNsiDecimal@@@Z
  ??DCNsiFloat@@QEBA?AV0@AEBVCNsiInt@@@Z
  ??DCNsiFloat@@QEBA?AV0@AEBVCNsiNumeric@@@Z
  ??DCNsiFloat@@QEBA?AV0@AEBVCNsiSmallInt@@@Z
  ??DCNsiFloat@@QEBA?AV0@F@Z
  ??DCNsiFloat@@QEBA?AV0@H@Z
  ??DCNsiFloat@@QEBA?AV0@J@Z
  ??DCNsiFloat@@QEBA?AV0@N@Z
  ??DCNsiInt@@QEBA?AVCNsiDouble@@AEBV0@@Z
  ??DCNsiInt@@QEBA?AVCNsiDouble@@AEBVCNsiSmallInt@@@Z
  ??DCNsiInt@@QEBA?AVCNsiDouble@@F@Z
  ??DCNsiInt@@QEBA?AVCNsiDouble@@H@Z
  ??DCNsiInt@@QEBA?AVCNsiDouble@@J@Z
  ??DCNsiInt@@QEBA?AVCNsiDouble@@N@Z
  ??DCNsiNumeric@@QEBA?AVCNsiDouble@@AEBV0@@Z
  ??DCNsiNumeric@@QEBA?AVCNsiDouble@@AEBVCNsiInt@@@Z
  ??DCNsiNumeric@@QEBA?AVCNsiDouble@@AEBVCNsiSmallInt@@@Z
  ??DCNsiNumeric@@QEBA?AVCNsiDouble@@F@Z
  ??DCNsiNumeric@@QEBA?AVCNsiDouble@@H@Z
  ??DCNsiNumeric@@QEBA?AVCNsiDouble@@J@Z
  ??DCNsiNumeric@@QEBA?AVCNsiDouble@@N@Z
  ??DCNsiReal@@QEBA?AV0@AEBV0@@Z
  ??DCNsiReal@@QEBA?AV0@AEBVCNsiDecimal@@@Z
  ??DCNsiReal@@QEBA?AV0@AEBVCNsiFloat@@@Z
  ??DCNsiReal@@QEBA?AV0@AEBVCNsiInt@@@Z
  ??DCNsiReal@@QEBA?AV0@AEBVCNsiNumeric@@@Z
  ??DCNsiReal@@QEBA?AV0@AEBVCNsiSmallInt@@@Z
  ??DCNsiReal@@QEBA?AV0@F@Z
  ??DCNsiReal@@QEBA?AV0@H@Z
  ??DCNsiReal@@QEBA?AV0@J@Z
  ??DCNsiReal@@QEBA?AV0@N@Z
  ??DCNsiSmallInt@@QEBA?AVCNsiDouble@@AEBV0@@Z
  ??DCNsiSmallInt@@QEBA?AVCNsiDouble@@F@Z
  ??DCNsiSmallInt@@QEBA?AVCNsiDouble@@H@Z
  ??DCNsiSmallInt@@QEBA?AVCNsiDouble@@J@Z
  ??DCNsiSmallInt@@QEBA?AVCNsiDouble@@N@Z
  ??DCNsiYM@@QEBA?AV0@AEBVCNsiDecimal@@@Z
  ??DCNsiYM@@QEBA?AV0@AEBVCNsiInt@@@Z
  ??DCNsiYM@@QEBA?AV0@AEBVCNsiNumeric@@@Z
  ??DCNsiYM@@QEBA?AV0@AEBVCNsiSmallInt@@@Z
  ??DCNsiYM@@QEBA?AV0@J@Z
  ??DMatrix2d@Ntil@@QEBA?AV01@AEBV01@@Z
  ??DNcGeMatrix3d@@QEBA?AV0@AEBV0@@Z
  ??DNcGePoint3d@@QEBA?AV0@N@Z
  ??DNcGeScale2d@@QEBA?AV0@AEBV0@@Z
  ??DNcGeScale2d@@QEBA?AV0@N@Z
  ??DNcGeScale3d@@QEBA?AV0@AEBV0@@Z
  ??DNcGeScale3d@@QEBA?AV0@N@Z
  ??DNcGeVector3d@@QEBA?AV0@N@Z
  ??DOffset@Ntil@@QEBA?AV01@H@Z
  ??DVector2d@Ntil@@UEBA?AV01@AEBN@Z
  ??ECNsiDecimal@@QEAAAEAV0@XZ
  ??ECNsiDouble@@QEAAAEAV0@XZ
  ??ECNsiFloat@@QEAAAEAV0@XZ
  ??ECNsiInt@@QEAAAEAV0@XZ
  ??ECNsiNumeric@@QEAAAEAV0@XZ
  ??ECNsiReal@@QEAAAEAV0@XZ
  ??ECNsiSmallInt@@QEAAAEAV0@XZ
  ??ENcDbHandle@@QEAA?AV0@H@Z
  ??ENcDbHandle@@QEAAAEAV0@XZ
  ??FCNsiDecimal@@QEAAAEAV0@XZ
  ??FCNsiDouble@@QEAAAEAV0@XZ
  ??FCNsiFloat@@QEAAAEAV0@XZ
  ??FCNsiInt@@QEAAAEAV0@XZ
  ??FCNsiNumeric@@QEAAAEAV0@XZ
  ??FCNsiReal@@QEAAAEAV0@XZ
  ??FCNsiSmallInt@@QEAAAEAV0@XZ
  ??GCNsiDT@@QEAAAEAV0@XZ
  ??GCNsiDT@@QEBA?AV0@AEBV0@@Z
  ??GCNsiDate@@QEBA?AV0@AEBVCNsiDT@@@Z
  ??GCNsiDate@@QEBA?AV0@AEBVCNsiYM@@@Z
  ??GCNsiDecimal@@QEAAAEAV0@XZ
  ??GCNsiDecimal@@QEBA?AVCNsiDouble@@AEBV0@@Z
  ??GCNsiDecimal@@QEBA?AVCNsiDouble@@AEBVCNsiInt@@@Z
  ??GCNsiDecimal@@QEBA?AVCNsiDouble@@AEBVCNsiNumeric@@@Z
  ??GCNsiDecimal@@QEBA?AVCNsiDouble@@AEBVCNsiSmallInt@@@Z
  ??GCNsiDecimal@@QEBA?AVCNsiDouble@@F@Z
  ??GCNsiDecimal@@QEBA?AVCNsiDouble@@H@Z
  ??GCNsiDecimal@@QEBA?AVCNsiDouble@@J@Z
  ??GCNsiDecimal@@QEBA?AVCNsiDouble@@N@Z
  ??GCNsiDouble@@QEAAAEAV0@XZ
  ??GCNsiDouble@@QEBA?AV0@AEBV0@@Z
  ??GCNsiDouble@@QEBA?AV0@AEBVCNsiDecimal@@@Z
  ??GCNsiDouble@@QEBA?AV0@AEBVCNsiFloat@@@Z
  ??GCNsiDouble@@QEBA?AV0@AEBVCNsiInt@@@Z
  ??GCNsiDouble@@QEBA?AV0@AEBVCNsiNumeric@@@Z
  ??GCNsiDouble@@QEBA?AV0@AEBVCNsiReal@@@Z
  ??GCNsiDouble@@QEBA?AV0@AEBVCNsiSmallInt@@@Z
  ??GCNsiDouble@@QEBA?AV0@F@Z
  ??GCNsiDouble@@QEBA?AV0@H@Z
  ??GCNsiDouble@@QEBA?AV0@J@Z
  ??GCNsiDouble@@QEBA?AV0@N@Z
  ??GCNsiFloat@@QEAAAEAV0@XZ
  ??GCNsiFloat@@QEBA?AV0@AEBV0@@Z
  ??GCNsiFloat@@QEBA?AV0@AEBVCNsiDecimal@@@Z
  ??GCNsiFloat@@QEBA?AV0@AEBVCNsiInt@@@Z
  ??GCNsiFloat@@QEBA?AV0@AEBVCNsiNumeric@@@Z
  ??GCNsiFloat@@QEBA?AV0@AEBVCNsiSmallInt@@@Z
  ??GCNsiFloat@@QEBA?AV0@F@Z
  ??GCNsiFloat@@QEBA?AV0@H@Z
  ??GCNsiFloat@@QEBA?AV0@J@Z
  ??GCNsiFloat@@QEBA?AV0@N@Z
  ??GCNsiInt@@QEAAAEAV0@XZ
  ??GCNsiInt@@QEBA?AVCNsiDouble@@AEBV0@@Z
  ??GCNsiInt@@QEBA?AVCNsiDouble@@AEBVCNsiSmallInt@@@Z
  ??GCNsiInt@@QEBA?AVCNsiDouble@@F@Z
  ??GCNsiInt@@QEBA?AVCNsiDouble@@H@Z
  ??GCNsiInt@@QEBA?AVCNsiDouble@@J@Z
  ??GCNsiInt@@QEBA?AVCNsiDouble@@N@Z
  ??GCNsiNumeric@@QEAAAEAV0@XZ
  ??GCNsiNumeric@@QEBA?AVCNsiDouble@@AEBV0@@Z
  ??GCNsiNumeric@@QEBA?AVCNsiDouble@@AEBVCNsiInt@@@Z
  ??GCNsiNumeric@@QEBA?AVCNsiDouble@@AEBVCNsiSmallInt@@@Z
  ??GCNsiNumeric@@QEBA?AVCNsiDouble@@F@Z
  ??GCNsiNumeric@@QEBA?AVCNsiDouble@@H@Z
  ??GCNsiNumeric@@QEBA?AVCNsiDouble@@J@Z
  ??GCNsiNumeric@@QEBA?AVCNsiDouble@@N@Z
  ??GCNsiReal@@QEAAAEAV0@XZ
  ??GCNsiReal@@QEBA?AV0@AEBV0@@Z
  ??GCNsiReal@@QEBA?AV0@AEBVCNsiDecimal@@@Z
  ??GCNsiReal@@QEBA?AV0@AEBVCNsiFloat@@@Z
  ??GCNsiReal@@QEBA?AV0@AEBVCNsiInt@@@Z
  ??GCNsiReal@@QEBA?AV0@AEBVCNsiNumeric@@@Z
  ??GCNsiReal@@QEBA?AV0@AEBVCNsiSmallInt@@@Z
  ??GCNsiReal@@QEBA?AV0@F@Z
  ??GCNsiReal@@QEBA?AV0@H@Z
  ??GCNsiReal@@QEBA?AV0@J@Z
  ??GCNsiReal@@QEBA?AV0@N@Z
  ??GCNsiSmallInt@@QEAAAEAV0@XZ
  ??GCNsiSmallInt@@QEBA?AVCNsiDouble@@AEBV0@@Z
  ??GCNsiSmallInt@@QEBA?AVCNsiDouble@@F@Z
  ??GCNsiSmallInt@@QEBA?AVCNsiDouble@@H@Z
  ??GCNsiSmallInt@@QEBA?AVCNsiDouble@@J@Z
  ??GCNsiSmallInt@@QEBA?AVCNsiDouble@@N@Z
  ??GCNsiTime@@QEBA?AV0@AEBVCNsiDT@@@Z
  ??GCNsiTimeStamp@@QEBA?AV0@AEBVCNsiDT@@@Z
  ??GCNsiTimeStamp@@QEBA?AV0@AEBVCNsiYM@@@Z
  ??GCNsiYM@@QEAAAEAV0@XZ
  ??GCNsiYM@@QEBA?AV0@AEBV0@@Z
  ??GNcDbDate@@QEBA?BV0@AEBV0@@Z
  ??GNcDbHandle@@QEBA?AV0@AEBV0@@Z
  ??GNcGePoint3d@@QEBA?AV0@AEBVNcGeVector3d@@@Z
  ??GNcGePoint3d@@QEBA?AVNcGeVector3d@@AEBV0@@Z
  ??GNcGeVector3d@@QEBA?AV0@AEBV0@@Z
  ??GNcGeVector3d@@QEBA?AV0@XZ
  ??GOffset@Ntil@@QEBA?AV01@AEBV01@@Z
  ??GOffset@Ntil@@QEBA?AV01@H@Z
  ??GPoint2d@Ntil@@QEBA?AVVector2d@1@AEBV01@@Z
  ??GVector2d@Ntil@@UEBA?AV01@AEBV01@@Z
  ??GVector2d@Ntil@@UEBA?AV01@XZ
  ??GVector2d@Ntil@@UEBA?AVPoint2d@1@AEBV21@@Z
  ??Ghalf@Ntil@@QEBA?AV01@XZ
  ??HCNsiBinary@@QEBA?AV0@AEBV0@@Z
  ??HCNsiChar@@QEBA?AV0@AEBV0@@Z
  ??HCNsiChar@@QEBA?AV0@AEBVCNsiUcStr@@@Z
  ??HCNsiDT@@QEBA?AV0@AEBV0@@Z
  ??HCNsiDate@@QEBA?AV0@AEBVCNsiDT@@@Z
  ??HCNsiDate@@QEBA?AV0@AEBVCNsiYM@@@Z
  ??HCNsiDecimal@@QEBA?AVCNsiDouble@@AEBV0@@Z
  ??HCNsiDecimal@@QEBA?AVCNsiDouble@@AEBVCNsiInt@@@Z
  ??HCNsiDecimal@@QEBA?AVCNsiDouble@@AEBVCNsiNumeric@@@Z
  ??HCNsiDecimal@@QEBA?AVCNsiDouble@@AEBVCNsiSmallInt@@@Z
  ??HCNsiDecimal@@QEBA?AVCNsiDouble@@F@Z
  ??HCNsiDecimal@@QEBA?AVCNsiDouble@@H@Z
  ??HCNsiDecimal@@QEBA?AVCNsiDouble@@J@Z
  ??HCNsiDecimal@@QEBA?AVCNsiDouble@@N@Z
  ??HCNsiDouble@@QEBA?AV0@AEBV0@@Z
  ??HCNsiDouble@@QEBA?AV0@AEBVCNsiDecimal@@@Z
  ??HCNsiDouble@@QEBA?AV0@AEBVCNsiFloat@@@Z
  ??HCNsiDouble@@QEBA?AV0@AEBVCNsiInt@@@Z
  ??HCNsiDouble@@QEBA?AV0@AEBVCNsiNumeric@@@Z
  ??HCNsiDouble@@QEBA?AV0@AEBVCNsiReal@@@Z
  ??HCNsiDouble@@QEBA?AV0@AEBVCNsiSmallInt@@@Z
  ??HCNsiDouble@@QEBA?AV0@F@Z
  ??HCNsiDouble@@QEBA?AV0@H@Z
  ??HCNsiDouble@@QEBA?AV0@J@Z
  ??HCNsiDouble@@QEBA?AV0@N@Z
  ??HCNsiFloat@@QEBA?AV0@AEBV0@@Z
  ??HCNsiFloat@@QEBA?AV0@AEBVCNsiDecimal@@@Z
  ??HCNsiFloat@@QEBA?AV0@AEBVCNsiInt@@@Z
  ??HCNsiFloat@@QEBA?AV0@AEBVCNsiNumeric@@@Z
  ??HCNsiFloat@@QEBA?AV0@AEBVCNsiSmallInt@@@Z
  ??HCNsiFloat@@QEBA?AV0@F@Z
  ??HCNsiFloat@@QEBA?AV0@H@Z
  ??HCNsiFloat@@QEBA?AV0@J@Z
  ??HCNsiFloat@@QEBA?AV0@N@Z
  ??HCNsiInt@@QEBA?AVCNsiDouble@@AEBV0@@Z
  ??HCNsiInt@@QEBA?AVCNsiDouble@@AEBVCNsiSmallInt@@@Z
  ??HCNsiInt@@QEBA?AVCNsiDouble@@F@Z
  ??HCNsiInt@@QEBA?AVCNsiDouble@@H@Z
  ??HCNsiInt@@QEBA?AVCNsiDouble@@J@Z
  ??HCNsiInt@@QEBA?AVCNsiDouble@@N@Z
  ??HCNsiNumeric@@QEBA?AVCNsiDouble@@AEBV0@@Z
  ??HCNsiNumeric@@QEBA?AVCNsiDouble@@AEBVCNsiInt@@@Z
  ??HCNsiNumeric@@QEBA?AVCNsiDouble@@AEBVCNsiSmallInt@@@Z
  ??HCNsiNumeric@@QEBA?AVCNsiDouble@@F@Z
  ??HCNsiNumeric@@QEBA?AVCNsiDouble@@H@Z
  ??HCNsiNumeric@@QEBA?AVCNsiDouble@@J@Z
  ??HCNsiNumeric@@QEBA?AVCNsiDouble@@N@Z
  ??HCNsiReal@@QEBA?AV0@AEBV0@@Z
  ??HCNsiReal@@QEBA?AV0@AEBVCNsiDecimal@@@Z
  ??HCNsiReal@@QEBA?AV0@AEBVCNsiFloat@@@Z
  ??HCNsiReal@@QEBA?AV0@AEBVCNsiInt@@@Z
  ??HCNsiReal@@QEBA?AV0@AEBVCNsiNumeric@@@Z
  ??HCNsiReal@@QEBA?AV0@AEBVCNsiSmallInt@@@Z
  ??HCNsiReal@@QEBA?AV0@F@Z
  ??HCNsiReal@@QEBA?AV0@H@Z
  ??HCNsiReal@@QEBA?AV0@J@Z
  ??HCNsiReal@@QEBA?AV0@N@Z
  ??HCNsiSmallInt@@QEBA?AVCNsiDouble@@AEBV0@@Z
  ??HCNsiSmallInt@@QEBA?AVCNsiDouble@@F@Z
  ??HCNsiSmallInt@@QEBA?AVCNsiDouble@@H@Z
  ??HCNsiSmallInt@@QEBA?AVCNsiDouble@@J@Z
  ??HCNsiSmallInt@@QEBA?AVCNsiDouble@@N@Z
  ??HCNsiTime@@QEBA?AV0@AEBVCNsiDT@@@Z
  ??HCNsiTimeStamp@@QEBA?AV0@AEBVCNsiDT@@@Z
  ??HCNsiTimeStamp@@QEBA?AV0@AEBVCNsiYM@@@Z
  ??HCNsiYM@@QEBA?AV0@AEBV0@@Z
  ??HNcDbDate@@QEBA?BV0@AEBV0@@Z
  ??HNcDbHandle@@QEBA?AV0@AEBV0@@Z
  ??HNcDbHandle@@QEBA?AV0@_K@Z
  ??HNcGePoint2d@@QEBA?AV0@AEBVMcGeVector2d@@@Z
  ??HNcGePoint3d@@QEBA?AV0@AEBVNcGeVector3d@@@Z
  ??HNcGeVector3d@@QEBA?AV0@AEBV0@@Z
  ??HNcString@@QEBA?AV0@AEBV0@@Z
  ??HNcString@@QEBA?AV0@D@Z
  ??HNcString@@QEBA?AV0@PEBD@Z
  ??HNcString@@QEBA?AV0@PEB_W@Z
  ??HNcString@@QEBA?AV0@_W@Z
  ??HOffset@Ntil@@QEBA?AV01@AEBV01@@Z
  ??HOffset@Ntil@@QEBA?AV01@H@Z
  ??HPoint2d@Ntil@@QEBA?AV01@AEBVVector2d@1@@Z
  ??HVector2d@Ntil@@UEBA?AV01@AEBV01@@Z
  ??HVector2d@Ntil@@UEBA?AVPoint2d@1@AEBV21@@Z
  ??KCNsiDT@@QEBA?AV0@AEBVCNsiDecimal@@@Z
  ??KCNsiDT@@QEBA?AV0@AEBVCNsiInt@@@Z
  ??KCNsiDT@@QEBA?AV0@AEBVCNsiNumeric@@@Z
  ??KCNsiDT@@QEBA?AV0@AEBVCNsiSmallInt@@@Z
  ??KCNsiDT@@QEBA?AV0@J@Z
  ??KCNsiDecimal@@QEBA?AVCNsiDouble@@AEBV0@@Z
  ??KCNsiDecimal@@QEBA?AVCNsiDouble@@AEBVCNsiInt@@@Z
  ??KCNsiDecimal@@QEBA?AVCNsiDouble@@AEBVCNsiNumeric@@@Z
  ??KCNsiDecimal@@QEBA?AVCNsiDouble@@AEBVCNsiSmallInt@@@Z
  ??KCNsiDecimal@@QEBA?AVCNsiDouble@@F@Z
  ??KCNsiDecimal@@QEBA?AVCNsiDouble@@H@Z
  ??KCNsiDecimal@@QEBA?AVCNsiDouble@@J@Z
  ??KCNsiDecimal@@QEBA?AVCNsiDouble@@N@Z
  ??KCNsiDouble@@QEBA?AV0@AEBV0@@Z
  ??KCNsiDouble@@QEBA?AV0@AEBVCNsiDecimal@@@Z
  ??KCNsiDouble@@QEBA?AV0@AEBVCNsiFloat@@@Z
  ??KCNsiDouble@@QEBA?AV0@AEBVCNsiInt@@@Z
  ??KCNsiDouble@@QEBA?AV0@AEBVCNsiNumeric@@@Z
  ??KCNsiDouble@@QEBA?AV0@AEBVCNsiReal@@@Z
  ??KCNsiDouble@@QEBA?AV0@AEBVCNsiSmallInt@@@Z
  ??KCNsiDouble@@QEBA?AV0@F@Z
  ??KCNsiDouble@@QEBA?AV0@H@Z
  ??KCNsiDouble@@QEBA?AV0@J@Z
  ??KCNsiDouble@@QEBA?AV0@N@Z
  ??KCNsiFloat@@QEBA?AV0@AEBV0@@Z
  ??KCNsiFloat@@QEBA?AV0@AEBVCNsiDecimal@@@Z
  ??KCNsiFloat@@QEBA?AV0@AEBVCNsiInt@@@Z
  ??KCNsiFloat@@QEBA?AV0@AEBVCNsiNumeric@@@Z
  ??KCNsiFloat@@QEBA?AV0@AEBVCNsiSmallInt@@@Z
  ??KCNsiFloat@@QEBA?AV0@F@Z
  ??KCNsiFloat@@QEBA?AV0@H@Z
  ??KCNsiFloat@@QEBA?AV0@J@Z
  ??KCNsiFloat@@QEBA?AV0@N@Z
  ??KCNsiInt@@QEBA?AVCNsiDouble@@AEBV0@@Z
  ??KCNsiInt@@QEBA?AVCNsiDouble@@AEBVCNsiSmallInt@@@Z
  ??KCNsiInt@@QEBA?AVCNsiDouble@@F@Z
  ??KCNsiInt@@QEBA?AVCNsiDouble@@H@Z
  ??KCNsiInt@@QEBA?AVCNsiDouble@@J@Z
  ??KCNsiInt@@QEBA?AVCNsiDouble@@N@Z
  ??KCNsiNumeric@@QEBA?AVCNsiDouble@@AEBV0@@Z
  ??KCNsiNumeric@@QEBA?AVCNsiDouble@@AEBVCNsiInt@@@Z
  ??KCNsiNumeric@@QEBA?AVCNsiDouble@@AEBVCNsiSmallInt@@@Z
  ??KCNsiNumeric@@QEBA?AVCNsiDouble@@F@Z
  ??KCNsiNumeric@@QEBA?AVCNsiDouble@@H@Z
  ??KCNsiNumeric@@QEBA?AVCNsiDouble@@J@Z
  ??KCNsiNumeric@@QEBA?AVCNsiDouble@@N@Z
  ??KCNsiReal@@QEBA?AV0@AEBV0@@Z
  ??KCNsiReal@@QEBA?AV0@AEBVCNsiDecimal@@@Z
  ??KCNsiReal@@QEBA?AV0@AEBVCNsiFloat@@@Z
  ??KCNsiReal@@QEBA?AV0@AEBVCNsiInt@@@Z
  ??KCNsiReal@@QEBA?AV0@AEBVCNsiNumeric@@@Z
  ??KCNsiReal@@QEBA?AV0@AEBVCNsiSmallInt@@@Z
  ??KCNsiReal@@QEBA?AV0@F@Z
  ??KCNsiReal@@QEBA?AV0@H@Z
  ??KCNsiReal@@QEBA?AV0@J@Z
  ??KCNsiReal@@QEBA?AV0@N@Z
  ??KCNsiSmallInt@@QEBA?AVCNsiDouble@@AEBV0@@Z
  ??KCNsiSmallInt@@QEBA?AVCNsiDouble@@F@Z
  ??KCNsiSmallInt@@QEBA?AVCNsiDouble@@H@Z
  ??KCNsiSmallInt@@QEBA?AVCNsiDouble@@J@Z
  ??KCNsiSmallInt@@QEBA?AVCNsiDouble@@N@Z
  ??KCNsiYM@@QEBA?AV0@AEBVCNsiDecimal@@@Z
  ??KCNsiYM@@QEBA?AV0@AEBVCNsiInt@@@Z
  ??KCNsiYM@@QEBA?AV0@AEBVCNsiNumeric@@@Z
  ??KCNsiYM@@QEBA?AV0@AEBVCNsiSmallInt@@@Z
  ??KCNsiYM@@QEBA?AV0@J@Z
  ??KNcGePoint3d@@QEBA?AV0@N@Z
  ??KNcGeVector3d@@QEBA?AV0@N@Z
  ??KVector2d@Ntil@@UEBA?AV01@AEBN@Z
  ??MCNsiApproxNum@@UEBAHAEBVCNsiDecimal@@@Z
  ??MCNsiApproxNum@@UEBAHAEBVCNsiDouble@@@Z
  ??MCNsiApproxNum@@UEBAHAEBVCNsiFloat@@@Z
  ??MCNsiApproxNum@@UEBAHAEBVCNsiInt@@@Z
  ??MCNsiApproxNum@@UEBAHAEBVCNsiNumeric@@@Z
  ??MCNsiApproxNum@@UEBAHAEBVCNsiReal@@@Z
  ??MCNsiApproxNum@@UEBAHAEBVCNsiSmallInt@@@Z
  ??MCNsiApproxNum@@UEBAHF@Z
  ??MCNsiApproxNum@@UEBAHH@Z
  ??MCNsiApproxNum@@UEBAHJ@Z
  ??MCNsiApproxNum@@UEBAHN@Z
  ??MCNsiBinary@@QEBAHAEBV0@@Z
  ??MCNsiChar@@QEBAHAEBV0@@Z
  ??MCNsiChar@@QEBAHAEBVCNsiUcStr@@@Z
  ??MCNsiDT@@QEBAHAEBV0@@Z
  ??MCNsiDate@@QEBAHAEBV0@@Z
  ??MCNsiExactNum@@UEBAHAEBVCNsiDecimal@@@Z
  ??MCNsiExactNum@@UEBAHAEBVCNsiDouble@@@Z
  ??MCNsiExactNum@@UEBAHAEBVCNsiFloat@@@Z
  ??MCNsiExactNum@@UEBAHAEBVCNsiInt@@@Z
  ??MCNsiExactNum@@UEBAHAEBVCNsiNumeric@@@Z
  ??MCNsiExactNum@@UEBAHAEBVCNsiReal@@@Z
  ??MCNsiExactNum@@UEBAHAEBVCNsiSmallInt@@@Z
  ??MCNsiExactNum@@UEBAHF@Z
  ??MCNsiExactNum@@UEBAHH@Z
  ??MCNsiExactNum@@UEBAHJ@Z
  ??MCNsiExactNum@@UEBAHN@Z
  ??MCNsiNum@@UEBAHAEBVCNsiDecimal@@@Z
  ??MCNsiNum@@UEBAHAEBVCNsiDouble@@@Z
  ??MCNsiNum@@UEBAHAEBVCNsiFloat@@@Z
  ??MCNsiNum@@UEBAHAEBVCNsiInt@@@Z
  ??MCNsiNum@@UEBAHAEBVCNsiNumeric@@@Z
  ??MCNsiNum@@UEBAHAEBVCNsiReal@@@Z
  ??MCNsiNum@@UEBAHAEBVCNsiSmallInt@@@Z
  ??MCNsiNum@@UEBAHF@Z
  ??MCNsiNum@@UEBAHH@Z
  ??MCNsiNum@@UEBAHJ@Z
  ??MCNsiNum@@UEBAHN@Z
  ??MCNsiTime@@QEBAHAEBV0@@Z
  ??MCNsiTimeStamp@@QEBAHAEBV0@@Z
  ??MCNsiYM@@QEBAHAEBV0@@Z
  ??MNcDbDate@@QEBA_NAEBV0@@Z
  ??MNcDbEvalVariant@@QEBA_NAEBV0@@Z
  ??MNcDbHandle@@QEBA_NAEBV0@@Z
  ??MNcDbObjectId@@QEBA_NAEBV0@@Z
  ??MNcDbObjectId@@QEBA_NPEBVOdDbStub@@@Z
  ??MNcDbR13ObjectId@@QEBA_NAEBV0@@Z
  ??MNcDbR13ObjectId@@QEBA_NPEBVOdDbStub@@@Z
  ??MNcGUID@@QEBA_NAEBV0@@Z
  ??MNcGUID@@QEBA_NAEBVOdGUID@@@Z
  ??MNcGeLibVersion@@QEBAHAEBV0@@Z
  ??MNcString@@QEBA_NAEBV0@@Z
  ??MNcString@@QEBA_NAEBV?$CStringT@_WV?$StrTraitMFC_DLL@_WV?$ChTraitsCRT@_W@ATL@@@@@ATL@@@Z
  ??MNcString@@QEBA_NPEBD@Z
  ??MNcString@@QEBA_NPEB_W@Z
  ??MNcString@@QEBA_N_W@Z
  ??NCNsiApproxNum@@UEBAHAEBVCNsiDecimal@@@Z
  ??NCNsiApproxNum@@UEBAHAEBVCNsiDouble@@@Z
  ??NCNsiApproxNum@@UEBAHAEBVCNsiFloat@@@Z
  ??NCNsiApproxNum@@UEBAHAEBVCNsiInt@@@Z
  ??NCNsiApproxNum@@UEBAHAEBVCNsiNumeric@@@Z
  ??NCNsiApproxNum@@UEBAHAEBVCNsiReal@@@Z
  ??NCNsiApproxNum@@UEBAHAEBVCNsiSmallInt@@@Z
  ??NCNsiApproxNum@@UEBAHF@Z
  ??NCNsiApproxNum@@UEBAHH@Z
  ??NCNsiApproxNum@@UEBAHJ@Z
  ??NCNsiApproxNum@@UEBAHN@Z
  ??NCNsiBinary@@QEBAHAEBV0@@Z
  ??NCNsiChar@@QEBAHAEBV0@@Z
  ??NCNsiChar@@QEBAHAEBVCNsiUcStr@@@Z
  ??NCNsiDT@@QEBAHAEBV0@@Z
  ??NCNsiDate@@QEBAHAEBV0@@Z
  ??NCNsiExactNum@@UEBAHAEBVCNsiDecimal@@@Z
  ??NCNsiExactNum@@UEBAHAEBVCNsiDouble@@@Z
  ??NCNsiExactNum@@UEBAHAEBVCNsiFloat@@@Z
  ??NCNsiExactNum@@UEBAHAEBVCNsiInt@@@Z
  ??NCNsiExactNum@@UEBAHAEBVCNsiNumeric@@@Z
  ??NCNsiExactNum@@UEBAHAEBVCNsiReal@@@Z
  ??NCNsiExactNum@@UEBAHAEBVCNsiSmallInt@@@Z
  ??NCNsiExactNum@@UEBAHF@Z
  ??NCNsiExactNum@@UEBAHH@Z
  ??NCNsiExactNum@@UEBAHJ@Z
  ??NCNsiExactNum@@UEBAHN@Z
  ??NCNsiNum@@UEBAHAEBVCNsiDecimal@@@Z
  ??NCNsiNum@@UEBAHAEBVCNsiDouble@@@Z
  ??NCNsiNum@@UEBAHAEBVCNsiFloat@@@Z
  ??NCNsiNum@@UEBAHAEBVCNsiInt@@@Z
  ??NCNsiNum@@UEBAHAEBVCNsiNumeric@@@Z
  ??NCNsiNum@@UEBAHAEBVCNsiReal@@@Z
  ??NCNsiNum@@UEBAHAEBVCNsiSmallInt@@@Z
  ??NCNsiNum@@UEBAHF@Z
  ??NCNsiNum@@UEBAHH@Z
  ??NCNsiNum@@UEBAHJ@Z
  ??NCNsiNum@@UEBAHN@Z
  ??NCNsiTime@@QEBAHAEBV0@@Z
  ??NCNsiTimeStamp@@QEBAHAEBV0@@Z
  ??NCNsiYM@@QEBAHAEBV0@@Z
  ??NNcDbDate@@QEBA_NAEBV0@@Z
  ??NNcDbEvalVariant@@QEBA_NAEBV0@@Z
  ??NNcDbHandle@@QEBA_NAEBV0@@Z
  ??NNcDbObjectId@@QEBA_NAEBV0@@Z
  ??NNcDbObjectId@@QEBA_NPEBVOdDbStub@@@Z
  ??NNcDbR13ObjectId@@QEBA_NAEBV0@@Z
  ??NNcDbR13ObjectId@@QEBA_NPEBVOdDbStub@@@Z
  ??NNcGUID@@QEBA_NAEBV0@@Z
  ??NNcGeLibVersion@@QEBAHAEBV0@@Z
  ??NNcString@@QEBA_NAEBV0@@Z
  ??NNcString@@QEBA_NAEBV?$CStringT@_WV?$StrTraitMFC_DLL@_WV?$ChTraitsCRT@_W@ATL@@@@@ATL@@@Z
  ??NNcString@@QEBA_ND@Z
  ??NNcString@@QEBA_NPEBD@Z
  ??NNcString@@QEBA_NPEB_W@Z
  ??NNcString@@QEBA_N_W@Z
  ??NSize@Ntil@@QEBA_NAEBV01@@Z
  ??OCNsiApproxNum@@UEBAHAEBVCNsiDecimal@@@Z
  ??OCNsiApproxNum@@UEBAHAEBVCNsiDouble@@@Z
  ??OCNsiApproxNum@@UEBAHAEBVCNsiFloat@@@Z
  ??OCNsiApproxNum@@UEBAHAEBVCNsiInt@@@Z
  ??OCNsiApproxNum@@UEBAHAEBVCNsiNumeric@@@Z
  ??OCNsiApproxNum@@UEBAHAEBVCNsiReal@@@Z
  ??OCNsiApproxNum@@UEBAHAEBVCNsiSmallInt@@@Z
  ??OCNsiApproxNum@@UEBAHF@Z
  ??OCNsiApproxNum@@UEBAHH@Z
  ??OCNsiApproxNum@@UEBAHJ@Z
  ??OCNsiApproxNum@@UEBAHN@Z
  ??OCNsiBinary@@QEBAHAEBV0@@Z
  ??OCNsiChar@@QEBAHAEBV0@@Z
  ??OCNsiChar@@QEBAHAEBVCNsiUcStr@@@Z
  ??OCNsiDT@@QEBAHAEBV0@@Z
  ??OCNsiDate@@QEBAHAEBV0@@Z
  ??OCNsiExactNum@@UEBAHAEBVCNsiDecimal@@@Z
  ??OCNsiExactNum@@UEBAHAEBVCNsiDouble@@@Z
  ??OCNsiExactNum@@UEBAHAEBVCNsiFloat@@@Z
  ??OCNsiExactNum@@UEBAHAEBVCNsiInt@@@Z
  ??OCNsiExactNum@@UEBAHAEBVCNsiNumeric@@@Z
  ??OCNsiExactNum@@UEBAHAEBVCNsiReal@@@Z
  ??OCNsiExactNum@@UEBAHAEBVCNsiSmallInt@@@Z
  ??OCNsiExactNum@@UEBAHF@Z
  ??OCNsiExactNum@@UEBAHH@Z
  ??OCNsiExactNum@@UEBAHJ@Z
  ??OCNsiExactNum@@UEBAHN@Z
  ??OCNsiNum@@UEBAHAEBVCNsiDecimal@@@Z
  ??OCNsiNum@@UEBAHAEBVCNsiDouble@@@Z
  ??OCNsiNum@@UEBAHAEBVCNsiFloat@@@Z
  ??OCNsiNum@@UEBAHAEBVCNsiInt@@@Z
  ??OCNsiNum@@UEBAHAEBVCNsiNumeric@@@Z
  ??OCNsiNum@@UEBAHAEBVCNsiReal@@@Z
  ??OCNsiNum@@UEBAHAEBVCNsiSmallInt@@@Z
  ??OCNsiNum@@UEBAHF@Z
  ??OCNsiNum@@UEBAHH@Z
  ??OCNsiNum@@UEBAHJ@Z
  ??OCNsiNum@@UEBAHN@Z
  ??OCNsiTime@@QEBAHAEBV0@@Z
  ??OCNsiTimeStamp@@QEBAHAEBV0@@Z
  ??OCNsiYM@@QEBAHAEBV0@@Z
  ??ONcDbDate@@QEBA_NAEBV0@@Z
  ??ONcDbEvalVariant@@QEBA_NAEBV0@@Z
  ??ONcDbHandle@@QEBA_NAEBV0@@Z
  ??ONcDbObjectId@@QEBA_NAEBV0@@Z
  ??ONcDbObjectId@@QEBA_NPEBVOdDbStub@@@Z
  ??ONcDbR13ObjectId@@QEBA_NAEBV0@@Z
  ??ONcDbR13ObjectId@@QEBA_NPEBVOdDbStub@@@Z
  ??ONcGUID@@QEBA_NAEBV0@@Z
  ??ONcGUID@@QEBA_NAEBVOdGUID@@@Z
  ??ONcGeLibVersion@@QEBAHAEBV0@@Z
  ??ONcString@@QEBA_NAEBV0@@Z
  ??ONcString@@QEBA_NAEBV?$CStringT@_WV?$StrTraitMFC_DLL@_WV?$ChTraitsCRT@_W@ATL@@@@@ATL@@@Z
  ??ONcString@@QEBA_NPEBD@Z
  ??ONcString@@QEBA_NPEB_W@Z
  ??ONcString@@QEBA_N_W@Z
  ??PCNsiApproxNum@@UEBAHAEBVCNsiDecimal@@@Z
  ??PCNsiApproxNum@@UEBAHAEBVCNsiDouble@@@Z
  ??PCNsiApproxNum@@UEBAHAEBVCNsiFloat@@@Z
  ??PCNsiApproxNum@@UEBAHAEBVCNsiInt@@@Z
  ??PCNsiApproxNum@@UEBAHAEBVCNsiNumeric@@@Z
  ??PCNsiApproxNum@@UEBAHAEBVCNsiReal@@@Z
  ??PCNsiApproxNum@@UEBAHAEBVCNsiSmallInt@@@Z
  ??PCNsiApproxNum@@UEBAHF@Z
  ??PCNsiApproxNum@@UEBAHH@Z
  ??PCNsiApproxNum@@UEBAHJ@Z
  ??PCNsiApproxNum@@UEBAHN@Z
  ??PCNsiBinary@@QEBAHAEBV0@@Z
  ??PCNsiChar@@QEBAHAEBV0@@Z
  ??PCNsiChar@@QEBAHAEBVCNsiUcStr@@@Z
  ??PCNsiDT@@QEBAHAEBV0@@Z
  ??PCNsiDate@@QEBAHAEBV0@@Z
  ??PCNsiExactNum@@UEBAHAEBVCNsiDecimal@@@Z
  ??PCNsiExactNum@@UEBAHAEBVCNsiDouble@@@Z
  ??PCNsiExactNum@@UEBAHAEBVCNsiFloat@@@Z
  ??PCNsiExactNum@@UEBAHAEBVCNsiInt@@@Z
  ??PCNsiExactNum@@UEBAHAEBVCNsiNumeric@@@Z
  ??PCNsiExactNum@@UEBAHAEBVCNsiReal@@@Z
  ??PCNsiExactNum@@UEBAHAEBVCNsiSmallInt@@@Z
  ??PCNsiExactNum@@UEBAHF@Z
  ??PCNsiExactNum@@UEBAHH@Z
  ??PCNsiExactNum@@UEBAHJ@Z
  ??PCNsiExactNum@@UEBAHN@Z
  ??PCNsiNum@@UEBAHAEBVCNsiDecimal@@@Z
  ??PCNsiNum@@UEBAHAEBVCNsiDouble@@@Z
  ??PCNsiNum@@UEBAHAEBVCNsiFloat@@@Z
  ??PCNsiNum@@UEBAHAEBVCNsiInt@@@Z
  ??PCNsiNum@@UEBAHAEBVCNsiNumeric@@@Z
  ??PCNsiNum@@UEBAHAEBVCNsiReal@@@Z
  ??PCNsiNum@@UEBAHAEBVCNsiSmallInt@@@Z
  ??PCNsiNum@@UEBAHF@Z
  ??PCNsiNum@@UEBAHH@Z
  ??PCNsiNum@@UEBAHJ@Z
  ??PCNsiNum@@UEBAHN@Z
  ??PCNsiTime@@QEBAHAEBV0@@Z
  ??PCNsiTimeStamp@@QEBAHAEBV0@@Z
  ??PCNsiYM@@QEBAHAEBV0@@Z
  ??PNcDbDate@@QEBA_NAEBV0@@Z
  ??PNcDbEvalVariant@@QEBA_NAEBV0@@Z
  ??PNcDbHandle@@QEBA_NAEBV0@@Z
  ??PNcDbObjectId@@QEBA_NAEBV0@@Z
  ??PNcDbObjectId@@QEBA_NPEBVOdDbStub@@@Z
  ??PNcDbR13ObjectId@@QEBA_NAEBV0@@Z
  ??PNcDbR13ObjectId@@QEBA_NPEBVOdDbStub@@@Z
  ??PNcGUID@@QEBA_NAEBV0@@Z
  ??PNcGeLibVersion@@QEBAHAEBV0@@Z
  ??PNcString@@QEBA_NAEBV0@@Z
  ??PNcString@@QEBA_NAEBV?$CStringT@_WV?$StrTraitMFC_DLL@_WV?$ChTraitsCRT@_W@ATL@@@@@ATL@@@Z
  ??PNcString@@QEBA_NPEBD@Z
  ??PNcString@@QEBA_NPEB_W@Z
  ??PNcString@@QEBA_N_W@Z
  ??PSize@Ntil@@QEBA_NAEBV01@@Z
  ??RNcGeMatrix3d@@QEAAAEANII@Z
  ??RNcGeMatrix3d@@QEBANII@Z
  ??XCNsiDecimal@@QEAAAEAV0@AEBV0@@Z
  ??XCNsiDecimal@@QEAAAEAV0@AEBVCNsiDouble@@@Z
  ??XCNsiDecimal@@QEAAAEAV0@AEBVCNsiFloat@@@Z
  ??XCNsiDecimal@@QEAAAEAV0@AEBVCNsiInt@@@Z
  ??XCNsiDecimal@@QEAAAEAV0@AEBVCNsiNumeric@@@Z
  ??XCNsiDecimal@@QEAAAEAV0@AEBVCNsiReal@@@Z
  ??XCNsiDecimal@@QEAAAEAV0@AEBVCNsiSmallInt@@@Z
  ??XCNsiDecimal@@QEAAAEAV0@F@Z
  ??XCNsiDecimal@@QEAAAEAV0@H@Z
  ??XCNsiDecimal@@QEAAAEAV0@J@Z
  ??XCNsiDecimal@@QEAAAEAV0@N@Z
  ??XCNsiDouble@@QEAAAEAV0@AEBV0@@Z
  ??XCNsiDouble@@QEAAAEAV0@AEBVCNsiDecimal@@@Z
  ??XCNsiDouble@@QEAAAEAV0@AEBVCNsiFloat@@@Z
  ??XCNsiDouble@@QEAAAEAV0@AEBVCNsiInt@@@Z
  ??XCNsiDouble@@QEAAAEAV0@AEBVCNsiNumeric@@@Z
  ??XCNsiDouble@@QEAAAEAV0@AEBVCNsiReal@@@Z
  ??XCNsiDouble@@QEAAAEAV0@AEBVCNsiSmallInt@@@Z
  ??XCNsiDouble@@QEAAAEAV0@F@Z
  ??XCNsiDouble@@QEAAAEAV0@H@Z
  ??XCNsiDouble@@QEAAAEAV0@J@Z
  ??XCNsiDouble@@QEAAAEAV0@N@Z
  ??XCNsiFloat@@QEAAAEAV0@AEBV0@@Z
  ??XCNsiFloat@@QEAAAEAV0@AEBVCNsiDecimal@@@Z
  ??XCNsiFloat@@QEAAAEAV0@AEBVCNsiDouble@@@Z
  ??XCNsiFloat@@QEAAAEAV0@AEBVCNsiInt@@@Z
  ??XCNsiFloat@@QEAAAEAV0@AEBVCNsiNumeric@@@Z
  ??XCNsiFloat@@QEAAAEAV0@AEBVCNsiReal@@@Z
  ??XCNsiFloat@@QEAAAEAV0@AEBVCNsiSmallInt@@@Z
  ??XCNsiFloat@@QEAAAEAV0@F@Z
  ??XCNsiFloat@@QEAAAEAV0@H@Z
  ??XCNsiFloat@@QEAAAEAV0@J@Z
  ??XCNsiFloat@@QEAAAEAV0@N@Z
  ??XCNsiInt@@QEAAAEAV0@AEBV0@@Z
  ??XCNsiInt@@QEAAAEAV0@AEBVCNsiDecimal@@@Z
  ??XCNsiInt@@QEAAAEAV0@AEBVCNsiDouble@@@Z
  ??XCNsiInt@@QEAAAEAV0@AEBVCNsiFloat@@@Z
  ??XCNsiInt@@QEAAAEAV0@AEBVCNsiNumeric@@@Z
  ??XCNsiInt@@QEAAAEAV0@AEBVCNsiReal@@@Z
  ??XCNsiInt@@QEAAAEAV0@AEBVCNsiSmallInt@@@Z
  ??XCNsiInt@@QEAAAEAV0@F@Z
  ??XCNsiInt@@QEAAAEAV0@H@Z
  ??XCNsiInt@@QEAAAEAV0@J@Z
  ??XCNsiInt@@QEAAAEAV0@N@Z
  ??XCNsiNumeric@@QEAAAEAV0@AEBV0@@Z
  ??XCNsiNumeric@@QEAAAEAV0@AEBVCNsiDecimal@@@Z
  ??XCNsiNumeric@@QEAAAEAV0@AEBVCNsiDouble@@@Z
  ??XCNsiNumeric@@QEAAAEAV0@AEBVCNsiFloat@@@Z
  ??XCNsiNumeric@@QEAAAEAV0@AEBVCNsiInt@@@Z
  ??XCNsiNumeric@@QEAAAEAV0@AEBVCNsiReal@@@Z
  ??XCNsiNumeric@@QEAAAEAV0@AEBVCNsiSmallInt@@@Z
  ??XCNsiNumeric@@QEAAAEAV0@F@Z
  ??XCNsiNumeric@@QEAAAEAV0@H@Z
  ??XCNsiNumeric@@QEAAAEAV0@J@Z
  ??XCNsiNumeric@@QEAAAEAV0@N@Z
  ??XCNsiReal@@QEAAAEAV0@AEBV0@@Z
  ??XCNsiReal@@QEAAAEAV0@AEBVCNsiDecimal@@@Z
  ??XCNsiReal@@QEAAAEAV0@AEBVCNsiDouble@@@Z
  ??XCNsiReal@@QEAAAEAV0@AEBVCNsiFloat@@@Z
  ??XCNsiReal@@QEAAAEAV0@AEBVCNsiInt@@@Z
  ??XCNsiReal@@QEAAAEAV0@AEBVCNsiNumeric@@@Z
  ??XCNsiReal@@QEAAAEAV0@AEBVCNsiSmallInt@@@Z
  ??XCNsiReal@@QEAAAEAV0@F@Z
  ??XCNsiReal@@QEAAAEAV0@H@Z
  ??XCNsiReal@@QEAAAEAV0@J@Z
  ??XCNsiReal@@QEAAAEAV0@N@Z
  ??XCNsiSmallInt@@QEAAAEAV0@AEBV0@@Z
  ??XCNsiSmallInt@@QEAAAEAV0@AEBVCNsiDecimal@@@Z
  ??XCNsiSmallInt@@QEAAAEAV0@AEBVCNsiDouble@@@Z
  ??XCNsiSmallInt@@QEAAAEAV0@AEBVCNsiFloat@@@Z
  ??XCNsiSmallInt@@QEAAAEAV0@AEBVCNsiInt@@@Z
  ??XCNsiSmallInt@@QEAAAEAV0@AEBVCNsiNumeric@@@Z
  ??XCNsiSmallInt@@QEAAAEAV0@AEBVCNsiReal@@@Z
  ??XCNsiSmallInt@@QEAAAEAV0@F@Z
  ??XCNsiSmallInt@@QEAAAEAV0@H@Z
  ??XCNsiSmallInt@@QEAAAEAV0@J@Z
  ??XCNsiSmallInt@@QEAAAEAV0@N@Z
  ??XMatrix2d@Ntil@@QEAAAEAV01@AEBV01@@Z
  ??XNcGeMatrix3d@@QEAAAEAV0@AEBV0@@Z
  ??XNcGePoint3d@@QEAAAEAV0@N@Z
  ??XNcGeScale2d@@QEAAAEAV0@AEBV0@@Z
  ??XNcGeScale2d@@QEAAAEAV0@N@Z
  ??XNcGeScale3d@@QEAAAEAV0@AEBV0@@Z
  ??XNcGeScale3d@@QEAAAEAV0@N@Z
  ??XNcGeVector3d@@QEAAAEAV0@N@Z
  ??XOffset@Ntil@@QEAAAEAV01@H@Z
  ??XVector2d@Ntil@@UEAAAEAV01@AEBN@Z
  ??Xhalf@Ntil@@QEAAAEAV01@M@Z
  ??Xhalf@Ntil@@QEAAAEAV01@V01@@Z
  ??YCNsiDecimal@@QEAAAEAV0@AEBV0@@Z
  ??YCNsiDecimal@@QEAAAEAV0@AEBVCNsiDouble@@@Z
  ??YCNsiDecimal@@QEAAAEAV0@AEBVCNsiFloat@@@Z
  ??YCNsiDecimal@@QEAAAEAV0@AEBVCNsiInt@@@Z
  ??YCNsiDecimal@@QEAAAEAV0@AEBVCNsiNumeric@@@Z
  ??YCNsiDecimal@@QEAAAEAV0@AEBVCNsiReal@@@Z
  ??YCNsiDecimal@@QEAAAEAV0@AEBVCNsiSmallInt@@@Z
  ??YCNsiDecimal@@QEAAAEAV0@F@Z
  ??YCNsiDecimal@@QEAAAEAV0@H@Z
  ??YCNsiDecimal@@QEAAAEAV0@J@Z
  ??YCNsiDecimal@@QEAAAEAV0@N@Z
  ??YCNsiDouble@@QEAAAEAV0@AEBV0@@Z
  ??YCNsiDouble@@QEAAAEAV0@AEBVCNsiDecimal@@@Z
  ??YCNsiDouble@@QEAAAEAV0@AEBVCNsiFloat@@@Z
  ??YCNsiDouble@@QEAAAEAV0@AEBVCNsiInt@@@Z
  ??YCNsiDouble@@QEAAAEAV0@AEBVCNsiNumeric@@@Z
  ??YCNsiDouble@@QEAAAEAV0@AEBVCNsiReal@@@Z
  ??YCNsiDouble@@QEAAAEAV0@AEBVCNsiSmallInt@@@Z
  ??YCNsiDouble@@QEAAAEAV0@F@Z
  ??YCNsiDouble@@QEAAAEAV0@H@Z
  ??YCNsiDouble@@QEAAAEAV0@J@Z
  ??YCNsiDouble@@QEAAAEAV0@N@Z
  ??YCNsiFloat@@QEAAAEAV0@AEBV0@@Z
  ??YCNsiFloat@@QEAAAEAV0@AEBVCNsiDecimal@@@Z
  ??YCNsiFloat@@QEAAAEAV0@AEBVCNsiDouble@@@Z
  ??YCNsiFloat@@QEAAAEAV0@AEBVCNsiInt@@@Z
  ??YCNsiFloat@@QEAAAEAV0@AEBVCNsiNumeric@@@Z
  ??YCNsiFloat@@QEAAAEAV0@AEBVCNsiReal@@@Z
  ??YCNsiFloat@@QEAAAEAV0@AEBVCNsiSmallInt@@@Z
  ??YCNsiFloat@@QEAAAEAV0@F@Z
  ??YCNsiFloat@@QEAAAEAV0@H@Z
  ??YCNsiFloat@@QEAAAEAV0@J@Z
  ??YCNsiFloat@@QEAAAEAV0@N@Z
  ??YCNsiInt@@QEAAAEAV0@AEBV0@@Z
  ??YCNsiInt@@QEAAAEAV0@AEBVCNsiDecimal@@@Z
  ??YCNsiInt@@QEAAAEAV0@AEBVCNsiDouble@@@Z
  ??YCNsiInt@@QEAAAEAV0@AEBVCNsiFloat@@@Z
  ??YCNsiInt@@QEAAAEAV0@AEBVCNsiNumeric@@@Z
  ??YCNsiInt@@QEAAAEAV0@AEBVCNsiReal@@@Z
  ??YCNsiInt@@QEAAAEAV0@AEBVCNsiSmallInt@@@Z
  ??YCNsiInt@@QEAAAEAV0@F@Z
  ??YCNsiInt@@QEAAAEAV0@H@Z
  ??YCNsiInt@@QEAAAEAV0@J@Z
  ??YCNsiInt@@QEAAAEAV0@N@Z
  ??YCNsiNumeric@@QEAAAEAV0@AEBV0@@Z
  ??YCNsiNumeric@@QEAAAEAV0@AEBVCNsiDecimal@@@Z
  ??YCNsiNumeric@@QEAAAEAV0@AEBVCNsiDouble@@@Z
  ??YCNsiNumeric@@QEAAAEAV0@AEBVCNsiFloat@@@Z
  ??YCNsiNumeric@@QEAAAEAV0@AEBVCNsiInt@@@Z
  ??YCNsiNumeric@@QEAAAEAV0@AEBVCNsiReal@@@Z
  ??YCNsiNumeric@@QEAAAEAV0@AEBVCNsiSmallInt@@@Z
  ??YCNsiNumeric@@QEAAAEAV0@F@Z
  ??YCNsiNumeric@@QEAAAEAV0@H@Z
  ??YCNsiNumeric@@QEAAAEAV0@J@Z
  ??YCNsiNumeric@@QEAAAEAV0@N@Z
  ??YCNsiReal@@QEAAAEAV0@AEBV0@@Z
  ??YCNsiReal@@QEAAAEAV0@AEBVCNsiDecimal@@@Z
  ??YCNsiReal@@QEAAAEAV0@AEBVCNsiDouble@@@Z
  ??YCNsiReal@@QEAAAEAV0@AEBVCNsiFloat@@@Z
  ??YCNsiReal@@QEAAAEAV0@AEBVCNsiInt@@@Z
  ??YCNsiReal@@QEAAAEAV0@AEBVCNsiNumeric@@@Z
  ??YCNsiReal@@QEAAAEAV0@AEBVCNsiSmallInt@@@Z
  ??YCNsiReal@@QEAAAEAV0@F@Z
  ??YCNsiReal@@QEAAAEAV0@H@Z
  ??YCNsiReal@@QEAAAEAV0@J@Z
  ??YCNsiReal@@QEAAAEAV0@N@Z
  ??YCNsiSmallInt@@QEAAAEAV0@AEBV0@@Z
  ??YCNsiSmallInt@@QEAAAEAV0@AEBVCNsiDecimal@@@Z
  ??YCNsiSmallInt@@QEAAAEAV0@AEBVCNsiDouble@@@Z
  ??YCNsiSmallInt@@QEAAAEAV0@AEBVCNsiFloat@@@Z
  ??YCNsiSmallInt@@QEAAAEAV0@AEBVCNsiInt@@@Z
  ??YCNsiSmallInt@@QEAAAEAV0@AEBVCNsiNumeric@@@Z
  ??YCNsiSmallInt@@QEAAAEAV0@AEBVCNsiReal@@@Z
  ??YCNsiSmallInt@@QEAAAEAV0@F@Z
  ??YCNsiSmallInt@@QEAAAEAV0@H@Z
  ??YCNsiSmallInt@@QEAAAEAV0@J@Z
  ??YCNsiSmallInt@@QEAAAEAV0@N@Z
  ??YNcGePoint3d@@QEAAAEAV0@AEBVNcGeVector3d@@@Z
  ??YNcGeVector3d@@QEAAAEAV0@AEBV0@@Z
  ??YNcString@@QEAAAEAV0@AEBV0@@Z
  ??YNcString@@QEAAAEAV0@AEBV?$CStringT@_WV?$StrTraitMFC_DLL@_WV?$ChTraitsCRT@_W@ATL@@@@@ATL@@@Z
  ??YNcString@@QEAAAEAV0@D@Z
  ??YNcString@@QEAAAEAV0@PEBD@Z
  ??YNcString@@QEAAAEAV0@PEB_W@Z
  ??YNcString@@QEAAAEAV0@_W@Z
  ??YOffset@Ntil@@QEAAAEAV01@AEBV01@@Z
  ??YOffset@Ntil@@QEAAAEAV01@H@Z
  ??YPoint2d@Ntil@@QEAAAEAV01@AEBVVector2d@1@@Z
  ??YVector2d@Ntil@@UEAAAEAV01@AEBV01@@Z
  ??Yhalf@Ntil@@QEAAAEAV01@M@Z
  ??Yhalf@Ntil@@QEAAAEAV01@V01@@Z
  ??ZCNsiDecimal@@QEAAAEAV0@AEBV0@@Z
  ??ZCNsiDecimal@@QEAAAEAV0@AEBVCNsiDouble@@@Z
  ??ZCNsiDecimal@@QEAAAEAV0@AEBVCNsiFloat@@@Z
  ??ZCNsiDecimal@@QEAAAEAV0@AEBVCNsiInt@@@Z
  ??ZCNsiDecimal@@QEAAAEAV0@AEBVCNsiNumeric@@@Z
  ??ZCNsiDecimal@@QEAAAEAV0@AEBVCNsiReal@@@Z
  ??ZCNsiDecimal@@QEAAAEAV0@AEBVCNsiSmallInt@@@Z
  ??ZCNsiDecimal@@QEAAAEAV0@F@Z
  ??ZCNsiDecimal@@QEAAAEAV0@H@Z
  ??ZCNsiDecimal@@QEAAAEAV0@J@Z
  ??ZCNsiDecimal@@QEAAAEAV0@N@Z
  ??ZCNsiDouble@@QEAAAEAV0@AEBV0@@Z
  ??ZCNsiDouble@@QEAAAEAV0@AEBVCNsiDecimal@@@Z
  ??ZCNsiDouble@@QEAAAEAV0@AEBVCNsiFloat@@@Z
  ??ZCNsiDouble@@QEAAAEAV0@AEBVCNsiInt@@@Z
  ??ZCNsiDouble@@QEAAAEAV0@AEBVCNsiNumeric@@@Z
  ??ZCNsiDouble@@QEAAAEAV0@AEBVCNsiReal@@@Z
  ??ZCNsiDouble@@QEAAAEAV0@AEBVCNsiSmallInt@@@Z
  ??ZCNsiDouble@@QEAAAEAV0@F@Z
  ??ZCNsiDouble@@QEAAAEAV0@H@Z
  ??ZCNsiDouble@@QEAAAEAV0@J@Z
  ??ZCNsiDouble@@QEAAAEAV0@N@Z
  ??ZCNsiFloat@@QEAAAEAV0@AEBV0@@Z
  ??ZCNsiFloat@@QEAAAEAV0@AEBVCNsiDecimal@@@Z
  ??ZCNsiFloat@@QEAAAEAV0@AEBVCNsiDouble@@@Z
  ??ZCNsiFloat@@QEAAAEAV0@AEBVCNsiInt@@@Z
  ??ZCNsiFloat@@QEAAAEAV0@AEBVCNsiNumeric@@@Z
  ??ZCNsiFloat@@QEAAAEAV0@AEBVCNsiReal@@@Z
  ??ZCNsiFloat@@QEAAAEAV0@AEBVCNsiSmallInt@@@Z
  ??ZCNsiFloat@@QEAAAEAV0@F@Z
  ??ZCNsiFloat@@QEAAAEAV0@H@Z
  ??ZCNsiFloat@@QEAAAEAV0@J@Z
  ??ZCNsiFloat@@QEAAAEAV0@N@Z
  ??ZCNsiInt@@QEAAAEAV0@AEBV0@@Z
  ??ZCNsiInt@@QEAAAEAV0@AEBVCNsiDecimal@@@Z
  ??ZCNsiInt@@QEAAAEAV0@AEBVCNsiDouble@@@Z
  ??ZCNsiInt@@QEAAAEAV0@AEBVCNsiFloat@@@Z
  ??ZCNsiInt@@QEAAAEAV0@AEBVCNsiNumeric@@@Z
  ??ZCNsiInt@@QEAAAEAV0@AEBVCNsiReal@@@Z
  ??ZCNsiInt@@QEAAAEAV0@AEBVCNsiSmallInt@@@Z
  ??ZCNsiInt@@QEAAAEAV0@F@Z
  ??ZCNsiInt@@QEAAAEAV0@H@Z
  ??ZCNsiInt@@QEAAAEAV0@J@Z
  ??ZCNsiInt@@QEAAAEAV0@N@Z
  ??ZCNsiNumeric@@QEAAAEAV0@AEBV0@@Z
  ??ZCNsiNumeric@@QEAAAEAV0@AEBVCNsiDecimal@@@Z
  ??ZCNsiNumeric@@QEAAAEAV0@AEBVCNsiDouble@@@Z
  ??ZCNsiNumeric@@QEAAAEAV0@AEBVCNsiFloat@@@Z
  ??ZCNsiNumeric@@QEAAAEAV0@AEBVCNsiInt@@@Z
  ??ZCNsiNumeric@@QEAAAEAV0@AEBVCNsiReal@@@Z
  ??ZCNsiNumeric@@QEAAAEAV0@AEBVCNsiSmallInt@@@Z
  ??ZCNsiNumeric@@QEAAAEAV0@F@Z
  ??ZCNsiNumeric@@QEAAAEAV0@H@Z
  ??ZCNsiNumeric@@QEAAAEAV0@J@Z
  ??ZCNsiNumeric@@QEAAAEAV0@N@Z
  ??ZCNsiReal@@QEAAAEAV0@AEBV0@@Z
  ??ZCNsiReal@@QEAAAEAV0@AEBVCNsiDecimal@@@Z
  ??ZCNsiReal@@QEAAAEAV0@AEBVCNsiDouble@@@Z
  ??ZCNsiReal@@QEAAAEAV0@AEBVCNsiFloat@@@Z
  ??ZCNsiReal@@QEAAAEAV0@AEBVCNsiInt@@@Z
  ??ZCNsiReal@@QEAAAEAV0@AEBVCNsiNumeric@@@Z
  ??ZCNsiReal@@QEAAAEAV0@AEBVCNsiSmallInt@@@Z
  ??ZCNsiReal@@QEAAAEAV0@F@Z
  ??ZCNsiReal@@QEAAAEAV0@H@Z
  ??ZCNsiReal@@QEAAAEAV0@J@Z
  ??ZCNsiReal@@QEAAAEAV0@N@Z
  ??ZCNsiSmallInt@@QEAAAEAV0@AEBV0@@Z
  ??ZCNsiSmallInt@@QEAAAEAV0@AEBVCNsiDecimal@@@Z
  ??ZCNsiSmallInt@@QEAAAEAV0@AEBVCNsiDouble@@@Z
  ??ZCNsiSmallInt@@QEAAAEAV0@AEBVCNsiFloat@@@Z
  ??ZCNsiSmallInt@@QEAAAEAV0@AEBVCNsiInt@@@Z
  ??ZCNsiSmallInt@@QEAAAEAV0@AEBVCNsiNumeric@@@Z
  ??ZCNsiSmallInt@@QEAAAEAV0@AEBVCNsiReal@@@Z
  ??ZCNsiSmallInt@@QEAAAEAV0@F@Z
  ??ZCNsiSmallInt@@QEAAAEAV0@H@Z
  ??ZCNsiSmallInt@@QEAAAEAV0@J@Z
  ??ZCNsiSmallInt@@QEAAAEAV0@N@Z
  ??ZNcGePoint3d@@QEAAAEAV0@AEBVNcGeVector3d@@@Z
  ??ZNcGeVector3d@@QEAAAEAV0@AEBV0@@Z
  ??ZOffset@Ntil@@QEAAAEAV01@AEBV01@@Z
  ??ZOffset@Ntil@@QEAAAEAV01@H@Z
  ??ZVector2d@Ntil@@UEAAAEAV01@AEBV01@@Z
  ??Zhalf@Ntil@@QEAAAEAV01@M@Z
  ??Zhalf@Ntil@@QEAAAEAV01@V01@@Z
  ??_0CNsiDecimal@@QEAAAEAV0@AEBV0@@Z
  ??_0CNsiDecimal@@QEAAAEAV0@AEBVCNsiDouble@@@Z
  ??_0CNsiDecimal@@QEAAAEAV0@AEBVCNsiFloat@@@Z
  ??_0CNsiDecimal@@QEAAAEAV0@AEBVCNsiInt@@@Z
  ??_0CNsiDecimal@@QEAAAEAV0@AEBVCNsiNumeric@@@Z
  ??_0CNsiDecimal@@QEAAAEAV0@AEBVCNsiReal@@@Z
  ??_0CNsiDecimal@@QEAAAEAV0@AEBVCNsiSmallInt@@@Z
  ??_0CNsiDecimal@@QEAAAEAV0@F@Z
  ??_0CNsiDecimal@@QEAAAEAV0@H@Z
  ??_0CNsiDecimal@@QEAAAEAV0@J@Z
  ??_0CNsiDecimal@@QEAAAEAV0@N@Z
  ??_0CNsiDouble@@QEAAAEAV0@AEBV0@@Z
  ??_0CNsiDouble@@QEAAAEAV0@AEBVCNsiDecimal@@@Z
  ??_0CNsiDouble@@QEAAAEAV0@AEBVCNsiFloat@@@Z
  ??_0CNsiDouble@@QEAAAEAV0@AEBVCNsiInt@@@Z
  ??_0CNsiDouble@@QEAAAEAV0@AEBVCNsiNumeric@@@Z
  ??_0CNsiDouble@@QEAAAEAV0@AEBVCNsiReal@@@Z
  ??_0CNsiDouble@@QEAAAEAV0@AEBVCNsiSmallInt@@@Z
  ??_0CNsiDouble@@QEAAAEAV0@F@Z
  ??_0CNsiDouble@@QEAAAEAV0@H@Z
  ??_0CNsiDouble@@QEAAAEAV0@J@Z
  ??_0CNsiDouble@@QEAAAEAV0@N@Z
  ??_0CNsiFloat@@QEAAAEAV0@AEBV0@@Z
  ??_0CNsiFloat@@QEAAAEAV0@AEBVCNsiDecimal@@@Z
  ??_0CNsiFloat@@QEAAAEAV0@AEBVCNsiDouble@@@Z
  ??_0CNsiFloat@@QEAAAEAV0@AEBVCNsiInt@@@Z
  ??_0CNsiFloat@@QEAAAEAV0@AEBVCNsiNumeric@@@Z
  ??_0CNsiFloat@@QEAAAEAV0@AEBVCNsiReal@@@Z
  ??_0CNsiFloat@@QEAAAEAV0@AEBVCNsiSmallInt@@@Z
  ??_0CNsiFloat@@QEAAAEAV0@F@Z
  ??_0CNsiFloat@@QEAAAEAV0@H@Z
  ??_0CNsiFloat@@QEAAAEAV0@J@Z
  ??_0CNsiFloat@@QEAAAEAV0@N@Z
  ??_0CNsiInt@@QEAAAEAV0@AEBV0@@Z
  ??_0CNsiInt@@QEAAAEAV0@AEBVCNsiDecimal@@@Z
  ??_0CNsiInt@@QEAAAEAV0@AEBVCNsiDouble@@@Z
  ??_0CNsiInt@@QEAAAEAV0@AEBVCNsiFloat@@@Z
  ??_0CNsiInt@@QEAAAEAV0@AEBVCNsiNumeric@@@Z
  ??_0CNsiInt@@QEAAAEAV0@AEBVCNsiReal@@@Z
  ??_0CNsiInt@@QEAAAEAV0@AEBVCNsiSmallInt@@@Z
  ??_0CNsiInt@@QEAAAEAV0@F@Z
  ??_0CNsiInt@@QEAAAEAV0@H@Z
  ??_0CNsiInt@@QEAAAEAV0@J@Z
  ??_0CNsiInt@@QEAAAEAV0@N@Z
  ??_0CNsiNumeric@@QEAAAEAV0@AEBV0@@Z
  ??_0CNsiNumeric@@QEAAAEAV0@AEBVCNsiDecimal@@@Z
  ??_0CNsiNumeric@@QEAAAEAV0@AEBVCNsiDouble@@@Z
  ??_0CNsiNumeric@@QEAAAEAV0@AEBVCNsiFloat@@@Z
  ??_0CNsiNumeric@@QEAAAEAV0@AEBVCNsiInt@@@Z
  ??_0CNsiNumeric@@QEAAAEAV0@AEBVCNsiReal@@@Z
  ??_0CNsiNumeric@@QEAAAEAV0@AEBVCNsiSmallInt@@@Z
  ??_0CNsiNumeric@@QEAAAEAV0@F@Z
  ??_0CNsiNumeric@@QEAAAEAV0@H@Z
  ??_0CNsiNumeric@@QEAAAEAV0@J@Z
  ??_0CNsiNumeric@@QEAAAEAV0@N@Z
  ??_0CNsiReal@@QEAAAEAV0@AEBV0@@Z
  ??_0CNsiReal@@QEAAAEAV0@AEBVCNsiDecimal@@@Z
  ??_0CNsiReal@@QEAAAEAV0@AEBVCNsiDouble@@@Z
  ??_0CNsiReal@@QEAAAEAV0@AEBVCNsiFloat@@@Z
  ??_0CNsiReal@@QEAAAEAV0@AEBVCNsiInt@@@Z
  ??_0CNsiReal@@QEAAAEAV0@AEBVCNsiNumeric@@@Z
  ??_0CNsiReal@@QEAAAEAV0@AEBVCNsiSmallInt@@@Z
  ??_0CNsiReal@@QEAAAEAV0@F@Z
  ??_0CNsiReal@@QEAAAEAV0@H@Z
  ??_0CNsiReal@@QEAAAEAV0@J@Z
  ??_0CNsiReal@@QEAAAEAV0@N@Z
  ??_0CNsiSmallInt@@QEAAAEAV0@AEBV0@@Z
  ??_0CNsiSmallInt@@QEAAAEAV0@AEBVCNsiDecimal@@@Z
  ??_0CNsiSmallInt@@QEAAAEAV0@AEBVCNsiDouble@@@Z
  ??_0CNsiSmallInt@@QEAAAEAV0@AEBVCNsiFloat@@@Z
  ??_0CNsiSmallInt@@QEAAAEAV0@AEBVCNsiInt@@@Z
  ??_0CNsiSmallInt@@QEAAAEAV0@AEBVCNsiNumeric@@@Z
  ??_0CNsiSmallInt@@QEAAAEAV0@AEBVCNsiReal@@@Z
  ??_0CNsiSmallInt@@QEAAAEAV0@F@Z
  ??_0CNsiSmallInt@@QEAAAEAV0@H@Z
  ??_0CNsiSmallInt@@QEAAAEAV0@J@Z
  ??_0CNsiSmallInt@@QEAAAEAV0@N@Z
  ??_0NcGePoint3d@@QEAAAEAV0@N@Z
  ??_0NcGeVector3d@@QEAAAEAV0@N@Z
  ??_0Vector2d@Ntil@@UEAAAEAV01@AEBN@Z
  ??_0half@Ntil@@QEAAAEAV01@M@Z
  ??_0half@Ntil@@QEAAAEAV01@V01@@Z
  ??_7?$CCSUnknownImpl@UIHostIntegratorExEngine@@@@6B@
  ??_7?$NcGiCommonDrawHostImpl@VNcGiViewportDrawNrx@@@@6B@
  ??_7?$NcGiCommonDrawHostImpl@VNcGiWorldDraw@@@@6B@
  ??_7AddictedModules@@6B@
  ??_7BitonalModel@Ntil@@6BColorModelInterface@1@@
  ??_7BitonalModel@Ntil@@6BDataModel@1@@
  ??_7BmpFormatCodec@Ntil@@6BImageFormatCodec@1@@
  ??_7BmpFormatCodec@Ntil@@6BImageFormatCodecStreamingInterface@1@@
  ??_7CNsiApproxNum@@6B@
  ??_7CNsiBinary@@6B@
  ??_7CNsiBlob@@6B@
  ??_7CNsiChar@@6B@
  ??_7CNsiColumn@@6B@
  ??_7CNsiDT@@6B@
  ??_7CNsiData@@6B@
  ??_7CNsiDate@@6B@
  ??_7CNsiDatetime@@6B@
  ??_7CNsiDecimal@@6B@
  ??_7CNsiDouble@@6B@
  ??_7CNsiExactNum@@6B@
  ??_7CNsiFloat@@6B@
  ??_7CNsiHostBuffer@@6B@
  ??_7CNsiIQualifier@@6B@
  ??_7CNsiIRow@@6B@
  ??_7CNsiIdent@@6B@
  ??_7CNsiInt@@6B@
  ??_7CNsiInterval@@6B@
  ??_7CNsiList@@6B@
  ??_7CNsiNum@@6B@
  ??_7CNsiNumeric@@6B@
  ??_7CNsiObject@@6B@
  ??_7CNsiParameter@@6B@
  ??_7CNsiReal@@6B@
  ??_7CNsiRow@@6B@
  ??_7CNsiSmallInt@@6B@
  ??_7CNsiTime@@6B@
  ??_7CNsiTimeStamp@@6B@
  ??_7CNsiYM@@6B@
  ??_7ColorModelInterface@Ntil@@6B@
  ??_7DataBuffer@Ntil@@6B@
  ??_7DataModel@Ntil@@6B@
  ??_7DataModelAttributes@Ntil@@6B@
  ??_7DataStreamInterface@Ntil@@6B@
  ??_7FileReadDescriptorRep@Ntil@@6B@
  ??_7FileSpecifier@Ntil@@6B@
  ??_7FileWriteDescriptor@Ntil@@6B@
  ??_7FileWriteDescriptorRep@Ntil@@6B@
  ??_7FormatCodecAssociation@Ntil@@6B@
  ??_7FormatCodecBooleanProperty@Ntil@@6B@
  ??_7FormatCodecColorProperty@Ntil@@6B@
  ??_7FormatCodecDensity@Ntil@@6B@
  ??_7FormatCodecDoubleProperty@Ntil@@6B@
  ??_7FormatCodecExclusivePropertySetInterface@Ntil@@6B@
  ??_7FormatCodecInclusivePropertySetInterface@Ntil@@6B@
  ??_7FormatCodecIntProperty@Ntil@@6B@
  ??_7FormatCodecPropertyInterface@Ntil@@6B@
  ??_7FormatCodecPropertySetIterator@Ntil@@6B@
  ??_7FormatCodecStringProperty@Ntil@@6B@
  ??_7FormatCodecTransparency@Ntil@@6B@
  ??_7INativeExtension@@6B@
  ??_7INcPcDataBuffer@@6B@
  ??_7INcPcIndexProgress@@6B@
  ??_7INcPcPointFilter@@6B@
  ??_7INcPcPointProcessor@@6B@
  ??_7IWrapperQuery@@6B@
  ??_7ImageConstructionException@Ntil@@6B@
  ??_7ImageContextException@Ntil@@6B@
  ??_7ImageContextRep@Ntil@@6B@
  ??_7ImageException@Ntil@@6B@
  ??_7ImageFilter@Ntil@@6B@
  ??_7ImageFilterException@Ntil@@6B@
  ??_7ImageFormatCodec@Ntil@@6B@
  ??_7ImageFormatCodecStreamingInterface@Ntil@@6B@
  ??_7ImageReactorInterface@Ntil@@6B@
  ??_7ImageRep@Ntil@@6B@
  ??_7JfifFormatCodec@Ntil@@6BImageFormatCodec@1@@
  ??_7JfifFormatCodec@Ntil@@6BImageFormatCodecStreamingInterface@1@@
  ??_7NTILException@Ntil@@6B@
  ??_7Nc3PointAngleConstraint@@6B@
  ??_7NcAngleConstraint@@6B@
  ??_7NcApDocManager@@6B@
  ??_7NcApDocManagerReactor@@6B@
  ??_7NcApDocument@@6B@
  ??_7NcApDocumentIterator@@6B@
  ??_7NcApLayoutManager@@6B@
  ??_7NcApLongTransactionManager@@6B@
  ??_7NcApLongTransactionReactor@@6B@
  ??_7NcAutoConstrainEvaluationCallback@@6B@
  ??_7NcBrBrep@@6B@
  ??_7NcBrBrepComplexTraverser@@6B@
  ??_7NcBrBrepEdgeTraverser@@6B@
  ??_7NcBrBrepFaceTraverser@@6B@
  ??_7NcBrBrepShellTraverser@@6B@
  ??_7NcBrBrepVertexTraverser@@6B@
  ??_7NcBrComplex@@6B@
  ??_7NcBrComplexShellTraverser@@6B@
  ??_7NcBrEdge@@6B@
  ??_7NcBrEdgeLoopTraverser@@6B@
  ??_7NcBrElement2d@@6B@
  ??_7NcBrElement2dNodeTraverser@@6B@
  ??_7NcBrElement@@6B@
  ??_7NcBrEntity@@6B@
  ??_7NcBrFace@@6B@
  ??_7NcBrFaceLoopTraverser@@6B@
  ??_7NcBrHit@@6B@
  ??_7NcBrLoop@@6B@
  ??_7NcBrLoopEdgeTraverser@@6B@
  ??_7NcBrLoopVertexTraverser@@6B@
  ??_7NcBrMesh2d@@6B@
  ??_7NcBrMesh2dControl@@6B@
  ??_7NcBrMesh2dElement2dTraverser@@6B@
  ??_7NcBrMesh@@6B@
  ??_7NcBrMeshControl@@6B@
  ??_7NcBrMeshEntity@@6B@
  ??_7NcBrNode@@6B@
  ??_7NcBrShell@@6B@
  ??_7NcBrShellFaceTraverser@@6B@
  ??_7NcBrTraverser@@6B@
  ??_7NcBrVertex@@6B@
  ??_7NcBrVertexEdgeTraverser@@6B@
  ??_7NcBrVertexLoopTraverser@@6B@
  ??_7NcCenterPointConstraint@@6B@
  ??_7NcCmColor@@6B@
  ??_7NcCmColorBase@@6B@
  ??_7NcCmComplexColor@@6B@
  ??_7NcColinearConstraint@@6B@
  ??_7NcCompositeConstraint@@6B@
  ??_7NcConcentricConstraint@@6B@
  ??_7NcConstrained2PointsConstructionLine@@6B@
  ??_7NcConstrainedArc@@6B@
  ??_7NcConstrainedBoundedEllipse@@6B@
  ??_7NcConstrainedBoundedLine@@6B@
  ??_7NcConstrainedCircle@@6B@
  ??_7NcConstrainedConstructionLine@@6B@
  ??_7NcConstrainedCurve@@6B@
  ??_7NcConstrainedDatumLine@@6B@
  ??_7NcConstrainedEllipse@@6B@
  ??_7NcConstrainedGeometry@@6B@
  ??_7NcConstrainedImplicitPoint@@6B@
  ??_7NcConstrainedLine@@6B@
  ??_7NcConstrainedPoint@@6B@
  ??_7NcConstrainedRigidSet@@6B@
  ??_7NcConstrainedSpline@@6B@
  ??_7NcConstraintGroupNode@@6B@
  ??_7NcDb2LineAngularDimension@@6B@
  ??_7NcDb2dPolyline@@6B@
  ??_7NcDb2dVertex@@6B@
  ??_7NcDb3PointAngularDimension@@6B@
  ??_7NcDb3dPolyline@@6B@
  ??_7NcDb3dPolylineVertex@@6B@
  ??_7NcDb3dProfile@@6B@
  ??_7NcDb3dSolid@@6B@
  ??_7NcDbAbstractViewTable@@6B@
  ??_7NcDbAbstractViewTableIterator@@6B@
  ??_7NcDbAbstractViewTableRecord@@6B@
  ??_7NcDbActionsToEvaluateCallback@@6B@
  ??_7NcDbAlignedDimension@@6B@
  ??_7NcDbAnnotationScale@@6B@
  ??_7NcDbAnnotationScaleReactor@@6B@
  ??_7NcDbAnnotativeObjectPE@@6B@
  ??_7NcDbAppEntityGrips@@6B@
  ??_7NcDbArc@@6B@
  ??_7NcDbArcDimension@@6B@
  ??_7NcDbAssoc2dConstraintGroup@@6B@
  ??_7NcDbAssocAction@@6B@
  ??_7NcDbAssocActionBody@@6B@
  ??_7NcDbAssocActionParam@@6B@
  ??_7NcDbAssocAsmBodyActionParam@@6B@
  ??_7NcDbAssocBlendSurfaceActionBody@@6B@
  ??_7NcDbAssocCompoundActionParam@@6B@
  ??_7NcDbAssocDependency@@6B@
  ??_7NcDbAssocDependencyBody@@6B@
  ??_7NcDbAssocDependencyPE@@6B@
  ??_7NcDbAssocDimDependencyBody@@6B@
  ??_7NcDbAssocDimDependencyBodyBase@@6B@
  ??_7NcDbAssocEdgeActionParam@@6B@
  ??_7NcDbAssocEdgeChamferActionBody@@6B@
  ??_7NcDbAssocEdgeFilletActionBody@@6B@
  ??_7NcDbAssocEdgePersSubentId@@6B@
  ??_7NcDbAssocEvaluationCallback@@6B@
  ??_7NcDbAssocExtendSurfaceActionBody@@6B@
  ??_7NcDbAssocExtrudedSurfaceActionBody@@6B@
  ??_7NcDbAssocFaceActionParam@@6B@
  ??_7NcDbAssocGeomDependency@@6B@
  ??_7NcDbAssocLoftedSurfaceActionBody@@6B@
  ??_7NcDbAssocManager@@6B@
  ??_7NcDbAssocNetwork@@6B@
  ??_7NcDbAssocNetworkSurfaceActionBody@@6B@
  ??_7NcDbAssocOffsetSurfaceActionBody@@6B@
  ??_7NcDbAssocParamBasedActionBody@@6B@
  ??_7NcDbAssocPatchSurfaceActionBody@@6B@
  ??_7NcDbAssocPathActionParam@@6B@
  ??_7NcDbAssocPathBasedSurfaceActionBody@@6B@
  ??_7NcDbAssocPersSubentId@@6B@
  ??_7NcDbAssocPersSubentIdPE@@6B@
  ??_7NcDbAssocPlaneSurfaceActionBody@@6B@
  ??_7NcDbAssocRevolvedSurfaceActionBody@@6B@
  ??_7NcDbAssocSimplePersSubentId@@6B@
  ??_7NcDbAssocSingleEdgePersSubentId@@6B@
  ??_7NcDbAssocSurfaceActionBody@@6B@
  ??_7NcDbAssocSweptSurfaceActionBody@@6B@
  ??_7NcDbAssocTrimSurfaceActionBody@@6B@
  ??_7NcDbAssocValueDependency@@6B@
  ??_7NcDbAssocValueProviderPE@@6B@
  ??_7NcDbAssocVariable@@6B@
  ??_7NcDbAssocVertexActionParam@@6B@
  ??_7NcDbAttribute@@6B@
  ??_7NcDbAttributeDefinition@@6B@
  ??_7NcDbAuditRecreatePE@@6B@
  ??_7NcDbBackground@@6B@
  ??_7NcDbBlockBegin@@6B@
  ??_7NcDbBlockEnd@@6B@
  ??_7NcDbBlockInsertionPoints@@6B@
  ??_7NcDbBlockReference@@6B@
  ??_7NcDbBlockTable@@6B@
  ??_7NcDbBlockTableIterator@@6B@
  ??_7NcDbBlockTableRecord@@6B@
  ??_7NcDbBlockTableRecordIterator@@6B@
  ??_7NcDbBody@@6B@
  ??_7NcDbBreakData@@6B@
  ??_7NcDbBreakPointRef@@6B@
  ??_7NcDbCamera@@6B@
  ??_7NcDbCircle@@6B@
  ??_7NcDbColor@@6B@
  ??_7NcDbCompositeFilteredBlockIterator@@6B@
  ??_7NcDbCompoundObjectId@@6B@
  ??_7NcDbCurve@@6B@
  ??_7NcDbCurvePath@@6B@
  ??_7NcDbCustomOsnapInfo@@6B@
  ??_7NcDbCustomOsnapMode2@@6B@
  ??_7NcDbCustomOsnapMode@@6B@
  ??_7NcDbDataCell@@6B@
  ??_7NcDbDataColumn@@6B@
  ??_7NcDbDataTable@@6B@
  ??_7NcDbDatabase@@6B@
  ??_7NcDbDatabaseReactor@@6B@
  ??_7NcDbDatabaseSummaryInfo@@6B@
  ??_7NcDbDeepCloneFiler@@6B@
  ??_7NcDbDgnDefinition@@6B@
  ??_7NcDbDgnReference@@6B@
  ??_7NcDbDiametricDimension@@6B@
  ??_7NcDbDictionary@@6B@
  ??_7NcDbDictionaryIterator@@6B@
  ??_7NcDbDictionaryWithDefault@@6B@
  ??_7NcDbDimAssoc@@6B@
  ??_7NcDbDimStyleTable@@6B@
  ??_7NcDbDimStyleTableIterator@@6B@
  ??_7NcDbDimStyleTableRecord@@6B@
  ??_7NcDbDimension@@6B@
  ??_7NcDbDimensionStyleOverrule@@6B@
  ??_7NcDbDoubleClickEdit@@6B@
  ??_7NcDbDwfDefinition@@6B@
  ??_7NcDbDwfReference@@6B@
  ??_7NcDbDwgFiler@@6B@
  ??_7NcDbDxfFiler@@6B@
  ??_7NcDbDynBlockReference@@6B@
  ??_7NcDbDynBlockReferenceProperty@@6B@
  ??_7NcDbDynamicUCSPE@@6B@
  ??_7NcDbEdgeRef@@6B@
  ??_7NcDbEllipse@@6B@
  ??_7NcDbEntity@@6B@
  ??_7NcDbEntityHyperlinkPE@@6B@
  ??_7NcDbEntityReactor@@6B@
  ??_7NcDbEvalConnectable@@6B@
  ??_7NcDbEvalContext@@6B@
  ??_7NcDbEvalContextIterator@@6B@
  ??_7NcDbEvalContextPair@@6B@
  ??_7NcDbEvalExpr@@6B@
  ??_7NcDbEvalGraph@@6B@
  ??_7NcDbEvalVariant@@6B@
  ??_7NcDbExtents@@6B@
  ??_7NcDbExtrudedSurface@@6B@
  ??_7NcDbFace@@6B@
  ??_7NcDbFaceRecord@@6B@
  ??_7NcDbFaceRef@@6B@
  ??_7NcDbFcf@@6B@
  ??_7NcDbFilter@@6B@
  ??_7NcDbFilteredBlockIterator@@6B@
  ??_7NcDbFormattedTableData@@6B@
  ??_7NcDbGeomRef@@6B@
  ??_7NcDbGeometryOverrule@@6B@
  ??_7NcDbGradientBackground@@6B@
  ??_7NcDbGraph@@6B@
  ??_7NcDbGraphNode@@6B@
  ??_7NcDbGripOverrule@@6B@
  ??_7NcDbGroundPlaneBackground@@6B@
  ??_7NcDbGroup@@6B@
  ??_7NcDbGroupIterator@@6B@
  ??_7NcDbHatch@@6B@
  ??_7NcDbHelix@@6B@
  ??_7NcDbHighlightOverrule@@6B@
  ??_7NcDbHighlightStateOverrule@@6B@
  ??_7NcDbHostApplicationProgressMeter@@6B@
  ??_7NcDbHostApplicationServices@@6B@
  ??_7NcDbIdMapping@@6B@
  ??_7NcDbIdMappingIter@@6B@
  ??_7NcDbIdPair@@6B@
  ??_7NcDbImage@@6B@
  ??_7NcDbImageBackground@@6B@
  ??_7NcDbIndex@@6B@
  ??_7NcDbInterferencePE@@6B@
  ??_7NcDbJoinEntityPE@@6B@
  ??_7NcDbLayerFilter@@6B@
  ??_7NcDbLayerIndex@@6B@
  ??_7NcDbLayerIndexIterator@@6B@
  ??_7NcDbLayerStateManager@@6B@
  ??_7NcDbLayerStateManagerReactor@@6B@
  ??_7NcDbLayerTable@@6B@
  ??_7NcDbLayerTableIterator@@6B@
  ??_7NcDbLayerTableRecord@@6B@
  ??_7NcDbLayout@@6B@
  ??_7NcDbLayoutManager@@6B@
  ??_7NcDbLayoutManagerReactor@@6B@
  ??_7NcDbLeader@@6B@
  ??_7NcDbLight@@6B@
  ??_7NcDbLine@@6B@
  ??_7NcDbLinetypeTable@@6B@
  ??_7NcDbLinetypeTableIterator@@6B@
  ??_7NcDbLinetypeTableRecord@@6B@
  ??_7NcDbLinkedData@@6B@
  ??_7NcDbLinkedTableData@@6B@
  ??_7NcDbLoftProfile@@6B@
  ??_7NcDbLongTransWorkSetIterator@@6B@
  ??_7NcDbLongTransaction@@6B@
  ??_7NcDbMInsertBlock@@6B@
  ??_7NcDbMLeader@@6B@
  ??_7NcDbMLeaderStyle@@6B@
  ??_7NcDbMPolygon@@6B@
  ??_7NcDbMText@@6B@
  ??_7NcDbMatchProperties@@6B@
  ??_7NcDbMaterial@@6B@
  ??_7NcDbMentalRayRenderSettings@@6B@
  ??_7NcDbMline@@6B@
  ??_7NcDbMlineStyle@@6B@
  ??_7NcDbMotionPath@@6B@
  ??_7NcDbMultiModesGripPE@@6B@
  ??_7NcDbNamedPath@@6B@
  ??_7NcDbNurbSurface@@6B@
  ??_7NcDbObject@@6B@
  ??_7NcDbObjectContext@@6B@
  ??_7NcDbObjectContextCollection@@6B@
  ??_7NcDbObjectContextInterface@@6B@
  ??_7NcDbObjectContextManager@@6B@
  ??_7NcDbObjectIdGraph@@6B@
  ??_7NcDbObjectIdGraphNode@@6B@
  ??_7NcDbObjectIterator@@6B@
  ??_7NcDbObjectOverrule@@6B@
  ??_7NcDbObjectReactor@@6B@
  ??_7NcDbOle2Frame@@6B@
  ??_7NcDbOleFrame@@6B@
  ??_7NcDbOrdinateDimension@@6B@
  ??_7NcDbOsnapOverrule@@6B@
  ??_7NcDbOsnapPointRef@@6B@
  ??_7NcDbPaperOrientationPE@@6B@
  ??_7NcDbPlaceHolder@@6B@
  ??_7NcDbPlaneSurface@@6B@
  ??_7NcDbPlotSettings@@6B@
  ??_7NcDbPlotSettingsValidator@@6B@
  ??_7NcDbPoint@@6B@
  ??_7NcDbPointPath@@6B@
  ??_7NcDbPointRef@@6B@
  ??_7NcDbPolyFaceMesh@@6B@
  ??_7NcDbPolyFaceMeshVertex@@6B@
  ??_7NcDbPolygonMesh@@6B@
  ??_7NcDbPolygonMeshVertex@@6B@
  ??_7NcDbPolyline@@6B@
  ??_7NcDbPropertiesOverrule@@6B@
  ??_7NcDbPropertyFilterCustomizationPE@@6B@
  ??_7NcDbProxyEntity@@6B@
  ??_7NcDbProxyObject@@6B@
  ??_7NcDbRadialDimension@@6B@
  ??_7NcDbRadialDimensionLarge@@6B@
  ??_7NcDbRasterImage@@6B@
  ??_7NcDbRasterImageDef@@6B@
  ??_7NcDbRasterImageDefFileAccessReactor@@6B@
  ??_7NcDbRasterImageDefReactor@@6B@
  ??_7NcDbRasterImageDefTransReactor@@6B@
  ??_7NcDbRasterVariables@@6B@
  ??_7NcDbRay@@6B@
  ??_7NcDbRecoverCallBack@@6B@
  ??_7NcDbRegAppTable@@6B@
  ??_7NcDbRegAppTableIterator@@6B@
  ??_7NcDbRegAppTableRecord@@6B@
  ??_7NcDbRegion@@6B@
  ??_7NcDbRenderEnvironment@@6B@
  ??_7NcDbRenderGlobal@@6B@
  ??_7NcDbRenderSettings@@6B@
  ??_7NcDbRevolvedSurface@@6B@
  ??_7NcDbRotatedDimension@@6B@
  ??_7NcDbSequenceEnd@@6B@
  ??_7NcDbShape@@6B@
  ??_7NcDbSkyBackground@@6B@
  ??_7NcDbSolid@@6B@
  ??_7NcDbSolidBackground@@6B@
  ??_7NcDbSortentsTable@@6B@
  ??_7NcDbSpatialFilter@@6B@
  ??_7NcDbSpatialIndex@@6B@
  ??_7NcDbSpatialIndexIterator@@6B@
  ??_7NcDbSpline@@6B@
  ??_7NcDbSubDMesh@@6B@
  ??_7NcDbSubentRef@@6B@
  ??_7NcDbSubentityOverrule@@6B@
  ??_7NcDbSun@@6B@
  ??_7NcDbSurface@@6B@
  ??_7NcDbSymbolTable@@6B@
  ??_7NcDbSymbolTableIterator@@6B@
  ??_7NcDbSymbolTableRecord@@6B@
  ??_7NcDbTable@@6B@
  ??_7NcDbTableContent@@6B@
  ??_7NcDbTableStyle@@6B@
  ??_7NcDbTableTemplate@@6B@
  ??_7NcDbText@@6B@
  ??_7NcDbTextFieldsPE@@6B@
  ??_7NcDbTextStyleTable@@6B@
  ??_7NcDbTextStyleTableIterator@@6B@
  ??_7NcDbTextStyleTableRecord@@6B@
  ??_7NcDbTrace@@6B@
  ??_7NcDbTransactionManager@@6B@
  ??_7NcDbTransformOverrule@@6B@
  ??_7NcDbUCSTable@@6B@
  ??_7NcDbUCSTableIterator@@6B@
  ??_7NcDbUCSTableRecord@@6B@
  ??_7NcDbVertex@@6B@
  ??_7NcDbViewTable@@6B@
  ??_7NcDbViewTableIterator@@6B@
  ??_7NcDbViewTableRecord@@6B@
  ??_7NcDbViewport@@6B@
  ??_7NcDbViewportTable@@6B@
  ??_7NcDbViewportTableIterator@@6B@
  ??_7NcDbViewportTableRecord@@6B@
  ??_7NcDbVisibilityOverrule@@6B@
  ??_7NcDbVisualStyle@@6B@
  ??_7NcDbWblockCloneFiler@@6B@
  ??_7NcDbWipeout@@6B@
  ??_7NcDbXline@@6B@
  ??_7NcDbXrecord@@6B@
  ??_7NcDbXrecordIterator@@6B@
  ??_7NcDbXrefGraph@@6B@
  ??_7NcDbXrefGraphNode@@6B@
  ??_7NcDistanceConstraint@@6B@
  ??_7NcEdInputContextReactor@@6B@
  ??_7NcEdInputPointFilter@@6B@
  ??_7NcEdInputPointManager@@6B@
  ??_7NcEdInputPointMonitor@@6B@
  ??_7NcEqualCurvatureConstraint@@6B@
  ??_7NcEqualDistanceConstraint@@6B@
  ??_7NcEqualHelpParameterConstraint@@6B@
  ??_7NcEqualLengthConstraint@@6B@
  ??_7NcEqualRadiusConstraint@@6B@
  ??_7NcExplicitConstraint@@6B@
  ??_7NcFdFieldReactor@@6B@
  ??_7NcFdFieldResult@@6B@
  ??_7NcFileDependencyManager@@6B@
  ??_7NcFixedConstraint@@6B@
  ??_7NcG2SmoothConstraint@@6B@
  ??_7NcGeAugPolyline3d@@6B@
  ??_7NcGeBoundBlock2d@@6B@
  ??_7NcGeBoundedPlane@@6B@
  ??_7NcGeCircArc2d@@6B@
  ??_7NcGeCircArc3d@@6B@
  ??_7NcGeCompositeCurve2d@@6B@
  ??_7NcGeCompositeCurve3d@@6B@
  ??_7NcGeCone@@6B@
  ??_7NcGeCubicSplineCurve2d@@6B@
  ??_7NcGeCubicSplineCurve3d@@6B@
  ??_7NcGeCurve2d@@6B@
  ??_7NcGeCurve3d@@6B@
  ??_7NcGeCurveCurveInt2d@@6B@
  ??_7NcGeCurveCurveInt3d@@6B@
  ??_7NcGeCurveSurfInt@@6B@
  ??_7NcGeCylinder@@6B@
  ??_7NcGeEllipArc2d@@6B@
  ??_7NcGeEllipArc3d@@6B@
  ??_7NcGeEntity2d@@6B@
  ??_7NcGeEntity3d@@6B@
  ??_7NcGeExternalBoundedSurface@@6B@
  ??_7NcGeExternalCurve2d@@6B@
  ??_7NcGeExternalCurve3d@@6B@
  ??_7NcGeExternalSurface@@6B@
  ??_7NcGeInterval@@6B@
  ??_7NcGeLine2d@@6B@
  ??_7NcGeLine3d@@6B@
  ??_7NcGeLineSeg2d@@6B@
  ??_7NcGeLineSeg3d@@6B@
  ??_7NcGeLinearEnt2d@@6B@
  ??_7NcGeLinearEnt3d@@6B@
  ??_7NcGeNurbCurve2d@@6B@
  ??_7NcGeNurbCurve3d@@6B@
  ??_7NcGeNurbSurface@@6B@
  ??_7NcGeOffsetCurve2d@@6B@
  ??_7NcGeOffsetCurve3d@@6B@
  ??_7NcGeOffsetSurface@@6B@
  ??_7NcGePlanarEnt@@6B@
  ??_7NcGePlane@@6B@
  ??_7NcGePointEnt2d@@6B@
  ??_7NcGePointEnt3d@@6B@
  ??_7NcGePointOnCurve2d@@6B@
  ??_7NcGePointOnSurface@@6B@
  ??_7NcGePolyline2d@@6B@
  ??_7NcGePolyline3d@@6B@
  ??_7NcGePosition2d@@6B@
  ??_7NcGePosition3d@@6B@
  ??_7NcGeSphere@@6B@
  ??_7NcGeSplineEnt2d@@6B@
  ??_7NcGeSplineEnt3d@@6B@
  ??_7NcGeSurfSurfInt@@6B@
  ??_7NcGeSurface@@6B@
  ??_7NcGeTorus@@6B@
  ??_7NcGeomConstraint@@6B@
  ??_7NcGiCommonDraw@@6B@
  ??_7NcGiContext@@6B@
  ??_7NcGiDisplayStyle@@6B@
  ??_7NcGiDistantLightTraits2@@6B@
  ??_7NcGiDistantLightTraits@@6B@
  ??_7NcGiDrawable@@6B@
  ??_7NcGiDrawableOverrule@@6B@
  ??_7NcGiDrawableTraits2@@6B@
  ??_7NcGiDrawableTraits@@6B@
  ??_7NcGiEdgeData@@6B@
  ??_7NcGiEdgeStyle@@6B@
  ??_7NcGiFaceData@@6B@
  ??_7NcGiFaceStyle@@6B@
  ??_7NcGiGdiDrawObject@@6B@
  ??_7NcGiGenericTexture@@6B@
  ??_7NcGiGeometry@@6B@
  ??_7NcGiGlyph@@6B@
  ??_7NcGiGradientBackgroundTraits@@6B@
  ??_7NcGiGroundPlaneBackgroundTraits@@6B@
  ??_7NcGiImageBackgroundTraits@@6B@
  ??_7NcGiImageFileTexture@@6B@
  ??_7NcGiImageTexture@@6B@
  ??_7NcGiLightAttenuation@@6B@
  ??_7NcGiLightTraits@@6B@
  ??_7NcGiLinetypeEngine@@6B@
  ??_7NcGiMarbleTexture@@6B@
  ??_7NcGiMaterialColor@@6B@
  ??_7NcGiMaterialMap@@6B@
  ??_7NcGiMaterialTexture@@6B@
  ??_7NcGiMaterialTraits2@@6B@
  ??_7NcGiMaterialTraits@@6B@
  ??_7NcGiMentalRayRenderSettingsTraits2@@6B@
  ??_7NcGiMentalRayRenderSettingsTraits3@@6B@
  ??_7NcGiMentalRayRenderSettingsTraits@@6B@
  ??_7NcGiNonEntityTraits@@6B@
  ??_7NcGiPointLightTraits2@@6B@
  ??_7NcGiPointLightTraits@@6B@
  ??_7NcGiProceduralTexture@@6B@
  ??_7NcGiRenderEnvironmentTraits@@6B@
  ??_7NcGiRenderSettingsTraits@@6B@
  ??_7NcGiShadowParameters2@@6B@
  ??_7NcGiShadowParameters@@6B@
  ??_7NcGiSkyBackgroundTraits@@6B@
  ??_7NcGiSkyParameters@@6B@
  ??_7NcGiSolidBackgroundTraits@@6B@
  ??_7NcGiSpotLightTraits2@@6B@
  ??_7NcGiSpotLightTraits@@6B@
  ??_7NcGiStandardLightTraits@@6B@
  ??_7NcGiSubEntityTraits@@6B@
  ??_7NcGiTextEngine@@6B@
  ??_7NcGiTextStyle@@6B@
  ??_7NcGiToneOperatorParameters@@6B@
  ??_7NcGiVariant@@6B@
  ??_7NcGiVertexData@@6B@
  ??_7NcGiViewport@@6B@
  ??_7NcGiViewportDrawNrx@@6B@
  ??_7NcGiViewportDrawNrxHostImpl@@6B@
  ??_7NcGiViewportGeometry@@6B@
  ??_7NcGiViewportTraits@@6B@
  ??_7NcGiVisualStyle@@6B@
  ??_7NcGiVisualStyleTraits@@6B@
  ??_7NcGiWebLightTraits@@6B@
  ??_7NcGiWoodTexture@@6B@
  ??_7NcGiWorldDraw@@6B@
  ??_7NcGiWorldDrawHostImpl@@6B@
  ??_7NcGiWorldGeometry@@6B@
  ??_7NcGsDCPoint@@6B@
  ??_7NcGsDCRect@@6B@
  ??_7NcGsDevice@@6B@
  ??_7NcGsModel@@6B@
  ??_7NcGsNode@@6B@
  ??_7NcGsView@@6B@
  ??_7NcHelpParameter@@6B@
  ??_7NcHorizontalConstraint@@6B@
  ??_7NcLyLayerFilter@@6B@
  ??_7NcLyLayerFilterManager@@6B@
  ??_7NcLyLayerGroup@@6B@
  ??_7NcMidPointConstraint@@6B@
  ??_7NcNormalConstraint@@6B@
  ??_7NcParallelConstraint@@6B@
  ??_7NcPerpendicularConstraint@@6B@
  ??_7NcPointCoincidenceConstraint@@6B@
  ??_7NcPointCurveConstraint@@6B@
  ??_7NcRadiusDiameterConstraint@@6B@
  ??_7NcRxClass@@6B@
  ??_7NcRxClassExtPE@@6B@
  ??_7NcRxDictionary@@6B@
  ??_7NcRxDictionaryIterator@@6B@
  ??_7NcRxDynamicLinker@@6B@
  ??_7NcRxDynamicLinkerImpl@@6B?$CCSUnknownImpl@UIHostIntegratorExEngine@@@@@
  ??_7NcRxDynamicLinkerImpl@@6BHostEditorReactor@@@
  ??_7NcRxDynamicLinkerImpl@@6BNcApDocManagerReactor@@@
  ??_7NcRxDynamicLinkerImpl@@6BNcRxDynamicLinker@@@
  ??_7NcRxDynamicLinkerImpl@@6BhostLangEngine@@@
  ??_7NcRxEvent@@6B@
  ??_7NcRxEventReactor@@6B@
  ??_7NcRxIterator@@6B@
  ??_7NcRxObject@@6B@
  ??_7NcRxOverrule@@6B@
  ??_7NcRxService@@6B@
  ??_7NcSymmetricConstraint@@6B@
  ??_7NcTangentConstraint@@6B@
  ??_7NcTransaction@@6B@
  ??_7NcTransactionManager@@6B@
  ??_7NcTransactionReactor@@6B@
  ??_7NcVerticalConstraint@@6B@
  ??_7NsdkHlrCollector@@6B@
  ??_7NsdkHlrData@@6B@
  ??_7NsdkHlrEngine@@6B@
  ??_7OPMPerInstancePropertyExtension@@6B@
  ??_7OPMPerInstancePropertyExtensionFactory@@6B@
  ??_7OPMPerInstancePropertySources@@6B@
  ??_7OPMPropertyExtension@@6B@
  ??_7OPMPropertyExtensionFactory@@6B@
  ??_7PixelSelectorInterface@Ntil@@6B@
  ??_7PngCompression@Ntil@@6B@
  ??_7PngCompressionType@Ntil@@6B@
  ??_7PngCustomProperty@Ntil@@6B@
  ??_7PngFormatCodec@Ntil@@6BImageFormatCodec@1@@
  ??_7PngFormatCodec@Ntil@@6BImageFormatCodecStreamingInterface@1@@
  ??_7PngGamma@Ntil@@6BFormatCodecDoubleProperty@1@@
  ??_7PngGamma@Ntil@@6BPngCustomProperty@1@@
  ??_7PngGraySignificantBits@Ntil@@6BFormatCodecIntProperty@1@@
  ??_7PngGraySignificantBits@Ntil@@6BPngCustomProperty@1@@
  ??_7PngHistogram@Ntil@@6BFormatCodecPropertyInterface@1@@
  ??_7PngHistogram@Ntil@@6BPngCustomProperty@1@@
  ??_7PngInterlacing@Ntil@@6BFormatCodecBooleanProperty@1@@
  ??_7PngInterlacing@Ntil@@6BPngCustomProperty@1@@
  ??_7PngPageOffset@Ntil@@6BFormatCodecInclusivePropertySetInterface@1@@
  ??_7PngPageOffset@Ntil@@6BPngCustomProperty@1@@
  ??_7PngSRGB@Ntil@@6BFormatCodecExclusivePropertySetInterface@1@@
  ??_7PngSRGB@Ntil@@6BPngCustomProperty@1@@
  ??_7PngScale@Ntil@@6BFormatCodecInclusivePropertySetInterface@1@@
  ??_7PngScale@Ntil@@6BPngCustomProperty@1@@
  ??_7PngText@Ntil@@6BFormatCodecStringProperty@1@@
  ??_7PngText@Ntil@@6BPngCustomProperty@1@@
  ??_7RgbGrayModel@Ntil@@6BColorModelInterface@1@@
  ??_7RgbGrayModel@Ntil@@6BDataModel@1@@
  ??_7RgbModel@Ntil@@6BColorModelInterface@1@@
  ??_7RgbModel@Ntil@@6BDataModel@1@@
  ??_7RgbPaletteModel@Ntil@@6BColorModelInterface@1@@
  ??_7RgbPaletteModel@Ntil@@6BDataModel@1@@
  ??_7RgbPaletteModelException@Ntil@@6B@
  ??_7RowProviderInterface@Ntil@@6B@
  ??_7SeekableDataStreamInterface@Ntil@@6B@
  ??_7SpanProviderInterface@Ntil@@6B@
  ??_7StringBuffer@Ntil@@6B@
  ??_7TiffCompression@Ntil@@6BFormatCodecExclusivePropertySetInterface@1@@
  ??_7TiffCompression@Ntil@@6BTiffProperty@1@@
  ??_7TiffCompressionType@Ntil@@6BFormatCodecPropertyInterface@1@@
  ??_7TiffCompressionType@Ntil@@6BTiffProperty@1@@
  ??_7TiffFillOrder@Ntil@@6BFormatCodecExclusivePropertySetInterface@1@@
  ??_7TiffFillOrder@Ntil@@6BTiffProperty@1@@
  ??_7TiffFormatCodec@Ntil@@6BImageFormatCodec@1@@
  ??_7TiffFormatCodec@Ntil@@6BImageFormatCodecStreamingInterface@1@@
  ??_7TiffGrayResponseCurve@Ntil@@6BFormatCodecPropertyInterface@1@@
  ??_7TiffGrayResponseCurve@Ntil@@6BTiffProperty@1@@
  ??_7TiffPageInformation@Ntil@@6BFormatCodecInclusivePropertySetInterface@1@@
  ??_7TiffPageInformation@Ntil@@6BTiffProperty@1@@
  ??_7TiffPhotometricInterpretation@Ntil@@6BFormatCodecExclusivePropertySetInterface@1@@
  ??_7TiffPhotometricInterpretation@Ntil@@6BTiffProperty@1@@
  ??_7TiffPrivateTag@Ntil@@6BFormatCodecPropertyInterface@1@@
  ??_7TiffPrivateTag@Ntil@@6BTiffProperty@1@@
  ??_7TiffProperty@Ntil@@6B@
  ??_7TiffSampleRange@Ntil@@6BFormatCodecInclusivePropertySetInterface@1@@
  ??_7TiffSampleRange@Ntil@@6BTiffProperty@1@@
  ??_7TiffText@Ntil@@6BFormatCodecStringProperty@1@@
  ??_7TiffText@Ntil@@6BTiffProperty@1@@
  ??_7Vector2d@Ntil@@6B@
  ??_7VectorUL@Ntil@@6B@
  ??_F?$NcArray@HV?$HostMemoryAllocator@H@@@@QEAAXXZ
  ??_F?$NcArray@NV?$HostMemoryAllocator@N@@@@QEAAXXZ
  ??_F?$NcArray@PEAUHINSTANCE__@@V?$HostObjectsAllocator@PEAUHINSTANCE__@@@@@@QEAAXXZ
  ??_F?$NcArray@PEAVNcDb2dVertex@@V?$HostObjectsAllocator@PEAVNcDb2dVertex@@@@@@QEAAXXZ
  ??_F?$NcArray@PEAVNcDb3dPolylineVertex@@V?$HostObjectsAllocator@PEAVNcDb3dPolylineVertex@@@@@@QEAAXXZ
  ??_F?$NcArray@PEAVNcDbDimData@@V?$HostMemoryAllocator@PEAVNcDbDimData@@@@@@QEAAXXZ
  ??_F?$NcArray@PEAVNcDbEntity@@V?$HostObjectsAllocator@PEAVNcDbEntity@@@@@@QEAAXXZ
  ??_F?$NcArray@PEAVNcDbGripData@@V?$HostMemoryAllocator@PEAVNcDbGripData@@@@@@QEAAXXZ
  ??_F?$NcArray@PEAVNcDbNurbSurface@@V?$HostObjectsAllocator@PEAVNcDbNurbSurface@@@@@@QEAAXXZ
  ??_F?$NcArray@PEAVNcDbPolygonMeshVertex@@V?$HostObjectsAllocator@PEAVNcDbPolygonMeshVertex@@@@@@QEAAXXZ
  ??_F?$NcArray@PEAVNcDbVertex@@V?$HostObjectsAllocator@PEAVNcDbVertex@@@@@@QEAAXXZ
  ??_F?$NcArray@PEAVNcLyLayerFilter@@V?$HostObjectsAllocator@PEAVNcLyLayerFilter@@@@@@QEAAXXZ
  ??_F?$NcArray@PEAVNcTransaction@@V?$HostObjectsAllocator@PEAVNcTransaction@@@@@@QEAAXXZ
  ??_F?$NcArray@PEAVNsdkHlrData@@V?$HostObjectsAllocator@PEAVNsdkHlrData@@@@@@QEAAXXZ
  ??_F?$NcArray@PEAVOdDbEntity@@V?$HostObjectsAllocator@PEAVOdDbEntity@@@@@@QEAAXXZ
  ??_F?$NcArray@PEAXV?$HostMemoryAllocator@PEAX@@@@QEAAXXZ
  ??_F?$NcArray@VMcGeVector2d@@V?$HostMemoryAllocator@VMcGeVector2d@@@@@@QEAAXXZ
  ??_F?$NcArray@VNcDbEvalVariant@@V?$HostMemoryAllocator@VNcDbEvalVariant@@@@@@QEAAXXZ
  ??_F?$NcArray@VNcDbFullSubentPath@@V?$HostObjectsAllocator@VNcDbFullSubentPath@@@@@@QEAAXXZ
  ??_F?$NcArray@VNcDbObjectId@@V?$HostObjectsAllocator@VNcDbObjectId@@@@@@QEAAXXZ
  ??_F?$NcArray@VNcGePoint2d@@V?$HostMemoryAllocator@VNcGePoint2d@@@@@@QEAAXXZ
  ??_F?$NcArray@VNcGePoint3d@@V?$HostMemoryAllocator@VNcGePoint3d@@@@@@QEAAXXZ
  ??_F?$NcArray@VNcGeVector3d@@V?$HostMemoryAllocator@VNcGeVector3d@@@@@@QEAAXXZ
  ??_F?$NcArray@_JV?$HostMemoryAllocator@_J@@@@QEAAXXZ
  ??_FCNcModuleResourceOverride@@QEAAXXZ
  ??_FImagePixel@Ntil@@QEAAXXZ
  ??_FNcConstrainedCircle@@QEAAXXZ
  ??_FNcConstrainedEllipse@@QEAAXXZ
  ??_FNcConstrainedLine@@QEAAXXZ
  ??_FNcConstrainedPoint@@QEAAXXZ
  ??_FNcDbAssoc2dConstraintGroup@@QEAAXXZ
  ??_FNcDbAssocAction@@QEAAXXZ
  ??_FNcDbAssocActionBody@@QEAAXXZ
  ??_FNcDbAssocActionParam@@QEAAXXZ
  ??_FNcDbAssocAsmBodyActionParam@@QEAAXXZ
  ??_FNcDbAssocBlendSurfaceActionBody@@QEAAXXZ
  ??_FNcDbAssocCompoundActionParam@@QEAAXXZ
  ??_FNcDbAssocDependency@@QEAAXXZ
  ??_FNcDbAssocDependencyBody@@QEAAXXZ
  ??_FNcDbAssocDependencyNotificationDisabler@@QEAAXXZ
  ??_FNcDbAssocDimDependencyBodyBase@@QEAAXXZ
  ??_FNcDbAssocEdgeActionParam@@QEAAXXZ
  ??_FNcDbAssocEdgeChamferActionBody@@QEAAXXZ
  ??_FNcDbAssocEdgeFilletActionBody@@QEAAXXZ
  ??_FNcDbAssocExtendSurfaceActionBody@@QEAAXXZ
  ??_FNcDbAssocExtrudedSurfaceActionBody@@QEAAXXZ
  ??_FNcDbAssocFaceActionParam@@QEAAXXZ
  ??_FNcDbAssocGeomDependency@@QEAAXXZ
  ??_FNcDbAssocLoftedSurfaceActionBody@@QEAAXXZ
  ??_FNcDbAssocNetwork@@QEAAXXZ
  ??_FNcDbAssocNetworkSurfaceActionBody@@QEAAXXZ
  ??_FNcDbAssocOffsetSurfaceActionBody@@QEAAXXZ
  ??_FNcDbAssocParamBasedActionBody@@QEAAXXZ
  ??_FNcDbAssocPatchSurfaceActionBody@@QEAAXXZ
  ??_FNcDbAssocPathActionParam@@QEAAXXZ
  ??_FNcDbAssocPathBasedSurfaceActionBody@@QEAAXXZ
  ??_FNcDbAssocPlaneSurfaceActionBody@@QEAAXXZ
  ??_FNcDbAssocRevolvedSurfaceActionBody@@QEAAXXZ
  ??_FNcDbAssocSimplePersSubentId@@QEAAXXZ
  ??_FNcDbAssocSurfaceActionBody@@QEAAXXZ
  ??_FNcDbAssocSweptSurfaceActionBody@@QEAAXXZ
  ??_FNcDbAssocTrimSurfaceActionBody@@QEAAXXZ
  ??_FNcDbAssocValueDependency@@QEAAXXZ
  ??_FNcDbAssocVariable@@QEAAXXZ
  ??_FNcDbAssocVertexActionParam@@QEAAXXZ
  ??_FNcDbDatabase@@QEAAXXZ
  ??_FNcDbGraph@@QEAAXXZ
  ??_FNcDbGraphNode@@QEAAXXZ
  ??_FNcDbGraphStack@@QEAAXXZ
  ??_FNcDbHostApplicationServices@@QEAAXXZ
  ??_FNcDbPlotSettings@@QEAAXXZ
  ??_FNcDbXrefGraph@@QEAAXXZ
  ??_FNcDbXrefGraphNode@@QEAAXXZ
  ??_FNcGeInterval@@QEAAXXZ
  ??_FNcGeKnotVector@@QEAAXXZ
  ??_FNcGiTextStyle@@QEAAXXZ
  ??_FNcParallelConstraint@@QEAAXXZ
  ??_FNsdkHlrEngine@@QEAAXXZ
  ??_FPngCompression@Ntil@@QEAAXXZ
  ??_FRgbPaletteModel@Ntil@@QEAAXXZ
  ??_FTiffFillOrder@Ntil@@QEAAXXZ
  ??_FTiffFormatCodec@Ntil@@QEAAXXZ
  ??_FTiffPhotometricInterpretation@Ntil@@QEAAXXZ
  ??_UINativeExtension@@SAPEAX_K@Z
  ??_UINativeExtension@@SAPEAX_KPEAX@Z
  ??_UNcCmTransparency@@SAPEAX_K@Z
  ??_UNcCmTransparency@@SAPEAX_KPEAX@Z
  ??_UNcDbRasterVariables@@CAPEAX_K@Z
  ??_UNcDbRasterVariables@@CAPEAX_KPEBDH@Z
  ??_UNcRxObject@@SAPEAX_K@Z
  ??_UNcRxObject@@SAPEAX_KPEAX@Z
  ??_UNcRxObject@@SAPEAX_KPEBDH@Z
  ??_VINativeExtension@@SAXPEAX0@Z
  ??_VINativeExtension@@SAXPEAX@Z
  ??_VNcCmTransparency@@SAXPEAX0@Z
  ??_VNcCmTransparency@@SAXPEAX@Z
  ??_VNcDbRasterVariables@@CAXPEAX@Z
  ??_VNcRxObject@@SAXPEAX@Z
  ??_VNcRxObject@@SAXPEAXPEBDH@Z
  ?APILogger_StaticReport@@YAHHPEB_WW4NotImplApiAction@IApiLogger@@@Z
  ?AddRef@?$CCSUnknownImpl@UIHostIntegratorExEngine@@@@UEAAJXZ
  ?Append@CNsiUcStr@@QEAAXAEBV1@@Z
  ?Append@CNsiUcStr@@QEAAXAEBV1@H@Z
  ?Append@CNsiUcStr@@QEAAXAEBVCNsiUcChar@@@Z
  ?Append@CNsiUcStr@@QEAAXH@Z
  ?Append@CNsiUcStr@@QEAAXHK@Z
  ?Append@CNsiUcStr@@QEAAXHPEBD@Z
  ?Append@CNsiUcStr@@QEAAXPEBD0@Z
  ?Append@CNsiUcStr@@QEAAXPEBD@Z
  ?Append@CNsiUcStr@@QEAAXPEBDH0@Z
  ?Append@CNsiUcStr@@QEAAXPEBDH@Z
  ?Append@CNsiUcStr@@QEAAXPEBDHK@Z
  ?Append@CNsiUcStr@@QEAAXPEBDK@Z
  ?Append@CNsiUcStr@@QEAAXPEBV1@@Z
  ?Append@CNsiUcStr@@QEAAXPEBV1@H@Z
  ?Append@CNsiUcStr@@QEAAXPEBVCNsiUcChar@@@Z
  ?Append@CNsiUcStr@@QEAAXPEB_WHK@Z
  ?Append@CNsiUcStr@@QEAAXPEB_WHPEBD@Z
  ?Append@CNsiUcStr@@QEAAXPEB_WK@Z
  ?Append@CNsiUcStr@@QEAAXPEB_WPEBD@Z
  ?Append@CNsiUcStr@@QEAAXQEA_W@Z
  ?Append@CNsiUcStr@@QEAAXQEA_WH@Z
  ?Append@CNsiUcStr@@QEAAX_W@Z
  ?AssignConstructor@NcRxClass@@QEAAXP6APEAVNcRxObject@@XZ@Z
  ?AssignNative@NcRxObject@@IEBAXPEAVOdRxObject@@@Z
  ?Atof@CNsiUcStr@@QEBANXZ
  ?Atoi@CNsiUcStr@@QEBAHXZ
  ?Atol@CNsiUcStr@@QEBAJXZ
  ?AttachInstance@CNcExtensionModule@@QEAAHPEAUHINSTANCE__@@@Z
  ?Attached@CNcExtensionModule@@QEAAHXZ
  ?Body@CNsiIdent@@QEBAAEBVCNsiUcStr@@XZ
  ?ByteSize@CNsiChar@@QEBAIXZ
  ?CharSet@CNsiIdent@@QEBAAEBVCNsiUcStr@@XZ
  ?CharSetIdent@CNsiChar@@QEBAKXZ
  ?CharSetName@CNsiChar@@QEBAAEBVCNsiUcStr@@XZ
  ?ChkDiv@CNsiDT@@AEAAXN@Z
  ?ChkMul@CNsiDT@@AEAAXN@Z
  ?ChkSet2@CNsiDT@@AEAAXN@Z
  ?ChkSet@CNsiDT@@AEAA?AW4ENsiBoolean@@N@Z
  ?Chlen@CNsiUcStr@@QEBAHK@Z
  ?Chlen@CNsiUcStr@@QEBAHPEBD@Z
  ?Chlen@CNsiUcStr@@QEBAHXZ
  ?ChlenChk@CNsiUcStr@@QEBAHK@Z
  ?ChlenChk@CNsiUcStr@@QEBAHPEBD@Z
  ?ChlenChk@CNsiUcStr@@QEBAHXZ
  ?Clear@CNsiBinary@@UEAAXXZ
  ?Clear@CNsiBlob@@UEAAXXZ
  ?Clear@CNsiChar@@UEAAXXZ
  ?Clear@CNsiColumn@@UEAAXXZ
  ?Clear@CNsiData@@UEAAXXZ
  ?Clear@CNsiIRow@@UEAAXXZ
  ?Clear@CNsiIdent@@UEAAXXZ
  ?Clear@CNsiList@@UEAAXXZ
  ?Clear@CNsiObject@@UEAAXXZ
  ?Clear@CNsiParameter@@EEAAXXZ
  ?Clear@CNsiRow@@UEAAXXZ
  ?Clear@CNsiUcStr@@QEAAXXZ
  ?Coercibility@CNsiChar@@QEBA?AW4ENsiCAttr@@XZ
  ?ColNum@CNsiRow@@QEBAHXZ
  ?CollIdent@CNsiChar@@QEBAKXZ
  ?CollName@CNsiChar@@QEBAAEBVCNsiUcStr@@XZ
  ?Collation@CNsiColumn@@QEBAPEBVCNsiUcStr@@XZ
  ?ColumnFlags@CNsiColumn@@QEBAKXZ
  ?ColumnInfo@CNsiColumn@@QEBAAEBUtagDBCOLUMNINFO@@XZ
  ?Comp@CNsiUcChar@@QEBAHAEBV1@@Z
  ?Comp@CNsiUcChar@@QEBAHH@Z
  ?Comp@CNsiUcChar@@QEBAHHK@Z
  ?Comp@CNsiUcChar@@QEBAHHPEBD@Z
  ?Comp@CNsiUcChar@@QEBAHPEAV1@@Z
  ?Comp@CNsiUcChar@@QEBAH_W@Z
  ?Comp@CNsiUcStr@@QEBAHAEBV1@@Z
  ?Comp@CNsiUcStr@@QEBAHAEBV1@H@Z
  ?Comp@CNsiUcStr@@QEBAHPEBD0@Z
  ?Comp@CNsiUcStr@@QEBAHPEBD@Z
  ?Comp@CNsiUcStr@@QEBAHPEBDH0@Z
  ?Comp@CNsiUcStr@@QEBAHPEBDH@Z
  ?Comp@CNsiUcStr@@QEBAHPEBDHK@Z
  ?Comp@CNsiUcStr@@QEBAHPEBDK@Z
  ?Comp@CNsiUcStr@@QEBAHPEBV1@@Z
  ?Comp@CNsiUcStr@@QEBAHPEBV1@H@Z
  ?Comp@CNsiUcStr@@QEBAHQEA_W@Z
  ?Comp@CNsiUcStr@@QEBAHQEA_WH@Z
  ?CompColSet@CNsiChar@@AEBAKKW4ENsiCAttr@@@Z
  ?Compi@CNsiUcChar@@QEBAHAEBV1@@Z
  ?Compi@CNsiUcChar@@QEBAHH@Z
  ?Compi@CNsiUcChar@@QEBAHHK@Z
  ?Compi@CNsiUcChar@@QEBAHHPEBD@Z
  ?Compi@CNsiUcChar@@QEBAHPEAV1@@Z
  ?Compi@CNsiUcChar@@QEBAH_W@Z
  ?Compi@CNsiUcStr@@QEBAHAEBV1@@Z
  ?Compi@CNsiUcStr@@QEBAHAEBV1@H@Z
  ?Compi@CNsiUcStr@@QEBAHPEBD0@Z
  ?Compi@CNsiUcStr@@QEBAHPEBD@Z
  ?Compi@CNsiUcStr@@QEBAHPEBDH0@Z
  ?Compi@CNsiUcStr@@QEBAHPEBDH@Z
  ?Compi@CNsiUcStr@@QEBAHPEBDHK@Z
  ?Compi@CNsiUcStr@@QEBAHPEBDK@Z
  ?Compi@CNsiUcStr@@QEBAHPEBV1@@Z
  ?Compi@CNsiUcStr@@QEBAHPEBV1@H@Z
  ?Compi@CNsiUcStr@@QEBAHPEB_WHK@Z
  ?Compi@CNsiUcStr@@QEBAHPEB_WHPEBD@Z
  ?Compi@CNsiUcStr@@QEBAHPEB_WK@Z
  ?Compi@CNsiUcStr@@QEBAHPEB_WPEBD@Z
  ?Compi@CNsiUcStr@@QEBAHQEA_W@Z
  ?Compi@CNsiUcStr@@QEBAHQEA_WH@Z
  ?Copy@CNsiUcStr@@QEAAXAEBV1@@Z
  ?Copy@CNsiUcStr@@QEAAXAEBV1@H@Z
  ?Copy@CNsiUcStr@@QEAAXPEBD0@Z
  ?Copy@CNsiUcStr@@QEAAXPEBD@Z
  ?Copy@CNsiUcStr@@QEAAXPEBDH0@Z
  ?Copy@CNsiUcStr@@QEAAXPEBDH@Z
  ?Copy@CNsiUcStr@@QEAAXPEBDHK@Z
  ?Copy@CNsiUcStr@@QEAAXPEBDK@Z
  ?Copy@CNsiUcStr@@QEAAXPEBV1@@Z
  ?Copy@CNsiUcStr@@QEAAXPEBV1@H@Z
  ?Copy@CNsiUcStr@@QEAAXPEB_W@Z
  ?Copy@CNsiUcStr@@QEAAXPEB_WHK@Z
  ?Copy@CNsiUcStr@@QEAAXPEB_WHPEBD@Z
  ?Copy@CNsiUcStr@@QEAAXPEB_WK@Z
  ?Copy@CNsiUcStr@@QEAAXPEB_WPEBD@Z
  ?Copy@CNsiUcStr@@QEAAXQEA_W@Z
  ?Copy@CNsiUcStr@@QEAAXQEA_WH@Z
  ?CreateNativeImpl@@YA?AVOdRxObjectPtr@@PEAVOdRxClass@@@Z
  ?DTDiff@CNsiDate@@QEBA?AVCNsiDT@@AEBV1@AEBV2@@Z
  ?DTDiff@CNsiTime@@QEBA?AVCNsiDT@@AEBV1@AEBV2@@Z
  ?DTDiff@CNsiTimeStamp@@QEBA?AVCNsiDT@@AEBV1@AEBV2@@Z
  ?DateTimeType@CNsiData@@UEBA?AW4ENsiDTType@@XZ
  ?DateTimeType@CNsiDate@@UEBA?AW4ENsiDTType@@XZ
  ?DateTimeType@CNsiTime@@UEBA?AW4ENsiDTType@@XZ
  ?DateTimeType@CNsiTimeStamp@@UEBA?AW4ENsiDTType@@XZ
  ?Day@CNsiDate@@UEBAGXZ
  ?Day@CNsiDatetime@@UEBAGXZ
  ?Day@CNsiTime@@UEBAGXZ
  ?Day@CNsiTimeStamp@@UEBAGXZ
  ?Default@CNsiColumn@@QEBAPEAVCNsiData@@XZ
  ?DefaultResourceInstance@CNcExtensionModule@@QEAAPEAUHINSTANCE__@@XZ
  ?DeletePointerOnHost@@YAXXZ
  ?DetachInstance@CNcExtensionModule@@QEAAXXZ
  ?Domain@CNsiColumn@@QEBAAEBVCNsiIdent@@XZ
  ?Dsc@CNsiParameter@@QEBAPEAVCNsiData@@XZ
  ?DyadicOpColSet@CNsiChar@@AEBAKKPEAW4ENsiCAttr@@W42@@Z
  ?FindFirst@CNsiUcStr@@QEBAHAEBV1@@Z
  ?FindFirst@CNsiUcStr@@QEBAHAEBVCNsiUcChar@@@Z
  ?FindFirst@CNsiUcStr@@QEBAHH@Z
  ?FindFirst@CNsiUcStr@@QEBAHHK@Z
  ?FindFirst@CNsiUcStr@@QEBAHHPEBD@Z
  ?FindFirst@CNsiUcStr@@QEBAHPEBD0@Z
  ?FindFirst@CNsiUcStr@@QEBAHPEBD@Z
  ?FindFirst@CNsiUcStr@@QEBAHPEBDK@Z
  ?FindFirst@CNsiUcStr@@QEBAHPEBV1@@Z
  ?FindFirst@CNsiUcStr@@QEBAHPEBVCNsiUcChar@@@Z
  ?FindFirst@CNsiUcStr@@QEBAHQEA_W@Z
  ?FindFirst@CNsiUcStr@@QEBAH_W@Z
  ?FindLast@CNsiUcStr@@QEBAHAEBV1@@Z
  ?FindLast@CNsiUcStr@@QEBAHAEBVCNsiUcChar@@@Z
  ?FindLast@CNsiUcStr@@QEBAHH@Z
  ?FindLast@CNsiUcStr@@QEBAHHK@Z
  ?FindLast@CNsiUcStr@@QEBAHHPEBD@Z
  ?FindLast@CNsiUcStr@@QEBAHPEBD0@Z
  ?FindLast@CNsiUcStr@@QEBAHPEBD@Z
  ?FindLast@CNsiUcStr@@QEBAHPEBDK@Z
  ?FindLast@CNsiUcStr@@QEBAHPEBV1@@Z
  ?FindLast@CNsiUcStr@@QEBAHPEBVCNsiUcChar@@@Z
  ?FindLast@CNsiUcStr@@QEBAHQEA_W@Z
  ?FindLast@CNsiUcStr@@QEBAH_W@Z
  ?FracSecPrec@CNsiData@@UEBAIXZ
  ?FracSecPrec@CNsiIQualifier@@UEBAIXZ
  ?GetClassDictionary@@YAPEAVNcRxDictionary@@XZ
  ?GetClasses@RxClassStorage@@QEAAPEAV?$map@PEAVOdRxClass@@PEAVNcRxClass@@U?$less@PEAVOdRxClass@@@std@@V?$allocator@U?$pair@QEAVOdRxClass@@PEAVNcRxClass@@@std@@@4@@std@@XZ
  ?GetCountOfLispList@NcApDocument@@UEBAHXZ
  ?GetDynamicLinker@@YAPEAVNcRxDynamicLinker@@XZ
  ?GetIDispatch@NcApDocument@@UEAAPEAUIDispatch@@_N@Z
  ?GetItemOfLispList@NcApDocument@@UEBAPEAVNcLispAppInfo@@H@Z
  ?GetNativeObject@NcDb2dPolyline@@UEBAPEAVOdRxObject@@XZ
  ?GetNativeObject@NcDb3dPolyline@@UEBAPEAVOdRxObject@@XZ
  ?GetNativeObject@NcDb3dSolid@@MEBAPEAVOdRxObject@@XZ
  ?GetNativeObject@NcDbArc@@MEBAPEAVOdRxObject@@XZ
  ?GetNativeObject@NcDbBlockReference@@UEBAPEAVOdRxObject@@XZ
  ?GetNativeObject@NcDbCircle@@MEBAPEAVOdRxObject@@XZ
  ?GetNativeObject@NcDbCurve@@MEBAPEAVOdRxObject@@XZ
  ?GetNativeObject@NcDbDictionary@@MEBAPEAVOdRxObject@@XZ
  ?GetNativeObject@NcDbEllipse@@MEBAPEAVOdRxObject@@XZ
  ?GetNativeObject@NcDbEntity@@MEBAPEAVOdRxObject@@XZ
  ?GetNativeObject@NcDbLeader@@MEBAPEAVOdRxObject@@XZ
  ?GetNativeObject@NcDbLine@@MEBAPEAVOdRxObject@@XZ
  ?GetNativeObject@NcDbObject@@MEBAPEAVOdRxObject@@XZ
  ?GetNativeObject@NcDbPolyline@@MEBAPEAVOdRxObject@@XZ
  ?GetNativeObject@NcDbRasterImageDefReactor@@MEBAPEAVOdRxObject@@XZ
  ?GetNativeObject@NcDbSpline@@UEBAPEAVOdRxObject@@XZ
  ?GetNativeObject@NcDbTable@@MEBAPEAVOdRxObject@@XZ
  ?GetNativeObject@NcDbXrecord@@MEBAPEAVOdRxObject@@XZ
  ?GetNativeObject@NcRxObject@@UEBAPEAVOdRxObject@@XZ
  ?GetNotImplMessageFormat@@YA?AW4AssertMessageFormat@@XZ
  ?GetPointerOnHost@@YAPEAVNrxHostInterface@@XZ
  ?GetServiceDictionary@@YAPEAVNcRxDictionary@@XZ
  ?GetThunkClasses@RxClassStorage@@QEAAPEAV?$OdArray@PEAVOdRxClass@@V?$OdObjectsAllocator@PEAVOdRxClass@@@@@@XZ
  ?GetType@CNsiBlob@@QEBA?AW4EBlobType@1@XZ
  ?Hour@CNsiDate@@UEBAGXZ
  ?Hour@CNsiDatetime@@UEBAGXZ
  ?Hour@CNsiTime@@UEBAGXZ
  ?Hour@CNsiTimeStamp@@UEBAGXZ
  ?ImplDataType@CNsiData@@UEBAHXZ
  ?InitPlatformClasses@RxClassStorage@@QEAAXXZ
  ?InsertControlPointsAtU@NcDbNurbSurface@@QEAA?AW4ErrorStatus@Nano@@NAEBV?$NcArray@VNcGePoint3d@@V?$HostMemoryAllocator@VNcGePoint3d@@@@@@AEBV?$NcArray@NV?$HostMemoryAllocator@N@@@@@Z
  ?InsertControlPointsAtV@NcDbNurbSurface@@QEAA?AW4ErrorStatus@Nano@@NAEBV?$NcArray@VNcGePoint3d@@V?$HostMemoryAllocator@VNcGePoint3d@@@@@@AEBV?$NcArray@NV?$HostMemoryAllocator@N@@@@@Z
  ?InsertKnotAtU@NcDbNurbSurface@@QEAA?AW4ErrorStatus@Nano@@N@Z
  ?InsertKnotAtV@NcDbNurbSurface@@QEAA?AW4ErrorStatus@Nano@@N@Z
  ?IntervalType@CNsiData@@UEBA?AW4ENsiIType@@XZ
  ?IntervalType@CNsiIQualifier@@UEBA?AW4ENsiIType@@XZ
  ?IsBookmark@CNsiColumn@@QEBA?AW4ENsiBoolean@@XZ
  ?LeadFieldPrec@CNsiData@@UEBAIXZ
  ?LeadFieldPrec@CNsiIQualifier@@UEBAIXZ
  ?Length@CNsiBinary@@UEBAIXZ
  ?Length@CNsiBlob@@UEBAIXZ
  ?Length@CNsiChar@@UEBAIXZ
  ?Length@CNsiData@@UEBAIXZ
  ?Length@CNsiIdent@@QEBAHXZ
  ?Length@CNsiUcStr@@QEBAHXZ
  ?Like@CNsiChar@@QEBA?AW4ENsiBoolean@@AEBV1@0@Z
  ?LocalToUTC@CNsiDT@@AEBANN@Z
  ?Lower@CNsiChar@@QEBA?AV1@XZ
  ?Lower@CNsiUcChar@@QEBA?AV1@XZ
  ?MLeaderStyle@NcDbMLeader@@QEAA?AVNcDbObjectId@@XZ
  ?MapColumnInfoToNsi@CNsiData@@SAPEAV1@PEAUtagDBCOLUMNINFO@@@Z
  ?MapNsiToColumnInfo@CNsiBinary@@UEBAPEAUtagDBCOLUMNINFO@@PEAU2@@Z
  ?MapNsiToColumnInfo@CNsiBlob@@UEBAPEAUtagDBCOLUMNINFO@@PEAU2@@Z
  ?MapNsiToColumnInfo@CNsiChar@@UEBAPEAUtagDBCOLUMNINFO@@PEAU2@@Z
  ?MapNsiToColumnInfo@CNsiDT@@UEBAPEAUtagDBCOLUMNINFO@@PEAU2@@Z
  ?MapNsiToColumnInfo@CNsiData@@UEBAPEAUtagDBCOLUMNINFO@@PEAU2@@Z
  ?MapNsiToColumnInfo@CNsiDate@@UEBAPEAUtagDBCOLUMNINFO@@PEAU2@@Z
  ?MapNsiToColumnInfo@CNsiDecimal@@UEBAPEAUtagDBCOLUMNINFO@@PEAU2@@Z
  ?MapNsiToColumnInfo@CNsiDouble@@UEBAPEAUtagDBCOLUMNINFO@@PEAU2@@Z
  ?MapNsiToColumnInfo@CNsiFloat@@UEBAPEAUtagDBCOLUMNINFO@@PEAU2@@Z
  ?MapNsiToColumnInfo@CNsiInt@@UEBAPEAUtagDBCOLUMNINFO@@PEAU2@@Z
  ?MapNsiToColumnInfo@CNsiNumeric@@UEBAPEAUtagDBCOLUMNINFO@@PEAU2@@Z
  ?MapNsiToColumnInfo@CNsiReal@@UEBAPEAUtagDBCOLUMNINFO@@PEAU2@@Z
  ?MapNsiToColumnInfo@CNsiSmallInt@@UEBAPEAUtagDBCOLUMNINFO@@PEAU2@@Z
  ?MapNsiToColumnInfo@CNsiTime@@UEBAPEAUtagDBCOLUMNINFO@@PEAU2@@Z
  ?MapNsiToColumnInfo@CNsiTimeStamp@@UEBAPEAUtagDBCOLUMNINFO@@PEAU2@@Z
  ?MapNsiToColumnInfo@CNsiYM@@UEBAPEAUtagDBCOLUMNINFO@@PEAU2@@Z
  ?MapNsiToParamInfo@CNsiBinary@@UEBAPEAUtagDBPARAMINFO@@PEAU2@@Z
  ?MapNsiToParamInfo@CNsiBlob@@UEBAPEAUtagDBPARAMINFO@@PEAU2@@Z
  ?MapNsiToParamInfo@CNsiChar@@UEBAPEAUtagDBPARAMINFO@@PEAU2@@Z
  ?MapNsiToParamInfo@CNsiDT@@UEBAPEAUtagDBPARAMINFO@@PEAU2@@Z
  ?MapNsiToParamInfo@CNsiData@@UEBAPEAUtagDBPARAMINFO@@PEAU2@@Z
  ?MapNsiToParamInfo@CNsiDate@@UEBAPEAUtagDBPARAMINFO@@PEAU2@@Z
  ?MapNsiToParamInfo@CNsiDecimal@@UEBAPEAUtagDBPARAMINFO@@PEAU2@@Z
  ?MapNsiToParamInfo@CNsiDouble@@UEBAPEAUtagDBPARAMINFO@@PEAU2@@Z
  ?MapNsiToParamInfo@CNsiFloat@@UEBAPEAUtagDBPARAMINFO@@PEAU2@@Z
  ?MapNsiToParamInfo@CNsiInt@@UEBAPEAUtagDBPARAMINFO@@PEAU2@@Z
  ?MapNsiToParamInfo@CNsiNumeric@@UEBAPEAUtagDBPARAMINFO@@PEAU2@@Z
  ?MapNsiToParamInfo@CNsiReal@@UEBAPEAUtagDBPARAMINFO@@PEAU2@@Z
  ?MapNsiToParamInfo@CNsiSmallInt@@UEBAPEAUtagDBPARAMINFO@@PEAU2@@Z
  ?MapNsiToParamInfo@CNsiTime@@UEBAPEAUtagDBPARAMINFO@@PEAU2@@Z
  ?MapNsiToParamInfo@CNsiTimeStamp@@UEBAPEAUtagDBPARAMINFO@@PEAU2@@Z
  ?MapNsiToParamInfo@CNsiYM@@UEBAPEAUtagDBPARAMINFO@@PEAU2@@Z
  ?MapParamInfoToNsi@CNsiData@@SAPEAV1@PEAUtagDBPARAMINFO@@@Z
  ?Minute@CNsiDate@@UEBAGXZ
  ?Minute@CNsiDatetime@@UEBAGXZ
  ?Minute@CNsiTime@@UEBAGXZ
  ?Minute@CNsiTimeStamp@@UEBAGXZ
  ?ModuleResourceInstance@CNcExtensionModule@@QEAAPEAUHINSTANCE__@@XZ
  ?Month@CNsiDate@@UEBAGXZ
  ?Month@CNsiDatetime@@UEBAGXZ
  ?Month@CNsiTime@@UEBAGXZ
  ?Month@CNsiTimeStamp@@UEBAGXZ
  ?MultibyteLen@CNsiUcStr@@QEBAHK@Z
  ?MultibyteLen@CNsiUcStr@@QEBAHPEBD@Z
  ?MultibyteLen@CNsiUcStr@@QEBAHXZ
  ?Name@CNsiColumn@@QEBAAEBVCNsiIdent@@XZ
  ?Name@CNsiParameter@@QEBAAEBVCNsiIdent@@XZ
  ?Native@CNsiColumn@@QEBA?AW4ENsiBoolean@@XZ
  ?NcApGetDatabase@@YAPEAVNcDbDatabase@@PEAVCView@@@Z
  ?NcAxArrayPolar@@YAJAEAVNcAxObjectRef@@PEAUIDispatch@@HNUtagVARIANT@@PEAU3@@Z
  ?NcAxArrayPolar@@YAJAEAVNcDbObjectId@@PEAUIDispatch@@HNUtagVARIANT@@PEAU3@@Z
  ?NcAxArrayRectangular@@YAJAEAVNcAxObjectRef@@PEAUIDispatch@@HHHNNNPEAUtagVARIANT@@@Z
  ?NcAxArrayRectangular@@YAJAEAVNcDbObjectId@@PEAUIDispatch@@HHHNNNPEAUtagVARIANT@@@Z
  ?NcAxCopy@@YAJAEAVNcAxObjectRef@@PEAUIDispatch@@PEAPEAU2@VNcDbObjectId@@@Z
  ?NcAxCopy@@YAJAEAVNcDbObjectId@@PEAUIDispatch@@PEAPEAU2@V1@@Z
  ?NcAxEnableShadowDisplay@@YAJAEAVNcAxObjectRef@@PEA_N@Z
  ?NcAxErase@@YAJAEAVNcAxObjectRef@@@Z
  ?NcAxErase@@YAJAEAVNcDbObjectId@@@Z
  ?NcAxGetBoundingBox@@YAJAEAVNcAxObjectRef@@PEAUtagVARIANT@@1@Z
  ?NcAxGetBoundingBox@@YAJAEAVNcDbObjectId@@PEAUtagVARIANT@@1@Z
  ?NcAxGetColor@@YAJAEAVNcAxObjectRef@@PEAW4AcColor@@@Z
  ?NcAxGetColor@@YAJAEAVNcDbObjectId@@PEAW4AcColor@@@Z
  ?NcAxGetDatabase@@YAJPEAVNcDbDatabase@@PEAUIDispatch@@PEAPEAU2@@Z
  ?NcAxGetExtensionDictionary@@YAJAEAVNcAxObjectRef@@PEAUIDispatch@@PEAPEAUIAcadDictionary@@@Z
  ?NcAxGetExtensionDictionary@@YAJAEAVNcDbObjectId@@PEAUIDispatch@@PEAPEAUIAcadDictionary@@@Z
  ?NcAxGetHandle@@YAJAEAVNcAxObjectRef@@PEAPEA_W@Z
  ?NcAxGetHandle@@YAJAEAVNcDbObjectId@@PEAPEA_W@Z
  ?NcAxGetHyperlinks@@YAJAEAVNcAxObjectRef@@PEAUIDispatch@@PEAPEAUIAcadHyperlinks@@@Z
  ?NcAxGetHyperlinks@@YAJAEAVNcDbObjectId@@PEAUIDispatch@@PEAPEAUIAcadHyperlinks@@@Z
  ?NcAxGetLayer@@YAJAEAVNcAxObjectRef@@PEAPEA_W@Z
  ?NcAxGetLayer@@YAJAEAVNcDbObjectId@@PEAPEA_W@Z
  ?NcAxGetLineWeight@@YAJAEAVNcAxObjectRef@@PEAW4AcLineWeight@@@Z
  ?NcAxGetLineWeight@@YAJAEAVNcDbObjectId@@PEAW4AcLineWeight@@@Z
  ?NcAxGetLinetype@@YAJAEAVNcAxObjectRef@@PEAPEA_W@Z
  ?NcAxGetLinetype@@YAJAEAVNcDbObjectId@@PEAPEA_W@Z
  ?NcAxGetLinetypeScale@@YAJAEAVNcAxObjectRef@@PEAN@Z
  ?NcAxGetLinetypeScale@@YAJAEAVNcDbObjectId@@PEAN@Z
  ?NcAxGetMaterial@@YAJAEAVNcAxObjectRef@@PEAPEA_W@Z
  ?NcAxGetObjectId32@@YAJAEB_J@Z
  ?NcAxGetObjectId64@@YA_JAEBJ@Z
  ?NcAxGetObjectName@@YAJAEAVNcAxObjectRef@@PEAPEA_W@Z
  ?NcAxGetObjectName@@YAJAEAVNcDbObjectId@@PEAPEA_W@Z
  ?NcAxGetOleLinkManager@@YAPEAVNcAxOleLinkManager@@XZ
  ?NcAxGetOwnerId@@YAJAEAVNcAxObjectRef@@PEA_J@Z
  ?NcAxGetOwnerId@@YAJAEAVNcDbObjectId@@PEA_J@Z
  ?NcAxGetPlotStyleName@@YAJAEAVNcAxObjectRef@@PEAPEA_W@Z
  ?NcAxGetPlotStyleName@@YAJAEAVNcDbObjectId@@PEAPEA_W@Z
  ?NcAxGetShadowDisplay@@YAJAEAVNcAxObjectRef@@PEAW4AcShadowDisplayType@@@Z
  ?NcAxGetTransparency@@YAJAEAVNcAxObjectRef@@PEAPEA_W@Z
  ?NcAxGetTransparency@@YAJAEAVNcDbObjectId@@PEAPEA_W@Z
  ?NcAxGetTrueColor@@YAJAEAVNcAxObjectRef@@PEAPEAUIAcadAcCmColor@@@Z
  ?NcAxGetTrueColor@@YAJAEAVNcDbObjectId@@PEAPEAUIAcadAcCmColor@@@Z
  ?NcAxGetVisible@@YAJAEAVNcAxObjectRef@@PEAF@Z
  ?NcAxGetVisible@@YAJAEAVNcDbObjectId@@PEAF@Z
  ?NcAxGetXData@@YAJAEAVNcAxObjectRef@@PEA_WPEAUtagVARIANT@@2@Z
  ?NcAxGetXData@@YAJAEAVNcDbObjectId@@PEA_WPEAUtagVARIANT@@2@Z
  ?NcAxHasExtensionDictionary@@YAJAEAVNcAxObjectRef@@PEAF@Z
  ?NcAxHasExtensionDictionary@@YAJAEAVNcDbObjectId@@PEAF@Z
  ?NcAxHighlight@@YAJAEAVNcAxObjectRef@@F@Z
  ?NcAxHighlight@@YAJAEAVNcDbObjectId@@F@Z
  ?NcAxIntersectWith@@YAJAEAVNcAxObjectRef@@PEAUIDispatch@@W4AcExtendOption@@PEAUtagVARIANT@@@Z
  ?NcAxIntersectWith@@YAJAEAVNcDbObjectId@@PEAUIDispatch@@W4AcExtendOption@@PEAUtagVARIANT@@@Z
  ?NcAxMirror3D@@YAJAEAVNcAxObjectRef@@PEAUIDispatch@@UtagVARIANT@@22PEAPEAU2@@Z
  ?NcAxMirror3D@@YAJAEAVNcDbObjectId@@PEAUIDispatch@@UtagVARIANT@@22PEAPEAU2@@Z
  ?NcAxMirror@@YAJAEAVNcAxObjectRef@@PEAUIDispatch@@UtagVARIANT@@2PEAPEAU2@@Z
  ?NcAxMirror@@YAJAEAVNcDbObjectId@@PEAUIDispatch@@UtagVARIANT@@2PEAPEAU2@@Z
  ?NcAxMove@@YAJAEAVNcAxObjectRef@@UtagVARIANT@@1@Z
  ?NcAxMove@@YAJAEAVNcDbObjectId@@UtagVARIANT@@1@Z
  ?NcAxPutColor@@YAJAEAVNcAxObjectRef@@W4AcColor@@@Z
  ?NcAxPutColor@@YAJAEAVNcDbObjectId@@W4AcColor@@@Z
  ?NcAxPutLayer@@YAJAEAVNcAxObjectRef@@PEA_W@Z
  ?NcAxPutLayer@@YAJAEAVNcDbObjectId@@PEA_W@Z
  ?NcAxPutLineWeight@@YAJAEAVNcAxObjectRef@@W4AcLineWeight@@@Z
  ?NcAxPutLineWeight@@YAJAEAVNcDbObjectId@@W4AcLineWeight@@@Z
  ?NcAxPutLinetype@@YAJAEAVNcAxObjectRef@@PEA_W@Z
  ?NcAxPutLinetype@@YAJAEAVNcDbObjectId@@PEA_W@Z
  ?NcAxPutLinetypeScale@@YAJAEAVNcAxObjectRef@@N@Z
  ?NcAxPutLinetypeScale@@YAJAEAVNcDbObjectId@@N@Z
  ?NcAxPutMaterial@@YAJAEAVNcAxObjectRef@@PEA_W@Z
  ?NcAxPutPlotStyleName@@YAJAEAVNcAxObjectRef@@PEA_W@Z
  ?NcAxPutPlotStyleName@@YAJAEAVNcDbObjectId@@PEA_W@Z
  ?NcAxPutShadowDisplay@@YAJAEAVNcAxObjectRef@@W4AcShadowDisplayType@@@Z
  ?NcAxPutTransparency@@YAJAEAVNcAxObjectRef@@PEA_W@Z
  ?NcAxPutTransparency@@YAJAEAVNcDbObjectId@@PEA_W@Z
  ?NcAxPutTrueColor@@YAJAEAVNcAxObjectRef@@PEAUIAcadAcCmColor@@@Z
  ?NcAxPutTrueColor@@YAJAEAVNcDbObjectId@@PEAUIAcadAcCmColor@@@Z
  ?NcAxPutVisible@@YAJAEAVNcAxObjectRef@@F@Z
  ?NcAxPutVisible@@YAJAEAVNcDbObjectId@@F@Z
  ?NcAxRotate3D@@YAJAEAVNcAxObjectRef@@UtagVARIANT@@1N@Z
  ?NcAxRotate3D@@YAJAEAVNcDbObjectId@@UtagVARIANT@@1N@Z
  ?NcAxRotate@@YAJAEAVNcAxObjectRef@@UtagVARIANT@@N@Z
  ?NcAxRotate@@YAJAEAVNcDbObjectId@@UtagVARIANT@@N@Z
  ?NcAxScaleEntity@@YAJAEAVNcAxObjectRef@@UtagVARIANT@@N@Z
  ?NcAxScaleEntity@@YAJAEAVNcDbObjectId@@UtagVARIANT@@N@Z
  ?NcAxSetXData@@YAJAEAVNcAxObjectRef@@UtagVARIANT@@1@Z
  ?NcAxSetXData@@YAJAEAVNcDbObjectId@@UtagVARIANT@@1@Z
  ?NcAxTransformBy@@YAJAEAVNcAxObjectRef@@UtagVARIANT@@@Z
  ?NcAxTransformBy@@YAJAEAVNcDbObjectId@@UtagVARIANT@@@Z
  ?NcAxUpdate@@YAJAEAVNcAxObjectRef@@@Z
  ?NcAxUpdate@@YAJAEAVNcDbObjectId@@@Z
  ?NcFdExtractData@@YAHPEAVNcDbField@@AEAPEA_W1111@Z
  ?NcFdExtractData@@YAHPEAVNcDbField@@AEAVNcDbObjectId@@AEAPEA_W@Z
  ?NcFdMakeFieldCode@@YAHAEBVNcDbObjectId@@0W4ExpressionFieldOption@NcFdEval@@AEBV?$NcArray@UNcCellRange@@V?$HostObjectsAllocator@UNcCellRange@@@@@@PEB_WPEAUNcHyperlink@@AEAPEA_W@Z
  ?NcFdMakeFieldCode@@YAHAEBVNcDbObjectId@@KPEB_WW4ObjectFieldOption@NcFdEval@@1PEAUNcHyperlink@@AEAPEA_W@Z
  ?NcFdMakeFieldCode@@YAHPEAUINcSmDatabase@@PEAUINcSmSheetSet@@PEAUINcSmComponent@@PEB_W3W4SheetSetFieldOption@NcFdEval@@3AEAPEA_W@Z
  ?NcOpmEditable@@YAJPEAUIUnknown@@PEAUNCAD_OPMPROPMAP_ENTRY@@JPEAH@Z
  ?NcOpmGetCategoryCommandButtons@@YAJPEAUIUnknown@@PEAUHINSTANCE__@@AEAV?$vector@UCATCMDBTN_ENTRY@@V?$allocator@UCATCMDBTN_ENTRY@@@std@@@std@@HPEAUtagVARIANT@@@Z
  ?NcOpmGetCategoryDescription@@YAJPEAUIUnknown@@PEAUHINSTANCE__@@AEAV?$vector@UCATEGORY_ENTRY@@V?$allocator@UCATEGORY_ENTRY@@@std@@@std@@HKPEAPEA_W@Z
  ?NcOpmGetCategoryName@@YAJPEAUIUnknown@@PEAUHINSTANCE__@@AEAV?$vector@UCATEGORY_ENTRY@@V?$allocator@UCATEGORY_ENTRY@@@std@@@std@@HKPEAPEA_W@Z
  ?NcOpmGetCategoryName@@YAJPEAUIUnknown@@PEAUHINSTANCE__@@PEAUNCAD_OPMPROPMAP_ENTRY@@HKPEAPEA_W@Z
  ?NcOpmGetCategoryWeight@@YAJPEAUIUnknown@@AEAV?$vector@UCATEGORY_ENTRY@@V?$allocator@UCATEGORY_ENTRY@@@std@@@std@@HPEAJ@Z
  ?NcOpmGetCommandButtons@@YAJPEAUIUnknown@@PEAUHINSTANCE__@@AEAV?$vector@UCMDBTN_ENTRY@@V?$allocator@UCMDBTN_ENTRY@@@std@@@std@@PEAUtagVARIANT@@@Z
  ?NcOpmGetCustomPropertyCtrl@@YAJPEAUIUnknown@@AEAV?$vector@UPER_PROP_DISP_ENTRY@@V?$allocator@UPER_PROP_DISP_ENTRY@@@std@@@std@@UtagVARIANT@@KPEAPEA_W@Z
  ?NcOpmGetDisplayName@@YAJPEAUIUnknown@@PEAUHINSTANCE__@@PEAUNCAD_OPMPROPMAP_ENTRY@@JPEAPEA_W@Z
  ?NcOpmGetDisplayString@@YAJPEAUIUnknown@@PEAUNCAD_OPMPROPMAP_ENTRY@@JPEAPEA_W@Z
  ?NcOpmGetParentCategory@@YAJPEAUIUnknown@@AEAV?$vector@UCATEGORY_ENTRY@@V?$allocator@UCATEGORY_ENTRY@@@std@@@std@@HPEAH@Z
  ?NcOpmGetPredefinedStrings@@YAJPEAUIUnknown@@PEAUHINSTANCE__@@PEAUNCAD_OPMPROPMAP_ENTRY@@JPEAUtagCALPOLESTR@@PEAUtagCADWORD@@@Z
  ?NcOpmGetPredefinedValue@@YAJPEAUIUnknown@@PEAUNCAD_OPMPROPMAP_ENTRY@@JKPEAUtagVARIANT@@@Z
  ?NcOpmGetPropTextColor@@YAJPEAUIUnknown@@AEAV?$vector@UPER_PROP_DISP_ENTRY@@V?$allocator@UPER_PROP_DISP_ENTRY@@@std@@@std@@UtagVARIANT@@PEAK@Z
  ?NcOpmGetPropertyIcon@@YAJPEAUIUnknown@@PEAUHINSTANCE__@@AEAV?$vector@UPER_PROP_DISP_ENTRY@@V?$allocator@UPER_PROP_DISP_ENTRY@@@std@@@std@@UtagVARIANT@@PEAPEAU1@@Z
  ?NcOpmGetPropertyWeight@@YAJPEAUIUnknown@@AEAV?$vector@UPER_PROP_DISP_ENTRY@@V?$allocator@UPER_PROP_DISP_ENTRY@@@std@@@std@@UtagVARIANT@@PEAJ@Z
  ?NcOpmIsPropFullView@@YAJPEAUIUnknown@@AEAV?$vector@UPER_PROP_DISP_ENTRY@@V?$allocator@UPER_PROP_DISP_ENTRY@@@std@@@std@@UtagVARIANT@@PEAFPEAK@Z
  ?NcOpmMapPropertyToCategory@@YAJPEAUIUnknown@@PEAUNCAD_OPMPROPMAP_ENTRY@@JPEAH@Z
  ?NcOpmMapPropertyToPage@@YAJPEAUIUnknown@@PEAUNCAD_OPMPROPMAP_ENTRY@@JPEAU_GUID@@@Z
  ?NcOpmShowProperty@@YAJPEAUIUnknown@@PEAUNCAD_OPMPROPMAP_ENTRY@@JPEAH@Z
  ?NewNcGeCurve@NcGeCurve2d@@SAPEAV1@PEAVMcGeEntity3d@@_N@Z
  ?NewNcGeCurve@NcGeCurve3d@@SAPEAV1@PEAVMcGeEntity3d@@_N@Z
  ?NewNcGeEntity@NcGeEntity2d@@SAPEAV1@PEAVMcGeEntity3d@@_N@Z
  ?NewNcGeEntity@NcGeEntity3d@@SAPEAV1@PEAVMcGeEntity3d@@_N@Z
  ?NewNcGePointEnt@NcGePointEnt2d@@SAPEAV1@PEAVMcGeEntity3d@@_N@Z
  ?NewNcGePointEnt@NcGePointEnt3d@@SAPEAV1@PEAVMcGeEntity3d@@_N@Z
  ?NewRxClass@@YAPEAVNcRxClass@@PEB_W0HHHP6A?AVNcRxObjectPtr@@XZP6APEAVNcRxObject@@XZ00@Z
  ?Nullable@CNsiColumn@@QEBA?AW4ENsiBoolean@@XZ
  ?Offset@CNsiColumn@@QEBAIXZ
  ?Position@CNsiChar@@QEBA?AVCNsiNumeric@@AEBV1@@Z
  ?Precision@CNsiData@@UEBAIXZ
  ?Precision@CNsiNum@@UEBAIXZ
  ?ProductKey@NcRxDynamicLinker@@UEBAPEB_WXZ
  ?ProductLcid@NcRxDynamicLinker@@UEBAKXZ
  ?Quantity@CNsiIRow@@QEBAHXZ
  ?QueryInterface@?$CCSUnknownImpl@UIHostIntegratorExEngine@@@@UEAAHAEBVtype_info@@PEAPEAUICSUnknown@@@Z
  ?Read@CNsiBlob@@QEAAJPEAXKPEAK@Z
  ?ReadHead@CNsiBlob@@QEAAJXZ
  ?Release@?$CCSUnknownImpl@UIHostIntegratorExEngine@@@@UEAAJXZ
  ?RemoveControlPointsAtU@NcDbNurbSurface@@QEAA?AW4ErrorStatus@Nano@@H@Z
  ?RemoveControlPointsAtV@NcDbNurbSurface@@QEAA?AW4ErrorStatus@Nano@@H@Z
  ?RenderToImage@NcGsView@@UEAA_NPEAVImage@Ntil@@PEAVNcGiDrawable@@PEAXAEBVNcGsDCRect@@_N@Z
  ?ReportNotImplementedAPI@@YAXPEB_W@Z
  ?ReportNotImplementedAPIAction@@YAXPEB_WW4NotImplApiAction@IApiLogger@@@Z
  ?ReturnLength@CNsiBinary@@UEBAIXZ
  ?ReturnLength@CNsiBlob@@UEBAIXZ
  ?ReturnLength@CNsiChar@@UEBAIXZ
  ?ReturnLength@CNsiData@@UEBAIXZ
  ?ReturnLength@CNsiDate@@UEBAIXZ
  ?ReturnLength@CNsiDecimal@@UEBAIXZ
  ?ReturnLength@CNsiDouble@@UEBAIXZ
  ?ReturnLength@CNsiFloat@@UEBAIXZ
  ?ReturnLength@CNsiIQualifier@@UEBAIXZ
  ?ReturnLength@CNsiInt@@UEBAIXZ
  ?ReturnLength@CNsiNumeric@@UEBAIXZ
  ?ReturnLength@CNsiReal@@UEBAIXZ
  ?ReturnLength@CNsiSmallInt@@UEBAIXZ
  ?ReturnLength@CNsiTime@@UEBAIXZ
  ?ReturnLength@CNsiTimeStamp@@UEBAIXZ
  ?RolloverHit@NcGiDrawable@@UEAAH_K0H@Z
  ?SQLLiteral@CNsiBinary@@UEBA?AW4ENsiBoolean@@PEAVCNsiUcStr@@@Z
  ?SQLLiteral@CNsiBlob@@UEBA?AW4ENsiBoolean@@PEAVCNsiUcStr@@@Z
  ?SQLLiteral@CNsiChar@@UEBA?AW4ENsiBoolean@@PEAVCNsiUcStr@@@Z
  ?SQLLiteral@CNsiDT@@UEBA?AW4ENsiBoolean@@PEAVCNsiUcStr@@@Z
  ?SQLLiteral@CNsiData@@UEBA?AW4ENsiBoolean@@PEAVCNsiUcStr@@@Z
  ?SQLLiteral@CNsiDate@@UEBA?AW4ENsiBoolean@@PEAVCNsiUcStr@@@Z
  ?SQLLiteral@CNsiDecimal@@UEBA?AW4ENsiBoolean@@PEAVCNsiUcStr@@@Z
  ?SQLLiteral@CNsiDouble@@UEBA?AW4ENsiBoolean@@PEAVCNsiUcStr@@@Z
  ?SQLLiteral@CNsiFloat@@UEBA?AW4ENsiBoolean@@PEAVCNsiUcStr@@@Z
  ?SQLLiteral@CNsiIQualifier@@EEBA?AW4ENsiBoolean@@PEAVCNsiUcStr@@@Z
  ?SQLLiteral@CNsiInt@@UEBA?AW4ENsiBoolean@@PEAVCNsiUcStr@@@Z
  ?SQLLiteral@CNsiNumeric@@UEBA?AW4ENsiBoolean@@PEAVCNsiUcStr@@@Z
  ?SQLLiteral@CNsiReal@@UEBA?AW4ENsiBoolean@@PEAVCNsiUcStr@@@Z
  ?SQLLiteral@CNsiSmallInt@@UEBA?AW4ENsiBoolean@@PEAVCNsiUcStr@@@Z
  ?SQLLiteral@CNsiTime@@UEBA?AW4ENsiBoolean@@PEAVCNsiUcStr@@@Z
  ?SQLLiteral@CNsiTimeStamp@@UEBA?AW4ENsiBoolean@@PEAVCNsiUcStr@@@Z
  ?SQLLiteral@CNsiYM@@UEBA?AW4ENsiBoolean@@PEAVCNsiUcStr@@@Z
  ?SQLType@CNsiBinary@@UEBA?AW4ENsiBoolean@@PEAVCNsiUcStr@@@Z
  ?SQLType@CNsiBlob@@UEBA?AW4ENsiBoolean@@PEAVCNsiUcStr@@@Z
  ?SQLType@CNsiChar@@UEBA?AW4ENsiBoolean@@PEAVCNsiUcStr@@@Z
  ?SQLType@CNsiData@@UEBA?AW4ENsiBoolean@@PEAVCNsiUcStr@@@Z
  ?SQLType@CNsiDate@@UEBA?AW4ENsiBoolean@@PEAVCNsiUcStr@@@Z
  ?SQLType@CNsiDecimal@@UEBA?AW4ENsiBoolean@@PEAVCNsiUcStr@@@Z
  ?SQLType@CNsiDouble@@UEBA?AW4ENsiBoolean@@PEAVCNsiUcStr@@@Z
  ?SQLType@CNsiFloat@@UEBA?AW4ENsiBoolean@@PEAVCNsiUcStr@@@Z
  ?SQLType@CNsiIQualifier@@UEBA?AW4ENsiBoolean@@PEAVCNsiUcStr@@@Z
  ?SQLType@CNsiInt@@UEBA?AW4ENsiBoolean@@PEAVCNsiUcStr@@@Z
  ?SQLType@CNsiInterval@@UEBA?AW4ENsiBoolean@@PEAVCNsiUcStr@@@Z
  ?SQLType@CNsiNumeric@@UEBA?AW4ENsiBoolean@@PEAVCNsiUcStr@@@Z
  ?SQLType@CNsiReal@@UEBA?AW4ENsiBoolean@@PEAVCNsiUcStr@@@Z
  ?SQLType@CNsiSmallInt@@UEBA?AW4ENsiBoolean@@PEAVCNsiUcStr@@@Z
  ?SQLType@CNsiTime@@UEBA?AW4ENsiBoolean@@PEAVCNsiUcStr@@@Z
  ?SQLType@CNsiTimeStamp@@UEBA?AW4ENsiBoolean@@PEAVCNsiUcStr@@@Z
  ?SamplingFilter@NcDbMentalRayRenderSettings@@QEBAXAEAW4NcGiMrFilter@@AEAN1@Z
  ?SamplingFilter@NcGiMentalRayRenderSettingsTraits@@UEBAXAEAW4NcGiMrFilter@@AEAN1@Z
  ?Scale@CNsiData@@UEBAIXZ
  ?Scale@CNsiNum@@UEBAIXZ
  ?Second@CNsiDate@@UEBANXZ
  ?Second@CNsiDatetime@@UEBANXZ
  ?Second@CNsiTime@@UEBANXZ
  ?Second@CNsiTimeStamp@@UEBANXZ
  ?SelectGrip@NcDbSelectGrip@@UEAA_NPEBVNcDbEntity@@PEBVNcGiViewportDrawNrx@@PEBX@Z
  ?SetDecimal@CNsiDecimal@@AEAA?AW4ENsiBoolean@@N@Z
  ?SetFormat@CNsiBlob@@QEAAXW4EBlobFormat@1@@Z
  ?SetNotImplMessageFormat@@YAXW4AssertMessageFormat@@@Z
  ?SetNumeric@CNsiNumeric@@AEAA?AW4ENsiBoolean@@N@Z
  ?SetPointerOnHost@@YAXPEAVNrxHostInterface@@@Z
  ?SetPrintLen@CNsiBlob@@QEAAXH@Z
  ?SetType@CNsiBlob@@QEAAXW4EBlobType@1@@Z
  ?Sign@CNsiInterval@@QEBA?AW4ENsiBoolean@@XZ
  ?Size@CNsiUcStr@@QEBAHXZ
  ?Sprintf@CNsiUcStr@@QEAAHQEA_WZZ
  ?Strtod@CNsiUcStr@@QEBANPEAH@Z
  ?Strtol@CNsiUcStr@@QEBAJPEAHH@Z
  ?Substring@CNsiBinary@@QEAA?AV1@I@Z
  ?Substring@CNsiBinary@@QEAA?AV1@II@Z
  ?Substring@CNsiChar@@QEBA?AV1@I@Z
  ?Substring@CNsiChar@@QEBA?AV1@II@Z
  ?ThunkObject@INativeExtension@@UEBAHXZ
  ?TimePrec@CNsiData@@UEBAIXZ
  ?TimePrec@CNsiTime@@UEBAIXZ
  ?TimeStampPrec@CNsiData@@UEBAIXZ
  ?TimeStampPrec@CNsiTimeStamp@@UEBAIXZ
  ?TimeZone@CNsiTime@@QEBAAEBVCNsiDT@@XZ
  ?TimeZone@CNsiTimeStamp@@QEBAAEBVCNsiDT@@XZ
  ?ToString@CNsiIdent@@QEBAXPEAVCNsiUcStr@@@Z
  ?Trim@CNsiChar@@QEBA?AV1@W4ENsiTrimSpec@@AEBV1@@Z
  ?Type@CNsiBinary@@UEBA?AW4ENsiDataType@@XZ
  ?Type@CNsiBlob@@UEBA?AW4ENsiDataType@@XZ
  ?Type@CNsiChar@@UEBA?AW4ENsiDataType@@XZ
  ?Type@CNsiData@@UEBA?AW4ENsiDataType@@XZ
  ?Type@CNsiDatetime@@UEBA?AW4ENsiDataType@@XZ
  ?Type@CNsiDecimal@@UEBA?AW4ENsiDataType@@XZ
  ?Type@CNsiDouble@@UEBA?AW4ENsiDataType@@XZ
  ?Type@CNsiFloat@@UEBA?AW4ENsiDataType@@XZ
  ?Type@CNsiIQualifier@@UEBA?AW4ENsiDataType@@XZ
  ?Type@CNsiInt@@UEBA?AW4ENsiDataType@@XZ
  ?Type@CNsiNumeric@@UEBA?AW4ENsiDataType@@XZ
  ?Type@CNsiReal@@UEBA?AW4ENsiDataType@@XZ
  ?Type@CNsiSmallInt@@UEBA?AW4ENsiDataType@@XZ
  ?UCSTableId@NcDbDatabase@@QEAA?AVNcDbObjectId@@XZ
  ?UTCToLocal@CNsiDT@@AEBANN@Z
  ?UcStr@CNsiUcStr@@QEBAQEA_WXZ
  ?UninitPlatformClasses@RxClassStorage@@QEAAXXZ
  ?Update@CNsiUcStr@@QEAAXHAEBVCNsiUcChar@@@Z
  ?Update@CNsiUcStr@@QEAAXHH@Z
  ?Update@CNsiUcStr@@QEAAXHHK@Z
  ?Update@CNsiUcStr@@QEAAXHHPEBD@Z
  ?Update@CNsiUcStr@@QEAAXHPEBVCNsiUcChar@@@Z
  ?Update@CNsiUcStr@@QEAAXH_W@Z
  ?Upper@CNsiChar@@QEBA?AV1@XZ
  ?Upper@CNsiUcChar@@QEBA?AV1@XZ
  ?VPDFLT@NcDbLayerTableRecord@@QEBA_NXZ
  ?Write@CNsiBlob@@QEAAJPEAXKPEAK@Z
  ?YMDiff@CNsiDate@@QEBA?AVCNsiYM@@AEBV1@AEBV2@@Z
  ?YMDiff@CNsiTimeStamp@@QEBA?AVCNsiYM@@AEBV1@AEBV2@@Z
  ?Year@CNsiDate@@UEBAGXZ
  ?Year@CNsiDatetime@@UEBAGXZ
  ?Year@CNsiTime@@UEBAGXZ
  ?Year@CNsiTimeStamp@@UEBAGXZ
  ?__active_database@@YAPEAVOdDbDatabase@@XZ
  ?_cdptr@NcDbObject@@IEAAAEAVOdRxObjectPtr@@XZ
  ?_csInternalAddRef@?$CCSUnknownImpl@UIHostIntegratorExEngine@@@@MEAAJXZ
  ?_csInternalQueryInterface@?$CCSUnknownImpl@UIHostIntegratorExEngine@@@@MEAAHAEBVtype_info@@PEAPEAUICSUnknown@@@Z
  ?_csInternalRelease@?$CCSUnknownImpl@UIHostIntegratorExEngine@@@@MEAAJXZ
  ?_entToWorldTransform@NcDbHostApplicationServices@@UEAAHQEANPEAUflagmat@@@Z
  ?_getType@NcDxfCode@@SA?AW4Type@1@H@Z
  ?_reactors@NcDbObject@@IEAAPEAV?$NcArray@PEAXV?$HostMemoryAllocator@PEAX@@@@XZ
  ?_trancount@NcDbObject@@IEAAAEAHXZ
  ?abort@INcPcPointProcessor@@UEAAXXZ
  ?abortAttach@NcRxEventReactor@@UEAAXPEAVNcDbDatabase@@@Z
  ?abortDeepClone@NcDbDatabase@@QEAAXAEAVNcDbIdMapping@@@Z
  ?abortDeepClone@NcRxEventReactor@@UEAAXAEAVNcDbIdMapping@@@Z
  ?abortDxfIn@NcRxEventReactor@@UEAAXPEAVNcDbDatabase@@@Z
  ?abortDxfOut@NcRxEventReactor@@UEAAXPEAVNcDbDatabase@@@Z
  ?abortInsert@NcRxEventReactor@@UEAAXPEAVNcDbDatabase@@@Z
  ?abortLayerStateDelete@NcDbLayerStateManagerReactor@@UEAAXPEB_WAEBVNcDbObjectId@@@Z
  ?abortLayerStateRename@NcDbLayerStateManagerReactor@@UEAAXPEB_W0@Z
  ?abortLayerStateRestore@NcDbLayerStateManagerReactor@@UEAAXPEB_WAEBVNcDbObjectId@@@Z
  ?abortLayoutCopied@NcDbLayoutManagerReactor@@UEAAXPEB_WAEBVNcDbObjectId@@@Z
  ?abortLayoutRemoved@NcDbLayoutManagerReactor@@UEAAXPEB_WAEBVNcDbObjectId@@@Z
  ?abortLayoutRename@NcDbLayoutManagerReactor@@UEAAXPEB_W0AEBVNcDbObjectId@@@Z
  ?abortLongTransaction@NcApLongTransactionManager@@UEAA?AW4ErrorStatus@Nano@@VNcDbObjectId@@_N@Z
  ?abortLongTransaction@NcApLongTransactionReactor@@UEAAXAEAVNcDbLongTransaction@@@Z
  ?abortRestore@NcRxEventReactor@@UEAAXPEAVNcDbDatabase@@@Z
  ?abortSave@NcRxEventReactor@@UEAAXPEAVNcDbDatabase@@@Z
  ?abortTransaction@NcDbTransactionManager@@UEAA?AW4ErrorStatus@Nano@@XZ
  ?abortWblock@NcRxEventReactor@@UEAAXPEAVNcDbDatabase@@@Z
  ?accepts@NcDbFilteredBlockIterator@@UEBA?AW4ErrorStatus@Nano@@VNcDbObjectId@@AEAH@Z
  ?accepts@NcDbLayerIndexIterator@@UEBA?AW4ErrorStatus@Nano@@VNcDbObjectId@@AEAH@Z
  ?accepts@NcDbSpatialIndexIterator@@UEBA?AW4ErrorStatus@Nano@@VNcDbObjectId@@AEAH@Z
  ?accessNcDbObjectForRead@@YA?AW4ErrorStatus@Nano@@AEAPEAVNcDbObject@@VNcDbObjectId@@PEBVNcRxClass@@AEA_N_N@Z
  ?accessNcDbObjectForWrite@@YA?AW4ErrorStatus@Nano@@PEAVNcDbObject@@AEA_N1AEAH_N@Z
  ?acisIn@NcDbBody@@SA?AW4ErrorStatus@Nano@@PEB_WAEAV?$NcArray@PEAXV?$HostMemoryAllocator@PEAX@@@@@Z
  ?acisOut@NcDbBody@@SA?AW4ErrorStatus@Nano@@PEB_WAEBV?$NcArray@PEAXV?$HostMemoryAllocator@PEAX@@@@@Z
  ?acquire@NcAxObjectRef@@QEAA?AW4ErrorStatus@Nano@@AEAPEAVNcDbObject@@@Z
  ?acquire@NcAxObjectRef@@QEAA?AW4ErrorStatus@Nano@@VNcDbObjectId@@@Z
  ?actionBody@NcDbAssocAction@@QEBA?AVNcDbObjectId@@XZ
  ?actionBody@NcDbAssocAction@@SA?AVNcDbObjectId@@AEBV2@@Z
  ?activate@NcDbEvalGraph@@UEBA?AW4ErrorStatus@Nano@@AEBV?$NcArray@KV?$HostObjectsAllocator@K@@@@@Z
  ?activate@NcDbEvalGraph@@UEBA?AW4ErrorStatus@Nano@@AEBV?$NcArray@KV?$HostObjectsAllocator@K@@@@PEAV4@1@Z
  ?activate@NcDbEvalGraph@@UEBA?AW4ErrorStatus@Nano@@AEBV?$NcArray@KV?$HostObjectsAllocator@K@@@@PEAV4@@Z
  ?activateDocument@NcApDocManager@@UEAA?AW4ErrorStatus@Nano@@PEAVNcApDocument@@_N@Z
  ?activated@NcDbEvalExpr@@UEAAXAEAV?$NcArray@KV?$HostObjectsAllocator@K@@@@@Z
  ?activeFileName@NcDbRasterImageDef@@UEBAPEB_WXZ
  ?activeIdMap@NcDbLongTransaction@@QEAAPEAVNcDbIdMapping@@XZ
  ?actualHeight@NcDbMText@@QEBANPEAVNcGiWorldDraw@@@Z
  ?actualWidth@NcDbMText@@QEBANXZ
  ?add3PointAngleConstraint@NcDbAssoc2dConstraintGroup@@QEAA?AW4ErrorStatus@Nano@@PEAVNcConstrainedPoint@@00W4SectorType@NcAngleConstraint@@VNcDbObjectId@@2PEAPEAVNc3PointAngleConstraint@@@Z
  ?add@DatabaseStorage@@QEAA_NPEBVNcDbDatabase@@@Z
  ?add@NcDbAbstractViewTable@@QEAA?AW4ErrorStatus@Nano@@AEAVNcDbObjectId@@PEAVNcDbAbstractViewTableRecord@@@Z
  ?add@NcDbAbstractViewTable@@QEAA?AW4ErrorStatus@Nano@@PEAVNcDbAbstractViewTableRecord@@@Z
  ?add@NcDbBlockTable@@QEAA?AW4ErrorStatus@Nano@@AEAVNcDbObjectId@@PEAVNcDbBlockTableRecord@@@Z
  ?add@NcDbBlockTable@@QEAA?AW4ErrorStatus@Nano@@PEAVNcDbBlockTableRecord@@@Z
  ?add@NcDbDate@@QEAAAEBV1@AEBV1@@Z
  ?add@NcDbDimStyleTable@@QEAA?AW4ErrorStatus@Nano@@AEAVNcDbObjectId@@PEAVNcDbDimStyleTableRecord@@@Z
  ?add@NcDbDimStyleTable@@QEAA?AW4ErrorStatus@Nano@@PEAVNcDbDimStyleTableRecord@@@Z
  ?add@NcDbLayerFilter@@QEAA?AW4ErrorStatus@Nano@@PEB_W@Z
  ?add@NcDbLayerTable@@QEAA?AW4ErrorStatus@Nano@@AEAVNcDbObjectId@@PEAVNcDbLayerTableRecord@@@Z
  ?add@NcDbLayerTable@@QEAA?AW4ErrorStatus@Nano@@PEAVNcDbLayerTableRecord@@@Z
  ?add@NcDbLinetypeTable@@QEAA?AW4ErrorStatus@Nano@@AEAVNcDbObjectId@@PEAVNcDbLinetypeTableRecord@@@Z
  ?add@NcDbLinetypeTable@@QEAA?AW4ErrorStatus@Nano@@PEAVNcDbLinetypeTableRecord@@@Z
  ?add@NcDbRegAppTable@@QEAA?AW4ErrorStatus@Nano@@AEAVNcDbObjectId@@PEAVNcDbRegAppTableRecord@@@Z
  ?add@NcDbRegAppTable@@QEAA?AW4ErrorStatus@Nano@@PEAVNcDbRegAppTableRecord@@@Z
  ?add@NcDbSymbolTable@@QEAA?AW4ErrorStatus@Nano@@AEAVNcDbObjectId@@PEAVNcDbSymbolTableRecord@@@Z
  ?add@NcDbSymbolTable@@QEAA?AW4ErrorStatus@Nano@@PEAVNcDbSymbolTableRecord@@@Z
  ?add@NcDbTextStyleTable@@QEAA?AW4ErrorStatus@Nano@@AEAVNcDbObjectId@@PEAVNcDbTextStyleTableRecord@@@Z
  ?add@NcDbTextStyleTable@@QEAA?AW4ErrorStatus@Nano@@PEAVNcDbTextStyleTableRecord@@@Z
  ?add@NcDbUCSTable@@QEAA?AW4ErrorStatus@Nano@@AEAVNcDbObjectId@@PEAVNcDbUCSTableRecord@@@Z
  ?add@NcDbUCSTable@@QEAA?AW4ErrorStatus@Nano@@PEAVNcDbUCSTableRecord@@@Z
  ?add@NcDbViewTable@@QEAA?AW4ErrorStatus@Nano@@AEAVNcDbObjectId@@PEAVNcDbViewTableRecord@@@Z
  ?add@NcDbViewTable@@QEAA?AW4ErrorStatus@Nano@@PEAVNcDbViewTableRecord@@@Z
  ?add@NcDbViewportTable@@QEAA?AW4ErrorStatus@Nano@@AEAVNcDbObjectId@@PEAVNcDbViewportTableRecord@@@Z
  ?add@NcDbViewportTable@@QEAA?AW4ErrorStatus@Nano@@PEAVNcDbViewportTableRecord@@@Z
  ?add@NcGsDevice@@UEAA_NPEAVNcGsView@@@Z
  ?add@NcGsView@@UEAA_NPEAVNcGiDrawable@@PEAVNcGsModel@@@Z
  ?addAction@NcDbAssocNetwork@@QEAA?AW4ErrorStatus@Nano@@AEBVNcDbObjectId@@_N@Z
  ?addActions@NcDbAssocNetwork@@QEAA?AW4ErrorStatus@Nano@@AEBV?$NcArray@VNcDbObjectId@@V?$HostObjectsAllocator@VNcDbObjectId@@@@@@_N@Z
  ?addAngleConstraint@NcDbAssoc2dConstraintGroup@@QEAA?AW4ErrorStatus@Nano@@PEAVNcConstrainedLine@@0W4SectorType@NcAngleConstraint@@VNcDbObjectId@@2PEAPEAV6@@Z
  ?addAnnoScalestoBlkRefs@NcDbBlockTableRecord@@QEAA?AW4ErrorStatus@Nano@@_N@Z
  ?addBlockExt@NcDbExtents@@QEAA?AW4ErrorStatus@Nano@@PEAVNcDbBlockTableRecord@@@Z
  ?addBreakPointRef@NcDbBreakData@@QEAA?AW4ErrorStatus@Nano@@PEAVNcDbBreakPointRef@@@Z
  ?addClassFilter@NcApLongTransactionManager@@UEAA?AW4ErrorStatus@Nano@@PEAVNcRxClass@@@Z
  ?addConstrainedGeometry@NcDbAssoc2dConstraintGroup@@QEAA?AW4ErrorStatus@Nano@@AEBVNcDbFullSubentPath@@AEAPEAVNcConstrainedGeometry@@@Z
  ?addContext@NcDbObjectContextCollection@@UEAA?AW4ErrorStatus@Nano@@PEBVNcDbObjectContext@@@Z
  ?addContext@NcDbObjectContextInterface@@UEBA?AW4ErrorStatus@Nano@@PEAVNcDbObject@@AEBVNcDbObjectContext@@@Z
  ?addControlPointAt@NcGeNurbCurve2d@@QEAAHNAEBVNcGePoint2d@@N@Z
  ?addControlPointAt@NcGeNurbCurve3d@@QEAAHNAEBVNcGePoint3d@@N@Z
  ?addCustomSummaryInfo@NcDbDatabaseSummaryInfo@@UEAA?AW4ErrorStatus@Nano@@PEB_W0@Z
  ?addDataLink@NcDbDataLinkManager@@QEAA?AW4ErrorStatus@Nano@@PEAVNcDbDataLink@@@Z
  ?addDataLink@NcDbDataLinkManager@@QEAA?AW4ErrorStatus@Nano@@PEAVNcDbDataLink@@AEAVNcDbObjectId@@@Z
  ?addDependency@NcDbAssocAction@@QEAA?AW4ErrorStatus@Nano@@AEBVNcDbObjectId@@_N@Z
  ?addDependency@NcDbAssocActionBody@@QEAA?AW4ErrorStatus@Nano@@AEBVNcDbObjectId@@_N@Z
  ?addDependency@NcRxService@@QEAAXXZ
  ?addDistanceConstraint@NcDbAssoc2dConstraintGroup@@QEAA?AW4ErrorStatus@Nano@@PEAVNcConstrainedGeometry@@0W4DirectionType@NcDistanceConstraint@@VNcDbObjectId@@2PEBVNcGeVector3d@@PEBVNcConstrainedLine@@PEAPEAV6@@Z
  ?addEdge@NcDbEvalGraph@@UEAA?AW4ErrorStatus@Nano@@AEBK0@Z
  ?addEdge@NcDbEvalGraph@@UEAA?AW4ErrorStatus@Nano@@AEBK0_N@Z
  ?addEdge@NcDbGraph@@QEAA?AW4ErrorStatus@Nano@@PEAVNcDbGraphNode@@0@Z
  ?addElement@NcDbMlineStyle@@QEAA?AW4ErrorStatus@Nano@@AEAHNAEBVNcCmColor@@VNcDbObjectId@@_N@Z
  ?addEntities@NsdkHlrCollector@@QEAAXAEAV?$NcArray@PEAVNcDbEntity@@V?$HostObjectsAllocator@PEAVNcDbEntity@@@@@@@Z
  ?addEntities@NsdkHlrCollector@@QEAAXAEAV?$NcArray@VNcDbObjectId@@V?$HostObjectsAllocator@VNcDbObjectId@@@@@@@Z
  ?addEntity@NsdkHlrCollector@@QEAAXPEAVNcDbEntity@@@Z
  ?addEntity@NsdkHlrCollector@@QEAAXVNcDbObjectId@@@Z
  ?addExt@NcDbExtents@@QEAAXAEBV1@@Z
  ?addFirst@CNsiList@@QEAA?AW4ENsiBoolean@@PEAVCNsiObject@@@Z
  ?addFirstVertex@NcDbMLeader@@QEAA?AW4ErrorStatus@Nano@@HAEBVNcGePoint3d@@@Z
  ?addFitPointAt@NcGeNurbCurve2d@@QEAAHHAEBVNcGePoint2d@@@Z
  ?addFitPointAt@NcGeNurbCurve3d@@UEAAHHAEBVNcGePoint3d@@@Z
  ?addGeometricalConstraint@NcDbAssoc2dConstraintGroup@@QEAA?AW4ErrorStatus@Nano@@W4GeomConstraintType@NcGeomConstraint@@AEBV?$NcArray@PEAVNcConstrainedGeometry@@V?$HostObjectsAllocator@PEAVNcConstrainedGeometry@@@@@@PEAPEAV5@@Z
  ?addGeometricalConstraint@NcDbAssoc2dConstraintGroup@@QEAA?AW4ErrorStatus@Nano@@W4GeomConstraintType@NcGeomConstraint@@AEBV?$NcArray@VNcDbFullSubentPath@@V?$HostObjectsAllocator@VNcDbFullSubentPath@@@@@@PEAPEAV5@@Z
  ?addGlobalCallback@NcDbAssoc2dConstraintGroup@@SAXPEAVNcDbAssoc2dConstraintCallback@@@Z
  ?addGlobalCallback@NcDbAssocVariable@@SAXPEAVNcDbAssocVariableCallback@@@Z
  ?addGlobalEvaluationCallback@NcDbAssocManager@@SA?AW4ErrorStatus@Nano@@PEAVNcDbAssocEvaluationCallback@@H@Z
  ?addGraph@NcDbEvalGraph@@UEAA?AW4ErrorStatus@Nano@@PEAV1@AEAPEAVNcDbEvalIdMap@@@Z
  ?addInputContextReactor@NcEdInputPointManager@@UEAA?AW4ErrorStatus@Nano@@PEAVNcEdInputContextReactor@@@Z
  ?addKnot@NcGeNurbCurve2d@@QEAAAEAV1@N@Z
  ?addKnot@NcGeNurbCurve3d@@UEAAAEAV1@N@Z
  ?addLast@CNsiList@@QEAA?AW4ENsiBoolean@@PEAVCNsiObject@@@Z
  ?addLastVertex@NcDbMLeader@@QEAA?AW4ErrorStatus@Nano@@HAEBVNcGePoint3d@@@Z
  ?addLayerId@NcLyLayerGroup@@UEAA?AW4ErrorStatus@Nano@@AEBVNcDbObjectId@@@Z
  ?addLayerStateLayers@NcDbLayerStateManager@@QEAA?AW4ErrorStatus@Nano@@PEB_WAEBV?$NcArray@VNcDbObjectId@@V?$HostObjectsAllocator@VNcDbObjectId@@@@@@@Z
  ?addLeader@NcDbMLeader@@QEAA?AW4ErrorStatus@Nano@@AEAH@Z
  ?addLeaderLine@NcDbMLeader@@QEAA?AW4ErrorStatus@Nano@@AEBVNcGePoint3d@@AEAH@Z
  ?addLeaderLine@NcDbMLeader@@QEAA?AW4ErrorStatus@Nano@@HAEAH@Z
  ?addLight@NcGiNonEntityTraits@@UEAAXAEBVNcDbObjectId@@@Z
  ?addLight@NcGiSubEntityTraits@@UEAAXAEBVNcDbObjectId@@@Z
  ?addMeshFace@NcDbGeoData@@QEAA?AW4ErrorStatus@Nano@@HHHH@Z
  ?addMeshPointMap@NcDbGeoData@@QEAA?AW4ErrorStatus@Nano@@HAEBVNcGePoint2d@@0@Z
  ?addMoreObjectsToDeepClone@NcDbAssocAction@@QEBA?AW4ErrorStatus@Nano@@AEAVNcDbIdMapping@@AEAV?$NcArray@VNcDbObjectId@@V?$HostObjectsAllocator@VNcDbObjectId@@@@@@@Z
  ?addMoreObjectsToDeepCloneOverride@NcDbAssocActionBody@@UEBA?AW4ErrorStatus@Nano@@AEAVNcDbIdMapping@@AEAV?$NcArray@VNcDbObjectId@@V?$HostObjectsAllocator@VNcDbObjectId@@@@@@@Z
  ?addMoreObjectsToDeepCloneOverride@NcDbAssocSurfaceActionBody@@UEBA?AW4ErrorStatus@Nano@@AEAVNcDbIdMapping@@AEAV?$NcArray@VNcDbObjectId@@V?$HostObjectsAllocator@VNcDbObjectId@@@@@@@Z
  ?addNcDbObject@NcDbDatabase@@QEAA?AW4ErrorStatus@Nano@@AEAVNcDbObjectId@@PEAVNcDbObject@@@Z
  ?addNcDbObject@NcDbDatabase@@QEAA?AW4ErrorStatus@Nano@@PEAVNcDbObject@@@Z
  ?addNested@NcLyLayerFilter@@UEAA?AW4ErrorStatus@Nano@@PEAV1@@Z
  ?addNewlyCreatedDBRObject@NcDbTransactionManager@@UEAA?AW4ErrorStatus@Nano@@PEAVNcDbObject@@_N@Z
  ?addNode@NcDbEvalGraph@@UEAA?AW4ErrorStatus@Nano@@PEAVNcDbEvalExpr@@AEAK@Z
  ?addNode@NcDbGraph@@QEAA?AW4ErrorStatus@Nano@@PEAVNcDbGraphNode@@@Z
  ?addNode@NcDbObjectIdGraph@@QEAA?AW4ErrorStatus@Nano@@PEAVNcDbObjectIdGraphNode@@@Z
  ?addOverrule@NcRxOverrule@@SA?AW4ErrorStatus@Nano@@PEAVNcRxClass@@PEAV1@_N@Z
  ?addParam@NcDbAssocCompoundActionParam@@QEAA?AW4ErrorStatus@Nano@@AEBVNcDbObjectId@@AEAH@Z
  ?addParam@NcDbAssocParamBasedActionBody@@QEAA?AW4ErrorStatus@Nano@@AEBVNcDbObjectId@@AEAH@Z
  ?addPersistentReactor@NcDbObject@@UEAAXVNcDbObjectId@@@Z
  ?addPersistentReactor@ObjectReactorsStorage@@QEAAXPEAVNcDbObject@@VNcDbObjectId@@@Z
  ?addPoint@NcDbExtents@@QEAAXAEBVNcGePoint3d@@@Z
  ?addPointMonitor@NcEdInputPointManager@@UEAA?AW4ErrorStatus@Nano@@PEAVNcEdInputPointMonitor@@@Z
  ?addRadiusDiameterConstraint@NcDbAssoc2dConstraintGroup@@QEAA?AW4ErrorStatus@Nano@@PEAVNcConstrainedGeometry@@W4RadiusDiameterConstrType@NcRadiusDiameterConstraint@@VNcDbObjectId@@2PEAPEAV6@@Z
  ?addReactor@Image@Ntil@@QEAAXPEAVImageReactorInterface@2@@Z
  ?addReactor@ImageRep@Ntil@@UEAAXPEAVImageReactorInterface@2@@Z
  ?addReactor@LoadModuleMonitor@@SAXPEAVNcApDocManagerReactor@@@Z
  ?addReactor@NcApDocManager@@UEAAXPEAVNcApDocManagerReactor@@@Z
  ?addReactor@NcApLongTransactionManager@@UEAAXPEAVNcApLongTransactionReactor@@@Z
  ?addReactor@NcDbDatabase@@QEBAXPEAVNcDbDatabaseReactor@@@Z
  ?addReactor@NcDbLayerStateManager@@QEAA_NPEAVNcDbLayerStateManagerReactor@@@Z
  ?addReactor@NcDbLayoutManager@@UEAAXPEAVNcDbLayoutManagerReactor@@@Z
  ?addReactor@NcDbObject@@QEBAXPEAVNcDbObjectReactor@@@Z
  ?addReactor@NcDbTransactionManager@@UEAAXPEAVNcTransactionReactor@@@Z
  ?addReactor@NcRxDynamicLinker@@UEAAXPEAVNcRxDLinkerReactor@@@Z
  ?addReactor@NcRxEvent@@UEAAXPEAVNcRxEventReactor@@@Z
  ?addReactor@NcRxProtocolReactorList@@UEAA?AW4ErrorStatus@Nano@@PEAVNcRxProtocolReactor@@@Z
  ?addReactor@NcRxVariable@@QEAAXPEAVNcRxVariableReactor@@@Z
  ?addReactor@NcRxVariablesDictionary@@QEAAXPEAVNcRxVariableReactor@@@Z
  ?addReactor@ObjectReactorsStorage@@QEAAXPEAVNcDbObject@@PEAVNcDbObjectReactor@@@Z
  ?addRef@INativeExtension@@UEAAXXZ
  ?addRef@NcGiGdiDrawObject@@UEAAXXZ
  ?addRef@NcRxDynamicLinkerImpl@@UEAAXXZ
  ?addRefTo@NcDbGraphNode@@QEAA?AW4ErrorStatus@Nano@@PEAV1@@Z
  ?addSceneGraphRoot@NcGsModel@@UEAA_NPEAVNcGiDrawable@@@Z
  ?addSubSelectFilter@NcEdInputPointManager@@UEAA?AW4ErrorStatus@Nano@@PEAVNcEdSubSelectFilter@@@Z
  ?addSubentPaths@NcDbEntity@@UEAA?AW4ErrorStatus@Nano@@AEBV?$NcArray@VNcDbFullSubentPath@@V?$HostObjectsAllocator@VNcDbFullSubentPath@@@@@@@Z
  ?addSubentPaths@NcDbSubentityOverrule@@UEAA?AW4ErrorStatus@Nano@@PEAVNcDbEntity@@AEBV?$NcArray@VNcDbFullSubentPath@@V?$HostObjectsAllocator@VNcDbFullSubentPath@@@@@@@Z
  ?addToBuffer@NcDbFilteredBlockIterator@@UEAA?AW4ErrorStatus@Nano@@VNcDbObjectId@@@Z
  ?addToDimensionReactor@NcDbDimAssoc@@QEAA?AW4ErrorStatus@Nano@@_N@Z
  ?addToLayoutDict@NcDbLayout@@UEAA?AW4ErrorStatus@Nano@@PEAVNcDbDatabase@@VNcDbObjectId@@@Z
  ?addToPlotSettingsDict@NcDbPlotSettings@@QEAA?AW4ErrorStatus@Nano@@PEAVNcDbDatabase@@@Z
  ?addToPointRefReactor@NcDbDimAssoc@@QEAA?AW4ErrorStatus@Nano@@XZ
  ?addToWorkSet@NcDbLongTransaction@@QEAA?AW4ErrorStatus@Nano@@VNcDbObjectId@@@Z
  ?addVertex@NcDbSection@@QEAA?AW4ErrorStatus@Nano@@HAEBVNcGePoint3d@@@Z
  ?addVertexAt@NcDbPolyline@@QEAA?AW4ErrorStatus@Nano@@IAEBVNcGePoint2d@@NNNJ@Z
  ?addX@NcRxClass@@UEAAPEAVNcRxObject@@PEAV1@PEAV2@@Z
  ?addedToGraph@NcDbEvalExpr@@UEAAXPEAVNcDbEvalGraph@@@Z
  ?additionalTooltipString@NcEdInputPointMonitorResult@@QEBAPEB_WXZ
  ?adjacentEdgeAdded@NcDbEvalExpr@@UEAAXAEBK0_N@Z
  ?adjacentEdgeRemoved@NcDbEvalExpr@@UEAAXAEBK@Z
  ?adjacentNodeRemoved@NcDbEvalExpr@@UEAAXAEBK@Z
  ?adjustAlignment@NcDbText@@UEAA?AW4ErrorStatus@Nano@@PEBVNcDbDatabase@@@Z
  ?aerialPerspective@NcGiSkyParameters@@QEBA_NXZ
  ?aerialPerspectiveImp@NcGiSkyParameters@@MEBA_NXZ
  ?alert@NcDbHostApplicationServices@@UEBAXPEB_W@Z
  ?align@NcDbSweepOptions@@QEBA?AW4AlignOption@1@XZ
  ?alignAngle@NcDbSweepOptions@@QEBANXZ
  ?alignChange@NcDbMText@@SAQEB_WXZ
  ?alignCoordSys@Matrix2d@Ntil@@SA?AV12@AEBVPoint2d@2@AEBVVector2d@2@1011@Z
  ?alignCoordSys@NcGeMatrix3d@@SA?AV1@AEBVNcGePoint3d@@AEBVNcGeVector3d@@110111@Z
  ?alignDirection@NcDbLoftOptions@@QEBA_NXZ
  ?alignSpace@NcDbMLeaderStyle@@QEBANXZ
  ?alignStart@NcDbSweepOptions@@QEBA_NXZ
  ?alignment@NcDbFormattedTableData@@UEBA?AW4CellAlignment@NcDb@@HH@Z
  ?alignment@NcDbTable@@UEBA?AW4CellAlignment@NcDb@@HH@Z
  ?alignment@NcDbTable@@UEBA?AW4CellAlignment@NcDb@@W4RowType@3@@Z
  ?alignment@NcDbTableStyle@@QEBA?AW4CellAlignment@NcDb@@PEB_W@Z
  ?alignment@NcDbTableStyle@@UEBA?AW4CellAlignment@NcDb@@W4RowType@3@@Z
  ?alignmentPaths@NcEdInputPoint@@QEBAAEBV?$NcArray@PEAVNcGeCurve3d@@V?$HostObjectsAllocator@PEAVNcGeCurve3d@@@@@@XZ
  ?alignmentPoint@NcDbText@@QEBA?AVNcGePoint3d@@XZ
  ?allEntityIds@NcDbGroup@@QEBAKAEAV?$NcArray@VNcDbObjectId@@V?$HostObjectsAllocator@VNcDbObjectId@@@@@@@Z
  ?allowDelete@NcLyLayerFilter@@UEBA_NXZ
  ?allowNested@NcLyLayerFilter@@UEBA_NXZ
  ?allowRename@NcLyLayerFilter@@UEBA_NXZ
  ?allowsDependencies@NcDbAssocDependencyPE@@UEBA_NPEBVNcDbObject@@_N@Z
  ?alpha@NcCmTransparency@@QEBAEXZ
  ?alpha@RgbGrayModel@Ntil@@QEBAEE@Z
  ?alpha@RgbPaletteModel@Ntil@@QEBAEH@Z
  ?alphaPercent@NcCmTransparency@@QEBANXZ
  ?alternateBasePoint@NcDbGripData@@QEBAPEAVNcGePoint3d@@XZ
  ?altitude@NcDbSun@@UEBANXZ
  ?ambient@NcDbMaterial@@UEBAXAEAVNcGiMaterialColor@@@Z
  ?ambient@NcGiMaterialTraits@@UEBAXAEAVNcGiMaterialColor@@@Z
  ?ambientLightColor@NcDbAbstractViewTableRecord@@QEBA?AVNcCmColor@@XZ
  ?ambientLightColor@NcDbViewport@@QEBA?AVNcCmColor@@XZ
  ?ambientLightColor@NcGiViewportTraits@@UEBA?AVNcCmColor@@XZ
  ?angbase@NcDbDatabase@@QEBANXZ
  ?angdir@NcDbDatabase@@QEBA_NXZ
  ?angle@Vector2d@Ntil@@UEBANXZ
  ?angle@VectorUL@Ntil@@UEBANXZ
  ?angleAtParam@NcDbEllipse@@QEBANN@Z
  ?angleMultiplier@NcAngleConstraint@@SANXZ
  ?angleOnPlane@NcGeVector3d@@QEBANAEBVNcGePlanarEnt@@@Z
  ?angleTo@NcGeVector3d@@QEBANAEBV1@0@Z
  ?angleTo@NcGeVector3d@@QEBANAEBV1@@Z
  ?angleTo@Vector2d@Ntil@@UEBANAEBV12@@Z
  ?annoAllVisible@NcDbDatabase@@QEBA_NXZ
  ?annoAllVisible@NcDbLayout@@QEBA_NXZ
  ?annoHeight@NcDbLeader@@QEBANXZ
  ?annoType@NcDbLeader@@QEBA?AW4AnnoType@1@XZ
  ?annoWidth@NcDbLeader@@QEBANXZ
  ?annotationObjId@NcDbLeader@@UEBA?AVNcDbObjectId@@XZ
  ?annotationOffset@NcDbLeader@@UEBA?AVNcGeVector3d@@XZ
  ?annotationScale@NcDbViewTableRecord@@QEBAPEAVNcDbAnnotationScale@@XZ
  ?annotationScale@NcDbViewport@@QEBAPEAVNcDbAnnotationScale@@XZ
  ?annotationScaleChanged@NcDbAnnotationScaleReactor@@UEAAXPEBVNcDbDatabase@@PEBVNcDbViewport@@PEBVNcDbAnnotationScale@@_N@Z
  ?annotative@NcDbAnnotativeObjectPE@@UEBA_NPEAVNcDbObject@@@Z
  ?annotative@NcDbMLeaderStyle@@QEBA_NXZ
  ?annotativeDwg@NcDbDatabase@@QEBA_NXZ
  ?anonymousBlockTableRecord@NcDbDynBlockReference@@QEBA?AVNcDbObjectId@@XZ
  ?apex@NcGeCone@@QEBA?AVNcGePoint3d@@XZ
  ?appContextNewDocument@NcApDocManager@@UEAA?AW4ErrorStatus@Nano@@PEB_W@Z
  ?appContextOpenDocument@NcApDocManager@@UEAA?AW4ErrorStatus@Nano@@PEB_W@Z
  ?appData@NcDbDimData@@QEBAPEAXXZ
  ?appData@NcDbGripData@@QEBAPEAXXZ
  ?appDataNcRxClass@NcDbGripData@@QEBAPEAVNcRxClass@@XZ
  ?appName@NcRxClass@@UEBAPEB_WXZ
  ?appNameCallbackPtr@NcRxClass@@UEBAP6AXPEBV1@AEAPEA_WH@ZXZ
  ?append@?$HostArray@HV?$HostMemoryAllocator@H@@@@QEAAAEAV1@$$QEAV1@@Z
  ?append@?$HostArray@HV?$HostMemoryAllocator@H@@@@QEAAAEAV1@AEBV1@@Z
  ?append@?$HostArray@HV?$HostMemoryAllocator@H@@@@QEAAI$$QEAH@Z
  ?append@?$HostArray@HV?$HostMemoryAllocator@H@@@@QEAAIAEBH@Z
  ?append@?$HostArray@HV?$HostMemoryAllocator@H@@@@QEAAPEAHXZ
  ?append@?$HostArray@NV?$HostMemoryAllocator@N@@@@QEAAAEAV1@$$QEAV1@@Z
  ?append@?$HostArray@NV?$HostMemoryAllocator@N@@@@QEAAAEAV1@AEBV1@@Z
  ?append@?$HostArray@NV?$HostMemoryAllocator@N@@@@QEAAI$$QEAN@Z
  ?append@?$HostArray@NV?$HostMemoryAllocator@N@@@@QEAAIAEBN@Z
  ?append@?$HostArray@NV?$HostMemoryAllocator@N@@@@QEAAPEANXZ
  ?append@?$HostArray@PEAUHINSTANCE__@@V?$HostObjectsAllocator@PEAUHINSTANCE__@@@@@@QEAAAEAV1@$$QEAV1@@Z
  ?append@?$HostArray@PEAUHINSTANCE__@@V?$HostObjectsAllocator@PEAUHINSTANCE__@@@@@@QEAAAEAV1@AEBV1@@Z
  ?append@?$HostArray@PEAUHINSTANCE__@@V?$HostObjectsAllocator@PEAUHINSTANCE__@@@@@@QEAAI$$QEAPEAUHINSTANCE__@@@Z
  ?append@?$HostArray@PEAUHINSTANCE__@@V?$HostObjectsAllocator@PEAUHINSTANCE__@@@@@@QEAAIAEBQEAUHINSTANCE__@@@Z
  ?append@?$HostArray@PEAUHINSTANCE__@@V?$HostObjectsAllocator@PEAUHINSTANCE__@@@@@@QEAAPEAPEAUHINSTANCE__@@XZ
  ?append@?$HostArray@PEAVNcDb2dVertex@@V?$HostObjectsAllocator@PEAVNcDb2dVertex@@@@@@QEAAAEAV1@$$QEAV1@@Z
  ?append@?$HostArray@PEAVNcDb2dVertex@@V?$HostObjectsAllocator@PEAVNcDb2dVertex@@@@@@QEAAAEAV1@AEBV1@@Z
  ?append@?$HostArray@PEAVNcDb2dVertex@@V?$HostObjectsAllocator@PEAVNcDb2dVertex@@@@@@QEAAI$$QEAPEAVNcDb2dVertex@@@Z
  ?append@?$HostArray@PEAVNcDb2dVertex@@V?$HostObjectsAllocator@PEAVNcDb2dVertex@@@@@@QEAAIAEBQEAVNcDb2dVertex@@@Z
  ?append@?$HostArray@PEAVNcDb2dVertex@@V?$HostObjectsAllocator@PEAVNcDb2dVertex@@@@@@QEAAPEAPEAVNcDb2dVertex@@XZ
  ?append@?$HostArray@PEAVNcDb3dPolylineVertex@@V?$HostObjectsAllocator@PEAVNcDb3dPolylineVertex@@@@@@QEAAAEAV1@$$QEAV1@@Z
  ?append@?$HostArray@PEAVNcDb3dPolylineVertex@@V?$HostObjectsAllocator@PEAVNcDb3dPolylineVertex@@@@@@QEAAAEAV1@AEBV1@@Z
  ?append@?$HostArray@PEAVNcDb3dPolylineVertex@@V?$HostObjectsAllocator@PEAVNcDb3dPolylineVertex@@@@@@QEAAI$$QEAPEAVNcDb3dPolylineVertex@@@Z
  ?append@?$HostArray@PEAVNcDb3dPolylineVertex@@V?$HostObjectsAllocator@PEAVNcDb3dPolylineVertex@@@@@@QEAAIAEBQEAVNcDb3dPolylineVertex@@@Z
  ?append@?$HostArray@PEAVNcDb3dPolylineVertex@@V?$HostObjectsAllocator@PEAVNcDb3dPolylineVertex@@@@@@QEAAPEAPEAVNcDb3dPolylineVertex@@XZ
  ?append@?$HostArray@PEAVNcDbDimData@@V?$HostMemoryAllocator@PEAVNcDbDimData@@@@@@QEAAAEAV1@$$QEAV1@@Z
  ?append@?$HostArray@PEAVNcDbDimData@@V?$HostMemoryAllocator@PEAVNcDbDimData@@@@@@QEAAAEAV1@AEBV1@@Z
  ?append@?$HostArray@PEAVNcDbDimData@@V?$HostMemoryAllocator@PEAVNcDbDimData@@@@@@QEAAI$$QEAPEAVNcDbDimData@@@Z
  ?append@?$HostArray@PEAVNcDbDimData@@V?$HostMemoryAllocator@PEAVNcDbDimData@@@@@@QEAAIAEBQEAVNcDbDimData@@@Z
  ?append@?$HostArray@PEAVNcDbDimData@@V?$HostMemoryAllocator@PEAVNcDbDimData@@@@@@QEAAPEAPEAVNcDbDimData@@XZ
  ?append@?$HostArray@PEAVNcDbEntity@@V?$HostObjectsAllocator@PEAVNcDbEntity@@@@@@QEAAAEAV1@$$QEAV1@@Z
  ?append@?$HostArray@PEAVNcDbEntity@@V?$HostObjectsAllocator@PEAVNcDbEntity@@@@@@QEAAAEAV1@AEBV1@@Z
  ?append@?$HostArray@PEAVNcDbEntity@@V?$HostObjectsAllocator@PEAVNcDbEntity@@@@@@QEAAI$$QEAPEAVNcDbEntity@@@Z
  ?append@?$HostArray@PEAVNcDbEntity@@V?$HostObjectsAllocator@PEAVNcDbEntity@@@@@@QEAAIAEBQEAVNcDbEntity@@@Z
  ?append@?$HostArray@PEAVNcDbEntity@@V?$HostObjectsAllocator@PEAVNcDbEntity@@@@@@QEAAPEAPEAVNcDbEntity@@XZ
  ?append@?$HostArray@PEAVNcDbGripData@@V?$HostMemoryAllocator@PEAVNcDbGripData@@@@@@QEAAAEAV1@$$QEAV1@@Z
  ?append@?$HostArray@PEAVNcDbGripData@@V?$HostMemoryAllocator@PEAVNcDbGripData@@@@@@QEAAAEAV1@AEBV1@@Z
  ?append@?$HostArray@PEAVNcDbGripData@@V?$HostMemoryAllocator@PEAVNcDbGripData@@@@@@QEAAI$$QEAPEAVNcDbGripData@@@Z
  ?append@?$HostArray@PEAVNcDbGripData@@V?$HostMemoryAllocator@PEAVNcDbGripData@@@@@@QEAAIAEBQEAVNcDbGripData@@@Z
  ?append@?$HostArray@PEAVNcDbGripData@@V?$HostMemoryAllocator@PEAVNcDbGripData@@@@@@QEAAPEAPEAVNcDbGripData@@XZ
  ?append@?$HostArray@PEAVNcDbNurbSurface@@V?$HostObjectsAllocator@PEAVNcDbNurbSurface@@@@@@QEAAAEAV1@$$QEAV1@@Z
  ?append@?$HostArray@PEAVNcDbNurbSurface@@V?$HostObjectsAllocator@PEAVNcDbNurbSurface@@@@@@QEAAAEAV1@AEBV1@@Z
  ?append@?$HostArray@PEAVNcDbNurbSurface@@V?$HostObjectsAllocator@PEAVNcDbNurbSurface@@@@@@QEAAI$$QEAPEAVNcDbNurbSurface@@@Z
  ?append@?$HostArray@PEAVNcDbNurbSurface@@V?$HostObjectsAllocator@PEAVNcDbNurbSurface@@@@@@QEAAIAEBQEAVNcDbNurbSurface@@@Z
  ?append@?$HostArray@PEAVNcDbNurbSurface@@V?$HostObjectsAllocator@PEAVNcDbNurbSurface@@@@@@QEAAPEAPEAVNcDbNurbSurface@@XZ
  ?append@?$HostArray@PEAVNcDbPolygonMeshVertex@@V?$HostObjectsAllocator@PEAVNcDbPolygonMeshVertex@@@@@@QEAAAEAV1@$$QEAV1@@Z
  ?append@?$HostArray@PEAVNcDbPolygonMeshVertex@@V?$HostObjectsAllocator@PEAVNcDbPolygonMeshVertex@@@@@@QEAAAEAV1@AEBV1@@Z
  ?append@?$HostArray@PEAVNcDbPolygonMeshVertex@@V?$HostObjectsAllocator@PEAVNcDbPolygonMeshVertex@@@@@@QEAAI$$QEAPEAVNcDbPolygonMeshVertex@@@Z
  ?append@?$HostArray@PEAVNcDbPolygonMeshVertex@@V?$HostObjectsAllocator@PEAVNcDbPolygonMeshVertex@@@@@@QEAAIAEBQEAVNcDbPolygonMeshVertex@@@Z
  ?append@?$HostArray@PEAVNcDbPolygonMeshVertex@@V?$HostObjectsAllocator@PEAVNcDbPolygonMeshVertex@@@@@@QEAAPEAPEAVNcDbPolygonMeshVertex@@XZ
  ?append@?$HostArray@PEAVNcDbVertex@@V?$HostObjectsAllocator@PEAVNcDbVertex@@@@@@QEAAAEAV1@$$QEAV1@@Z
  ?append@?$HostArray@PEAVNcDbVertex@@V?$HostObjectsAllocator@PEAVNcDbVertex@@@@@@QEAAAEAV1@AEBV1@@Z
  ?append@?$HostArray@PEAVNcDbVertex@@V?$HostObjectsAllocator@PEAVNcDbVertex@@@@@@QEAAI$$QEAPEAVNcDbVertex@@@Z
  ?append@?$HostArray@PEAVNcDbVertex@@V?$HostObjectsAllocator@PEAVNcDbVertex@@@@@@QEAAIAEBQEAVNcDbVertex@@@Z
  ?append@?$HostArray@PEAVNcDbVertex@@V?$HostObjectsAllocator@PEAVNcDbVertex@@@@@@QEAAPEAPEAVNcDbVertex@@XZ
  ?append@?$HostArray@PEAVNcLyLayerFilter@@V?$HostObjectsAllocator@PEAVNcLyLayerFilter@@@@@@QEAAAEAV1@$$QEAV1@@Z
  ?append@?$HostArray@PEAVNcLyLayerFilter@@V?$HostObjectsAllocator@PEAVNcLyLayerFilter@@@@@@QEAAAEAV1@AEBV1@@Z
  ?append@?$HostArray@PEAVNcLyLayerFilter@@V?$HostObjectsAllocator@PEAVNcLyLayerFilter@@@@@@QEAAI$$QEAPEAVNcLyLayerFilter@@@Z
  ?append@?$HostArray@PEAVNcLyLayerFilter@@V?$HostObjectsAllocator@PEAVNcLyLayerFilter@@@@@@QEAAIAEBQEAVNcLyLayerFilter@@@Z
  ?append@?$HostArray@PEAVNcLyLayerFilter@@V?$HostObjectsAllocator@PEAVNcLyLayerFilter@@@@@@QEAAPEAPEAVNcLyLayerFilter@@XZ
  ?append@?$HostArray@PEAVNcTransaction@@V?$HostObjectsAllocator@PEAVNcTransaction@@@@@@QEAAAEAV1@$$QEAV1@@Z
  ?append@?$HostArray@PEAVNcTransaction@@V?$HostObjectsAllocator@PEAVNcTransaction@@@@@@QEAAAEAV1@AEBV1@@Z
  ?append@?$HostArray@PEAVNcTransaction@@V?$HostObjectsAllocator@PEAVNcTransaction@@@@@@QEAAI$$QEAPEAVNcTransaction@@@Z
  ?append@?$HostArray@PEAVNcTransaction@@V?$HostObjectsAllocator@PEAVNcTransaction@@@@@@QEAAIAEBQEAVNcTransaction@@@Z
  ?append@?$HostArray@PEAVNcTransaction@@V?$HostObjectsAllocator@PEAVNcTransaction@@@@@@QEAAPEAPEAVNcTransaction@@XZ
  ?append@?$HostArray@PEAVNsdkHlrData@@V?$HostObjectsAllocator@PEAVNsdkHlrData@@@@@@QEAAAEAV1@$$QEAV1@@Z
  ?append@?$HostArray@PEAVNsdkHlrData@@V?$HostObjectsAllocator@PEAVNsdkHlrData@@@@@@QEAAAEAV1@AEBV1@@Z
  ?append@?$HostArray@PEAVNsdkHlrData@@V?$HostObjectsAllocator@PEAVNsdkHlrData@@@@@@QEAAI$$QEAPEAVNsdkHlrData@@@Z
  ?append@?$HostArray@PEAVNsdkHlrData@@V?$HostObjectsAllocator@PEAVNsdkHlrData@@@@@@QEAAIAEBQEAVNsdkHlrData@@@Z
  ?append@?$HostArray@PEAVNsdkHlrData@@V?$HostObjectsAllocator@PEAVNsdkHlrData@@@@@@QEAAPEAPEAVNsdkHlrData@@XZ
  ?append@?$HostArray@PEAVOdDbEntity@@V?$HostObjectsAllocator@PEAVOdDbEntity@@@@@@QEAAAEAV1@$$QEAV1@@Z
  ?append@?$HostArray@PEAVOdDbEntity@@V?$HostObjectsAllocator@PEAVOdDbEntity@@@@@@QEAAAEAV1@AEBV1@@Z
  ?append@?$HostArray@PEAVOdDbEntity@@V?$HostObjectsAllocator@PEAVOdDbEntity@@@@@@QEAAI$$QEAPEAVOdDbEntity@@@Z
  ?append@?$HostArray@PEAVOdDbEntity@@V?$HostObjectsAllocator@PEAVOdDbEntity@@@@@@QEAAIAEBQEAVOdDbEntity@@@Z
  ?append@?$HostArray@PEAVOdDbEntity@@V?$HostObjectsAllocator@PEAVOdDbEntity@@@@@@QEAAPEAPEAVOdDbEntity@@XZ
  ?append@?$HostArray@PEAXV?$HostMemoryAllocator@PEAX@@@@QEAAAEAV1@$$QEAV1@@Z
  ?append@?$HostArray@PEAXV?$HostMemoryAllocator@PEAX@@@@QEAAAEAV1@AEBV1@@Z
  ?append@?$HostArray@PEAXV?$HostMemoryAllocator@PEAX@@@@QEAAI$$QEAPEAX@Z
  ?append@?$HostArray@PEAXV?$HostMemoryAllocator@PEAX@@@@QEAAIAEBQEAX@Z
  ?append@?$HostArray@PEAXV?$HostMemoryAllocator@PEAX@@@@QEAAPEAPEAXXZ
  ?append@?$HostArray@VMcGeVector2d@@V?$HostMemoryAllocator@VMcGeVector2d@@@@@@QEAAAEAV1@$$QEAV1@@Z
  ?append@?$HostArray@VMcGeVector2d@@V?$HostMemoryAllocator@VMcGeVector2d@@@@@@QEAAAEAV1@AEBV1@@Z
  ?append@?$HostArray@VMcGeVector2d@@V?$HostMemoryAllocator@VMcGeVector2d@@@@@@QEAAI$$QEAVMcGeVector2d@@@Z
  ?append@?$HostArray@VMcGeVector2d@@V?$HostMemoryAllocator@VMcGeVector2d@@@@@@QEAAIAEBVMcGeVector2d@@@Z
  ?append@?$HostArray@VMcGeVector2d@@V?$HostMemoryAllocator@VMcGeVector2d@@@@@@QEAAPEAVMcGeVector2d@@XZ
  ?append@?$HostArray@VNcDbEvalVariant@@V?$HostMemoryAllocator@VNcDbEvalVariant@@@@@@QEAAAEAV1@$$QEAV1@@Z
  ?append@?$HostArray@VNcDbEvalVariant@@V?$HostMemoryAllocator@VNcDbEvalVariant@@@@@@QEAAAEAV1@AEBV1@@Z
  ?append@?$HostArray@VNcDbEvalVariant@@V?$HostMemoryAllocator@VNcDbEvalVariant@@@@@@QEAAI$$QEAVNcDbEvalVariant@@@Z
  ?append@?$HostArray@VNcDbEvalVariant@@V?$HostMemoryAllocator@VNcDbEvalVariant@@@@@@QEAAIAEBVNcDbEvalVariant@@@Z
  ?append@?$HostArray@VNcDbEvalVariant@@V?$HostMemoryAllocator@VNcDbEvalVariant@@@@@@QEAAPEAVNcDbEvalVariant@@XZ
  ?append@?$HostArray@VNcDbFullSubentPath@@V?$HostObjectsAllocator@VNcDbFullSubentPath@@@@@@QEAAAEAV1@$$QEAV1@@Z
  ?append@?$HostArray@VNcDbFullSubentPath@@V?$HostObjectsAllocator@VNcDbFullSubentPath@@@@@@QEAAAEAV1@AEBV1@@Z
  ?append@?$HostArray@VNcDbFullSubentPath@@V?$HostObjectsAllocator@VNcDbFullSubentPath@@@@@@QEAAI$$QEAVNcDbFullSubentPath@@@Z
  ?append@?$HostArray@VNcDbFullSubentPath@@V?$HostObjectsAllocator@VNcDbFullSubentPath@@@@@@QEAAIAEBVNcDbFullSubentPath@@@Z
  ?append@?$HostArray@VNcDbFullSubentPath@@V?$HostObjectsAllocator@VNcDbFullSubentPath@@@@@@QEAAPEAVNcDbFullSubentPath@@XZ
  ?append@?$HostArray@VNcDbObjectId@@V?$HostObjectsAllocator@VNcDbObjectId@@@@@@QEAAAEAV1@$$QEAV1@@Z
  ?append@?$HostArray@VNcDbObjectId@@V?$HostObjectsAllocator@VNcDbObjectId@@@@@@QEAAAEAV1@AEBV1@@Z
  ?append@?$HostArray@VNcDbObjectId@@V?$HostObjectsAllocator@VNcDbObjectId@@@@@@QEAAI$$QEAVNcDbObjectId@@@Z
  ?append@?$HostArray@VNcDbObjectId@@V?$HostObjectsAllocator@VNcDbObjectId@@@@@@QEAAIAEBVNcDbObjectId@@@Z
  ?append@?$HostArray@VNcDbObjectId@@V?$HostObjectsAllocator@VNcDbObjectId@@@@@@QEAAPEAVNcDbObjectId@@XZ
  ?append@?$HostArray@VNcGePoint2d@@V?$HostMemoryAllocator@VNcGePoint2d@@@@@@QEAAAEAV1@$$QEAV1@@Z
  ?append@?$HostArray@VNcGePoint2d@@V?$HostMemoryAllocator@VNcGePoint2d@@@@@@QEAAAEAV1@AEBV1@@Z
  ?append@?$HostArray@VNcGePoint2d@@V?$HostMemoryAllocator@VNcGePoint2d@@@@@@QEAAI$$QEAVNcGePoint2d@@@Z
  ?append@?$HostArray@VNcGePoint2d@@V?$HostMemoryAllocator@VNcGePoint2d@@@@@@QEAAIAEBVNcGePoint2d@@@Z
  ?append@?$HostArray@VNcGePoint2d@@V?$HostMemoryAllocator@VNcGePoint2d@@@@@@QEAAPEAVNcGePoint2d@@XZ
  ?append@?$HostArray@VNcGePoint3d@@V?$HostMemoryAllocator@VNcGePoint3d@@@@@@QEAAAEAV1@$$QEAV1@@Z
  ?append@?$HostArray@VNcGePoint3d@@V?$HostMemoryAllocator@VNcGePoint3d@@@@@@QEAAAEAV1@AEBV1@@Z
  ?append@?$HostArray@VNcGePoint3d@@V?$HostMemoryAllocator@VNcGePoint3d@@@@@@QEAAI$$QEAVNcGePoint3d@@@Z
  ?append@?$HostArray@VNcGePoint3d@@V?$HostMemoryAllocator@VNcGePoint3d@@@@@@QEAAIAEBVNcGePoint3d@@@Z
  ?append@?$HostArray@VNcGePoint3d@@V?$HostMemoryAllocator@VNcGePoint3d@@@@@@QEAAPEAVNcGePoint3d@@XZ
  ?append@?$HostArray@VNcGeVector3d@@V?$HostMemoryAllocator@VNcGeVector3d@@@@@@QEAAAEAV1@$$QEAV1@@Z
  ?append@?$HostArray@VNcGeVector3d@@V?$HostMemoryAllocator@VNcGeVector3d@@@@@@QEAAAEAV1@AEBV1@@Z
  ?append@?$HostArray@VNcGeVector3d@@V?$HostMemoryAllocator@VNcGeVector3d@@@@@@QEAAI$$QEAVNcGeVector3d@@@Z
  ?append@?$HostArray@VNcGeVector3d@@V?$HostMemoryAllocator@VNcGeVector3d@@@@@@QEAAIAEBVNcGeVector3d@@@Z
  ?append@?$HostArray@VNcGeVector3d@@V?$HostMemoryAllocator@VNcGeVector3d@@@@@@QEAAPEAVNcGeVector3d@@XZ
  ?append@?$HostArray@_JV?$HostMemoryAllocator@_J@@@@QEAAAEAV1@$$QEAV1@@Z
  ?append@?$HostArray@_JV?$HostMemoryAllocator@_J@@@@QEAAAEAV1@AEBV1@@Z
  ?append@?$HostArray@_JV?$HostMemoryAllocator@_J@@@@QEAAI$$QEA_J@Z
  ?append@?$HostArray@_JV?$HostMemoryAllocator@_J@@@@QEAAIAEB_J@Z
  ?append@?$HostArray@_JV?$HostMemoryAllocator@_J@@@@QEAAPEA_JXZ
  ?append@?$NcArray@HV?$HostMemoryAllocator@H@@@@QEAAAEAV1@AEBV1@@Z
  ?append@?$NcArray@HV?$HostMemoryAllocator@H@@@@QEAAHAEBH@Z
  ?append@?$NcArray@NV?$HostMemoryAllocator@N@@@@QEAAAEAV1@AEBV1@@Z
  ?append@?$NcArray@NV?$HostMemoryAllocator@N@@@@QEAAHAEBN@Z
  ?append@?$NcArray@PEAUHINSTANCE__@@V?$HostObjectsAllocator@PEAUHINSTANCE__@@@@@@QEAAAEAV1@AEBV1@@Z
  ?append@?$NcArray@PEAUHINSTANCE__@@V?$HostObjectsAllocator@PEAUHINSTANCE__@@@@@@QEAAHAEBQEAUHINSTANCE__@@@Z
  ?append@?$NcArray@PEAVNcDb2dVertex@@V?$HostObjectsAllocator@PEAVNcDb2dVertex@@@@@@QEAAAEAV1@AEBV1@@Z
  ?append@?$NcArray@PEAVNcDb2dVertex@@V?$HostObjectsAllocator@PEAVNcDb2dVertex@@@@@@QEAAHAEBQEAVNcDb2dVertex@@@Z
  ?append@?$NcArray@PEAVNcDb3dPolylineVertex@@V?$HostObjectsAllocator@PEAVNcDb3dPolylineVertex@@@@@@QEAAAEAV1@AEBV1@@Z
  ?append@?$NcArray@PEAVNcDb3dPolylineVertex@@V?$HostObjectsAllocator@PEAVNcDb3dPolylineVertex@@@@@@QEAAHAEBQEAVNcDb3dPolylineVertex@@@Z
  ?append@?$NcArray@PEAVNcDbDimData@@V?$HostMemoryAllocator@PEAVNcDbDimData@@@@@@QEAAAEAV1@AEBV1@@Z
  ?append@?$NcArray@PEAVNcDbDimData@@V?$HostMemoryAllocator@PEAVNcDbDimData@@@@@@QEAAHAEBQEAVNcDbDimData@@@Z
  ?append@?$NcArray@PEAVNcDbEntity@@V?$HostObjectsAllocator@PEAVNcDbEntity@@@@@@QEAAAEAV1@AEBV1@@Z
  ?append@?$NcArray@PEAVNcDbEntity@@V?$HostObjectsAllocator@PEAVNcDbEntity@@@@@@QEAAHAEBQEAVNcDbEntity@@@Z
  ?append@?$NcArray@PEAVNcDbGripData@@V?$HostMemoryAllocator@PEAVNcDbGripData@@@@@@QEAAAEAV1@AEBV1@@Z
  ?append@?$NcArray@PEAVNcDbGripData@@V?$HostMemoryAllocator@PEAVNcDbGripData@@@@@@QEAAHAEBQEAVNcDbGripData@@@Z
  ?append@?$NcArray@PEAVNcDbNurbSurface@@V?$HostObjectsAllocator@PEAVNcDbNurbSurface@@@@@@QEAAAEAV1@AEBV1@@Z
  ?append@?$NcArray@PEAVNcDbNurbSurface@@V?$HostObjectsAllocator@PEAVNcDbNurbSurface@@@@@@QEAAHAEBQEAVNcDbNurbSurface@@@Z
  ?append@?$NcArray@PEAVNcDbPolygonMeshVertex@@V?$HostObjectsAllocator@PEAVNcDbPolygonMeshVertex@@@@@@QEAAAEAV1@AEBV1@@Z
  ?append@?$NcArray@PEAVNcDbPolygonMeshVertex@@V?$HostObjectsAllocator@PEAVNcDbPolygonMeshVertex@@@@@@QEAAHAEBQEAVNcDbPolygonMeshVertex@@@Z
  ?append@?$NcArray@PEAVNcDbVertex@@V?$HostObjectsAllocator@PEAVNcDbVertex@@@@@@QEAAAEAV1@AEBV1@@Z
  ?append@?$NcArray@PEAVNcDbVertex@@V?$HostObjectsAllocator@PEAVNcDbVertex@@@@@@QEAAHAEBQEAVNcDbVertex@@@Z
  ?append@?$NcArray@PEAVNcLyLayerFilter@@V?$HostObjectsAllocator@PEAVNcLyLayerFilter@@@@@@QEAAAEAV1@AEBV1@@Z
  ?append@?$NcArray@PEAVNcLyLayerFilter@@V?$HostObjectsAllocator@PEAVNcLyLayerFilter@@@@@@QEAAHAEBQEAVNcLyLayerFilter@@@Z
  ?append@?$NcArray@PEAVNcTransaction@@V?$HostObjectsAllocator@PEAVNcTransaction@@@@@@QEAAAEAV1@AEBV1@@Z
  ?append@?$NcArray@PEAVNcTransaction@@V?$HostObjectsAllocator@PEAVNcTransaction@@@@@@QEAAHAEBQEAVNcTransaction@@@Z
  ?append@?$NcArray@PEAVNsdkHlrData@@V?$HostObjectsAllocator@PEAVNsdkHlrData@@@@@@QEAAAEAV1@AEBV1@@Z
  ?append@?$NcArray@PEAVNsdkHlrData@@V?$HostObjectsAllocator@PEAVNsdkHlrData@@@@@@QEAAHAEBQEAVNsdkHlrData@@@Z
  ?append@?$NcArray@PEAVOdDbEntity@@V?$HostObjectsAllocator@PEAVOdDbEntity@@@@@@QEAAAEAV1@AEBV1@@Z
  ?append@?$NcArray@PEAVOdDbEntity@@V?$HostObjectsAllocator@PEAVOdDbEntity@@@@@@QEAAHAEBQEAVOdDbEntity@@@Z
  ?append@?$NcArray@PEAXV?$HostMemoryAllocator@PEAX@@@@QEAAAEAV1@AEBV1@@Z
  ?append@?$NcArray@PEAXV?$HostMemoryAllocator@PEAX@@@@QEAAHAEBQEAX@Z
  ?append@?$NcArray@VMcGeVector2d@@V?$HostMemoryAllocator@VMcGeVector2d@@@@@@QEAAAEAV1@AEBV1@@Z
  ?append@?$NcArray@VMcGeVector2d@@V?$HostMemoryAllocator@VMcGeVector2d@@@@@@QEAAHAEBVMcGeVector2d@@@Z
  ?append@?$NcArray@VNcDbEvalVariant@@V?$HostMemoryAllocator@VNcDbEvalVariant@@@@@@QEAAAEAV1@AEBV1@@Z
  ?append@?$NcArray@VNcDbEvalVariant@@V?$HostMemoryAllocator@VNcDbEvalVariant@@@@@@QEAAHAEBVNcDbEvalVariant@@@Z
  ?append@?$NcArray@VNcDbFullSubentPath@@V?$HostObjectsAllocator@VNcDbFullSubentPath@@@@@@QEAAAEAV1@AEBV1@@Z
  ?append@?$NcArray@VNcDbFullSubentPath@@V?$HostObjectsAllocator@VNcDbFullSubentPath@@@@@@QEAAHAEBVNcDbFullSubentPath@@@Z
  ?append@?$NcArray@VNcDbObjectId@@V?$HostObjectsAllocator@VNcDbObjectId@@@@@@QEAAAEAV1@AEBV1@@Z
  ?append@?$NcArray@VNcDbObjectId@@V?$HostObjectsAllocator@VNcDbObjectId@@@@@@QEAAHAEBVNcDbObjectId@@@Z
  ?append@?$NcArray@VNcGePoint2d@@V?$HostMemoryAllocator@VNcGePoint2d@@@@@@QEAAAEAV1@AEBV1@@Z
  ?append@?$NcArray@VNcGePoint2d@@V?$HostMemoryAllocator@VNcGePoint2d@@@@@@QEAAHAEBVNcGePoint2d@@@Z
  ?append@?$NcArray@VNcGePoint3d@@V?$HostMemoryAllocator@VNcGePoint3d@@@@@@QEAAAEAV1@AEBV1@@Z
  ?append@?$NcArray@VNcGePoint3d@@V?$HostMemoryAllocator@VNcGePoint3d@@@@@@QEAAHAEBVNcGePoint3d@@@Z
  ?append@?$NcArray@VNcGeVector3d@@V?$HostMemoryAllocator@VNcGeVector3d@@@@@@QEAAAEAV1@AEBV1@@Z
  ?append@?$NcArray@VNcGeVector3d@@V?$HostMemoryAllocator@VNcGeVector3d@@@@@@QEAAHAEBVNcGeVector3d@@@Z
  ?append@?$NcArray@_JV?$HostMemoryAllocator@_J@@@@QEAAAEAV1@AEBV1@@Z
  ?append@?$NcArray@_JV?$HostMemoryAllocator@_J@@@@QEAAHAEB_J@Z
  ?append@NcDbGroup@@QEAA?AW4ErrorStatus@Nano@@V?$NcArray@VNcDbObjectId@@V?$HostObjectsAllocator@VNcDbObjectId@@@@@@@Z
  ?append@NcDbGroup@@QEAA?AW4ErrorStatus@Nano@@VNcDbObjectId@@@Z
  ?append@NcDbWipeout@@QEAA?AW4ErrorStatus@Nano@@AEAVNcDbObjectId@@@Z
  ?append@NcGeKnotVector@@QEAAAEAV1@AEAV1@N@Z
  ?append@NcGeKnotVector@@QEAAHN@Z
  ?append@NcString@@QEAAAEAV1@AEBV1@@Z
  ?append@NcString@@QEAAAEAV1@D@Z
  ?append@NcString@@QEAAAEAV1@PEBD@Z
  ?append@NcString@@QEAAAEAV1@PEB_W@Z
  ?append@NcString@@QEAAAEAV1@_W@Z
  ?append@RxClassStorage@@QEAAPEAVNcRxClass@@PEB_WPEBV2@HHHP6A?AVNcRxObjectPtr@@XZP6APEAVNcRxObject@@XZ00@Z
  ?appendAttribute@NcDbBlockReference@@QEAA?AW4ErrorStatus@Nano@@AEAVNcDbObjectId@@PEAVNcDbAttribute@@@Z
  ?appendAttribute@NcDbBlockReference@@QEAA?AW4ErrorStatus@Nano@@PEAVNcDbAttribute@@@Z
  ?appendCell@NcDbDataColumn@@UEAA?AW4ErrorStatus@Nano@@AEBVNcDbDataCell@@@Z
  ?appendColumn@NcDbDataTable@@UEAA?AW4ErrorStatus@Nano@@W4CellType@NcDbDataCell@@PEB_W@Z
  ?appendColumn@NcDbLinkedTableData@@UEAAHH@Z
  ?appendFaceRecord@NcDbPolyFaceMesh@@QEAA?AW4ErrorStatus@Nano@@AEAVNcDbObjectId@@PEAVNcDbFaceRecord@@@Z
  ?appendFaceRecord@NcDbPolyFaceMesh@@QEAA?AW4ErrorStatus@Nano@@PEAVNcDbFaceRecord@@@Z
  ?appendLoop@NcDbHatch@@QEAA?AW4ErrorStatus@Nano@@JAEBV?$NcArray@PEAXV?$HostMemoryAllocator@PEAX@@@@AEBV?$NcArray@HV?$HostMemoryAllocator@H@@@@@Z
  ?appendLoop@NcDbHatch@@QEAA?AW4ErrorStatus@Nano@@JAEBV?$NcArray@VNcDbObjectId@@V?$HostObjectsAllocator@VNcDbObjectId@@@@@@@Z
  ?appendLoop@NcDbHatch@@QEAA?AW4ErrorStatus@Nano@@JAEBV?$NcArray@VNcGePoint2d@@V?$HostMemoryAllocator@VNcGePoint2d@@@@@@AEBV?$NcArray@NV?$HostMemoryAllocator@N@@@@@Z
  ?appendLoopFromBoundary@NcDbMPolygon@@UEAA?AW4ErrorStatus@Nano@@PEBVNcDb2dPolyline@@_NN@Z
  ?appendLoopFromBoundary@NcDbMPolygon@@UEAA?AW4ErrorStatus@Nano@@PEBVNcDbCircle@@_NN@Z
  ?appendLoopFromBoundary@NcDbMPolygon@@UEAA?AW4ErrorStatus@Nano@@PEBVNcDbPolyline@@_NN@Z
  ?appendMPolygonLoop@NcDbMPolygon@@UEAA?AW4ErrorStatus@Nano@@AEBV?$NcArray@VNcGePoint2d@@V?$HostMemoryAllocator@VNcGePoint2d@@@@@@AEBV?$NcArray@NV?$HostMemoryAllocator@N@@@@_NN@Z
  ?appendMove@?$HostArray@HV?$HostMemoryAllocator@H@@@@QEAAAEAV1@$$QEAV1@@Z
  ?appendMove@?$HostArray@HV?$HostMemoryAllocator@H@@@@QEAAI$$QEAH@Z
  ?appendMove@?$HostArray@NV?$HostMemoryAllocator@N@@@@QEAAAEAV1@$$QEAV1@@Z
  ?appendMove@?$HostArray@NV?$HostMemoryAllocator@N@@@@QEAAI$$QEAN@Z
  ?appendMove@?$HostArray@PEAUHINSTANCE__@@V?$HostObjectsAllocator@PEAUHINSTANCE__@@@@@@QEAAAEAV1@$$QEAV1@@Z
  ?appendMove@?$HostArray@PEAUHINSTANCE__@@V?$HostObjectsAllocator@PEAUHINSTANCE__@@@@@@QEAAI$$QEAPEAUHINSTANCE__@@@Z
  ?appendMove@?$HostArray@PEAVNcDb2dVertex@@V?$HostObjectsAllocator@PEAVNcDb2dVertex@@@@@@QEAAAEAV1@$$QEAV1@@Z
  ?appendMove@?$HostArray@PEAVNcDb2dVertex@@V?$HostObjectsAllocator@PEAVNcDb2dVertex@@@@@@QEAAI$$QEAPEAVNcDb2dVertex@@@Z
  ?appendMove@?$HostArray@PEAVNcDb3dPolylineVertex@@V?$HostObjectsAllocator@PEAVNcDb3dPolylineVertex@@@@@@QEAAAEAV1@$$QEAV1@@Z
  ?appendMove@?$HostArray@PEAVNcDb3dPolylineVertex@@V?$HostObjectsAllocator@PEAVNcDb3dPolylineVertex@@@@@@QEAAI$$QEAPEAVNcDb3dPolylineVertex@@@Z
  ?appendMove@?$HostArray@PEAVNcDbDimData@@V?$HostMemoryAllocator@PEAVNcDbDimData@@@@@@QEAAAEAV1@$$QEAV1@@Z
  ?appendMove@?$HostArray@PEAVNcDbDimData@@V?$HostMemoryAllocator@PEAVNcDbDimData@@@@@@QEAAI$$QEAPEAVNcDbDimData@@@Z
  ?appendMove@?$HostArray@PEAVNcDbEntity@@V?$HostObjectsAllocator@PEAVNcDbEntity@@@@@@QEAAAEAV1@$$QEAV1@@Z
  ?appendMove@?$HostArray@PEAVNcDbEntity@@V?$HostObjectsAllocator@PEAVNcDbEntity@@@@@@QEAAI$$QEAPEAVNcDbEntity@@@Z
  ?appendMove@?$HostArray@PEAVNcDbGripData@@V?$HostMemoryAllocator@PEAVNcDbGripData@@@@@@QEAAAEAV1@$$QEAV1@@Z
  ?appendMove@?$HostArray@PEAVNcDbGripData@@V?$HostMemoryAllocator@PEAVNcDbGripData@@@@@@QEAAI$$QEAPEAVNcDbGripData@@@Z
  ?appendMove@?$HostArray@PEAVNcDbNurbSurface@@V?$HostObjectsAllocator@PEAVNcDbNurbSurface@@@@@@QEAAAEAV1@$$QEAV1@@Z
  ?appendMove@?$HostArray@PEAVNcDbNurbSurface@@V?$HostObjectsAllocator@PEAVNcDbNurbSurface@@@@@@QEAAI$$QEAPEAVNcDbNurbSurface@@@Z
  ?appendMove@?$HostArray@PEAVNcDbPolygonMeshVertex@@V?$HostObjectsAllocator@PEAVNcDbPolygonMeshVertex@@@@@@QEAAAEAV1@$$QEAV1@@Z
  ?appendMove@?$HostArray@PEAVNcDbPolygonMeshVertex@@V?$HostObjectsAllocator@PEAVNcDbPolygonMeshVertex@@@@@@QEAAI$$QEAPEAVNcDbPolygonMeshVertex@@@Z
  ?appendMove@?$HostArray@PEAVNcDbVertex@@V?$HostObjectsAllocator@PEAVNcDbVertex@@@@@@QEAAAEAV1@$$QEAV1@@Z
  ?appendMove@?$HostArray@PEAVNcDbVertex@@V?$HostObjectsAllocator@PEAVNcDbVertex@@@@@@QEAAI$$QEAPEAVNcDbVertex@@@Z
  ?appendMove@?$HostArray@PEAVNcLyLayerFilter@@V?$HostObjectsAllocator@PEAVNcLyLayerFilter@@@@@@QEAAAEAV1@$$QEAV1@@Z
  ?appendMove@?$HostArray@PEAVNcLyLayerFilter@@V?$HostObjectsAllocator@PEAVNcLyLayerFilter@@@@@@QEAAI$$QEAPEAVNcLyLayerFilter@@@Z
  ?appendMove@?$HostArray@PEAVNcTransaction@@V?$HostObjectsAllocator@PEAVNcTransaction@@@@@@QEAAAEAV1@$$QEAV1@@Z
  ?appendMove@?$HostArray@PEAVNcTransaction@@V?$HostObjectsAllocator@PEAVNcTransaction@@@@@@QEAAI$$QEAPEAVNcTransaction@@@Z
  ?appendMove@?$HostArray@PEAVNsdkHlrData@@V?$HostObjectsAllocator@PEAVNsdkHlrData@@@@@@QEAAAEAV1@$$QEAV1@@Z
  ?appendMove@?$HostArray@PEAVNsdkHlrData@@V?$HostObjectsAllocator@PEAVNsdkHlrData@@@@@@QEAAI$$QEAPEAVNsdkHlrData@@@Z
  ?appendMove@?$HostArray@PEAVOdDbEntity@@V?$HostObjectsAllocator@PEAVOdDbEntity@@@@@@QEAAAEAV1@$$QEAV1@@Z
  ?appendMove@?$HostArray@PEAVOdDbEntity@@V?$HostObjectsAllocator@PEAVOdDbEntity@@@@@@QEAAI$$QEAPEAVOdDbEntity@@@Z
  ?appendMove@?$HostArray@PEAXV?$HostMemoryAllocator@PEAX@@@@QEAAAEAV1@$$QEAV1@@Z
  ?appendMove@?$HostArray@PEAXV?$HostMemoryAllocator@PEAX@@@@QEAAI$$QEAPEAX@Z
  ?appendMove@?$HostArray@VMcGeVector2d@@V?$HostMemoryAllocator@VMcGeVector2d@@@@@@QEAAAEAV1@$$QEAV1@@Z
  ?appendMove@?$HostArray@VMcGeVector2d@@V?$HostMemoryAllocator@VMcGeVector2d@@@@@@QEAAI$$QEAVMcGeVector2d@@@Z
  ?appendMove@?$HostArray@VNcDbEvalVariant@@V?$HostMemoryAllocator@VNcDbEvalVariant@@@@@@QEAAAEAV1@$$QEAV1@@Z
  ?appendMove@?$HostArray@VNcDbEvalVariant@@V?$HostMemoryAllocator@VNcDbEvalVariant@@@@@@QEAAI$$QEAVNcDbEvalVariant@@@Z
  ?appendMove@?$HostArray@VNcDbFullSubentPath@@V?$HostObjectsAllocator@VNcDbFullSubentPath@@@@@@QEAAAEAV1@$$QEAV1@@Z
  ?appendMove@?$HostArray@VNcDbFullSubentPath@@V?$HostObjectsAllocator@VNcDbFullSubentPath@@@@@@QEAAI$$QEAVNcDbFullSubentPath@@@Z
  ?appendMove@?$HostArray@VNcDbObjectId@@V?$HostObjectsAllocator@VNcDbObjectId@@@@@@QEAAAEAV1@$$QEAV1@@Z
  ?appendMove@?$HostArray@VNcDbObjectId@@V?$HostObjectsAllocator@VNcDbObjectId@@@@@@QEAAI$$QEAVNcDbObjectId@@@Z
  ?appendMove@?$HostArray@VNcGePoint2d@@V?$HostMemoryAllocator@VNcGePoint2d@@@@@@QEAAAEAV1@$$QEAV1@@Z
  ?appendMove@?$HostArray@VNcGePoint2d@@V?$HostMemoryAllocator@VNcGePoint2d@@@@@@QEAAI$$QEAVNcGePoint2d@@@Z
  ?appendMove@?$HostArray@VNcGePoint3d@@V?$HostMemoryAllocator@VNcGePoint3d@@@@@@QEAAAEAV1@$$QEAV1@@Z
  ?appendMove@?$HostArray@VNcGePoint3d@@V?$HostMemoryAllocator@VNcGePoint3d@@@@@@QEAAI$$QEAVNcGePoint3d@@@Z
  ?appendMove@?$HostArray@VNcGeVector3d@@V?$HostMemoryAllocator@VNcGeVector3d@@@@@@QEAAAEAV1@$$QEAV1@@Z
  ?appendMove@?$HostArray@VNcGeVector3d@@V?$HostMemoryAllocator@VNcGeVector3d@@@@@@QEAAI$$QEAVNcGeVector3d@@@Z
  ?appendMove@?$HostArray@_JV?$HostMemoryAllocator@_J@@@@QEAAAEAV1@$$QEAV1@@Z
  ?appendMove@?$HostArray@_JV?$HostMemoryAllocator@_J@@@@QEAAI$$QEA_J@Z
  ?appendNcDbEntity@NcDbBlockTableRecord@@QEAA?AW4ErrorStatus@Nano@@AEAVNcDbObjectId@@PEAVNcDbEntity@@@Z
  ?appendNcDbEntity@NcDbBlockTableRecord@@QEAA?AW4ErrorStatus@Nano@@PEAVNcDbEntity@@@Z
  ?appendProperty@FormatCodecInclusivePropertySetInterface@Ntil@@IEAAXPEAVFormatCodecPropertyInterface@2@@Z
  ?appendProperty@FormatCodecPropertySetIterator@Ntil@@IEAAXPEBVFormatCodecPropertyInterface@2@@Z
  ?appendRep@?$HostArray@HV?$HostMemoryAllocator@H@@@@QEAAAEAV1@AEBHI@Z
  ?appendRep@?$HostArray@NV?$HostMemoryAllocator@N@@@@QEAAAEAV1@AEBNI@Z
  ?appendRep@?$HostArray@PEAUHINSTANCE__@@V?$HostObjectsAllocator@PEAUHINSTANCE__@@@@@@QEAAAEAV1@AEBQEAUHINSTANCE__@@I@Z
  ?appendRep@?$HostArray@PEAVNcDb2dVertex@@V?$HostObjectsAllocator@PEAVNcDb2dVertex@@@@@@QEAAAEAV1@AEBQEAVNcDb2dVertex@@I@Z
  ?appendRep@?$HostArray@PEAVNcDb3dPolylineVertex@@V?$HostObjectsAllocator@PEAVNcDb3dPolylineVertex@@@@@@QEAAAEAV1@AEBQEAVNcDb3dPolylineVertex@@I@Z
  ?appendRep@?$HostArray@PEAVNcDbDimData@@V?$HostMemoryAllocator@PEAVNcDbDimData@@@@@@QEAAAEAV1@AEBQEAVNcDbDimData@@I@Z
  ?appendRep@?$HostArray@PEAVNcDbEntity@@V?$HostObjectsAllocator@PEAVNcDbEntity@@@@@@QEAAAEAV1@AEBQEAVNcDbEntity@@I@Z
  ?appendRep@?$HostArray@PEAVNcDbGripData@@V?$HostMemoryAllocator@PEAVNcDbGripData@@@@@@QEAAAEAV1@AEBQEAVNcDbGripData@@I@Z
  ?appendRep@?$HostArray@PEAVNcDbNurbSurface@@V?$HostObjectsAllocator@PEAVNcDbNurbSurface@@@@@@QEAAAEAV1@AEBQEAVNcDbNurbSurface@@I@Z
  ?appendRep@?$HostArray@PEAVNcDbPolygonMeshVertex@@V?$HostObjectsAllocator@PEAVNcDbPolygonMeshVertex@@@@@@QEAAAEAV1@AEBQEAVNcDbPolygonMeshVertex@@I@Z
  ?appendRep@?$HostArray@PEAVNcDbVertex@@V?$HostObjectsAllocator@PEAVNcDbVertex@@@@@@QEAAAEAV1@AEBQEAVNcDbVertex@@I@Z
  ?appendRep@?$HostArray@PEAVNcLyLayerFilter@@V?$HostObjectsAllocator@PEAVNcLyLayerFilter@@@@@@QEAAAEAV1@AEBQEAVNcLyLayerFilter@@I@Z
  ?appendRep@?$HostArray@PEAVNcTransaction@@V?$HostObjectsAllocator@PEAVNcTransaction@@@@@@QEAAAEAV1@AEBQEAVNcTransaction@@I@Z
  ?appendRep@?$HostArray@PEAVNsdkHlrData@@V?$HostObjectsAllocator@PEAVNsdkHlrData@@@@@@QEAAAEAV1@AEBQEAVNsdkHlrData@@I@Z
  ?appendRep@?$HostArray@PEAVOdDbEntity@@V?$HostObjectsAllocator@PEAVOdDbEntity@@@@@@QEAAAEAV1@AEBQEAVOdDbEntity@@I@Z
  ?appendRep@?$HostArray@PEAXV?$HostMemoryAllocator@PEAX@@@@QEAAAEAV1@AEBQEAXI@Z
  ?appendRep@?$HostArray@VMcGeVector2d@@V?$HostMemoryAllocator@VMcGeVector2d@@@@@@QEAAAEAV1@AEBVMcGeVector2d@@I@Z
  ?appendRep@?$HostArray@VNcDbEvalVariant@@V?$HostMemoryAllocator@VNcDbEvalVariant@@@@@@QEAAAEAV1@AEBVNcDbEvalVariant@@I@Z
  ?appendRep@?$HostArray@VNcDbFullSubentPath@@V?$HostObjectsAllocator@VNcDbFullSubentPath@@@@@@QEAAAEAV1@AEBVNcDbFullSubentPath@@I@Z
  ?appendRep@?$HostArray@VNcDbObjectId@@V?$HostObjectsAllocator@VNcDbObjectId@@@@@@QEAAAEAV1@AEBVNcDbObjectId@@I@Z
  ?appendRep@?$HostArray@VNcGePoint2d@@V?$HostMemoryAllocator@VNcGePoint2d@@@@@@QEAAAEAV1@AEBVNcGePoint2d@@I@Z
  ?appendRep@?$HostArray@VNcGePoint3d@@V?$HostMemoryAllocator@VNcGePoint3d@@@@@@QEAAAEAV1@AEBVNcGePoint3d@@I@Z
  ?appendRep@?$HostArray@VNcGeVector3d@@V?$HostMemoryAllocator@VNcGeVector3d@@@@@@QEAAAEAV1@AEBVNcGeVector3d@@I@Z
  ?appendRep@?$HostArray@_JV?$HostMemoryAllocator@_J@@@@QEAAAEAV1@AEB_JI@Z
  ?appendRow@NcDbDataTable@@UEAA?AW4ErrorStatus@Nano@@AEBV?$NcArray@VNcDbDataCell@@V?$HostObjectsAllocator@VNcDbDataCell@@@@@@_N@Z
  ?appendRow@NcDbLinkedTableData@@UEAAHH@Z
  ?appendSeg@NcDbMline@@QEAA?AW4ErrorStatus@Nano@@AEBVNcGePoint3d@@@Z
  ?appendToTooltipStr@NcEdInputPointMonitorResult@@QEBA_NXZ
  ?appendVertex@NcDb2dPolyline@@QEAA?AW4ErrorStatus@Nano@@AEAVNcDbObjectId@@PEAVNcDb2dVertex@@@Z
  ?appendVertex@NcDb2dPolyline@@QEAA?AW4ErrorStatus@Nano@@PEAVNcDb2dVertex@@@Z
  ?appendVertex@NcDb3dPolyline@@QEAA?AW4ErrorStatus@Nano@@AEAVNcDbObjectId@@PEAVNcDb3dPolylineVertex@@@Z
  ?appendVertex@NcDb3dPolyline@@QEAA?AW4ErrorStatus@Nano@@PEAVNcDb3dPolylineVertex@@@Z
  ?appendVertex@NcDbLeader@@UEAAHAEBVNcGePoint3d@@@Z
  ?appendVertex@NcDbPolyFaceMesh@@QEAA?AW4ErrorStatus@Nano@@AEAVNcDbObjectId@@PEAVNcDbPolyFaceMeshVertex@@@Z
  ?appendVertex@NcDbPolyFaceMesh@@QEAA?AW4ErrorStatus@Nano@@PEAVNcDbPolyFaceMeshVertex@@@Z
  ?appendVertex@NcDbPolygonMesh@@QEAA?AW4ErrorStatus@Nano@@AEAVNcDbObjectId@@PEAVNcDbPolygonMeshVertex@@@Z
  ?appendVertex@NcDbPolygonMesh@@QEAA?AW4ErrorStatus@Nano@@PEAVNcDbPolygonMeshVertex@@@Z
  ?applicationDescription@NcDbProxyEntity@@UEBAPEB_WXZ
  ?applicationDescription@NcDbProxyObject@@UEBAPEB_WXZ
  ?applyPaperOrientationTransform@NcDbPaperOrientationPE@@UEBA?AW4ErrorStatus@Nano@@PEAVNcDbObject@@PEBVNcDbViewport@@@Z
  ?applyPartialOpenFilters@NcDbDatabase@@QEAA?AW4ErrorStatus@Nano@@PEBVNcDbSpatialFilter@@PEBVNcDbLayerFilter@@@Z
  ?applyPartialUndo@NcDbBlockTableRecord@@UEAA?AW4ErrorStatus@Nano@@PEAVNcDbDwgFiler@@PEAVNcRxClass@@@Z
  ?applyPartialUndo@NcDbDictionary@@UEAA?AW4ErrorStatus@Nano@@PEAVNcDbDwgFiler@@PEAVNcRxClass@@@Z
  ?applyPartialUndo@NcDbEntity@@UEAA?AW4ErrorStatus@Nano@@PEAVNcDbDwgFiler@@PEAVNcRxClass@@@Z
  ?applyPartialUndo@NcDbGroup@@UEAA?AW4ErrorStatus@Nano@@PEAVNcDbDwgFiler@@PEAVNcRxClass@@@Z
  ?applyPartialUndo@NcDbObject@@UEAA?AW4ErrorStatus@Nano@@PEAVNcDbDwgFiler@@PEAVNcRxClass@@@Z
  ?applyPartialUndo@NcDbPolyline@@UEAA?AW4ErrorStatus@Nano@@PEAVNcDbDwgFiler@@PEAVNcRxClass@@@Z
  ?applyPartialUndo@NcDbSortentsTable@@UEAA?AW4ErrorStatus@Nano@@PEAVNcDbDwgFiler@@PEAVNcRxClass@@@Z
  ?applyPartialUndo@NcDbTextStyleTableRecord@@UEAA?AW4ErrorStatus@Nano@@PEAVNcDbDwgFiler@@PEAVNcRxClass@@@Z
  ?approxNumObjects@NcDbDatabase@@QEBAHXZ
  ?approxTol@NcGeAugPolyline3d@@QEBANXZ
  ?appstatusbaruseicons@NcDbAppSystemVariables@@QEBA_NXZ
  ?arcEndParam@NcDbArcDimension@@QEBANXZ
  ?arcLengthParam@NcDbLoftOptions@@QEBA_NXZ
  ?arcPoint@NcDb2LineAngularDimension@@QEBA?AVNcGePoint3d@@XZ
  ?arcPoint@NcDb3PointAngularDimension@@QEBA?AVNcGePoint3d@@XZ
  ?arcPoint@NcDbArcDimension@@QEBA?AVNcGePoint3d@@XZ
  ?arcStartParam@NcDbArcDimension@@QEBANXZ
  ?arcSymbolType@NcDbArcDimension@@QEBAHXZ
  ?areDependenciesEqual@NcDbAssocAction@@QEBA_NPEBVNcDbAssocDependency@@0@Z
  ?areDependenciesEqualOverride@NcDbAssocActionBody@@UEBA?AW4ErrorStatus@Nano@@PEBVNcDbAssocDependency@@0AEA_N@Z
  ?areDependenciesOnTheSameThing@NcDbAssocAction@@QEBA_NPEBVNcDbAssocDependency@@0@Z
  ?areDependenciesOnTheSameThingOverride@NcDbAssocActionBody@@UEBA?AW4ErrorStatus@Nano@@PEBVNcDbAssocDependency@@0AEA_N@Z
  ?areModeKeywordsDisabled@NcDbGripData@@QEBA_NXZ
  ?area@NcGeCubicSplineCurve3d@@UEBAHNNAEANAEBVMcGeTol@@@Z
  ?area@NcGeCurve2d@@UEBAHNNAEANAEBVMcGeTol@@@Z
  ?area@NcGeCurve3d@@UEBAHNNAEANAEBVMcGeTol@@@Z
  ?arrowId@NcDbDimStyleTableRecord@@QEBA?AVNcDbObjectId@@W4DimArrowFlags@NcDb@@@Z
  ?arrowSize@NcDbMLeader@@QEBANXZ
  ?arrowSize@NcDbMLeaderStyle@@QEBANXZ
  ?arrowSymbolId@NcDbMLeader@@QEBA?AVNcDbObjectId@@H@Z
  ?arrowSymbolId@NcDbMLeader@@QEBA?AVNcDbObjectId@@XZ
  ?arrowSymbolId@NcDbMLeaderStyle@@QEBA?AVNcDbObjectId@@XZ
  ?asArrayPtr@?$HostArray@HV?$HostMemoryAllocator@H@@@@QEAAPEAHXZ
  ?asArrayPtr@?$HostArray@HV?$HostMemoryAllocator@H@@@@QEBAPEBHXZ
  ?asArrayPtr@?$HostArray@NV?$HostMemoryAllocator@N@@@@QEAAPEANXZ
  ?asArrayPtr@?$HostArray@NV?$HostMemoryAllocator@N@@@@QEBAPEBNXZ
  ?asArrayPtr@?$HostArray@PEAUHINSTANCE__@@V?$HostObjectsAllocator@PEAUHINSTANCE__@@@@@@QEAAPEAPEAUHINSTANCE__@@XZ
  ?asArrayPtr@?$HostArray@PEAUHINSTANCE__@@V?$HostObjectsAllocator@PEAUHINSTANCE__@@@@@@QEBAPEBQEAUHINSTANCE__@@XZ
  ?asArrayPtr@?$HostArray@PEAVNcDb2dVertex@@V?$HostObjectsAllocator@PEAVNcDb2dVertex@@@@@@QEAAPEAPEAVNcDb2dVertex@@XZ
  ?asArrayPtr@?$HostArray@PEAVNcDb2dVertex@@V?$HostObjectsAllocator@PEAVNcDb2dVertex@@@@@@QEBAPEBQEAVNcDb2dVertex@@XZ
  ?asArrayPtr@?$HostArray@PEAVNcDb3dPolylineVertex@@V?$HostObjectsAllocator@PEAVNcDb3dPolylineVertex@@@@@@QEAAPEAPEAVNcDb3dPolylineVertex@@XZ
  ?asArrayPtr@?$HostArray@PEAVNcDb3dPolylineVertex@@V?$HostObjectsAllocator@PEAVNcDb3dPolylineVertex@@@@@@QEBAPEBQEAVNcDb3dPolylineVertex@@XZ
  ?asArrayPtr@?$HostArray@PEAVNcDbDimData@@V?$HostMemoryAllocator@PEAVNcDbDimData@@@@@@QEAAPEAPEAVNcDbDimData@@XZ
  ?asArrayPtr@?$HostArray@PEAVNcDbDimData@@V?$HostMemoryAllocator@PEAVNcDbDimData@@@@@@QEBAPEBQEAVNcDbDimData@@XZ
  ?asArrayPtr@?$HostArray@PEAVNcDbEntity@@V?$HostObjectsAllocator@PEAVNcDbEntity@@@@@@QEAAPEAPEAVNcDbEntity@@XZ
  ?asArrayPtr@?$HostArray@PEAVNcDbEntity@@V?$HostObjectsAllocator@PEAVNcDbEntity@@@@@@QEBAPEBQEAVNcDbEntity@@XZ
  ?asArrayPtr@?$HostArray@PEAVNcDbGripData@@V?$HostMemoryAllocator@PEAVNcDbGripData@@@@@@QEAAPEAPEAVNcDbGripData@@XZ
  ?asArrayPtr@?$HostArray@PEAVNcDbGripData@@V?$HostMemoryAllocator@PEAVNcDbGripData@@@@@@QEBAPEBQEAVNcDbGripData@@XZ
  ?asArrayPtr@?$HostArray@PEAVNcDbNurbSurface@@V?$HostObjectsAllocator@PEAVNcDbNurbSurface@@@@@@QEAAPEAPEAVNcDbNurbSurface@@XZ
  ?asArrayPtr@?$HostArray@PEAVNcDbNurbSurface@@V?$HostObjectsAllocator@PEAVNcDbNurbSurface@@@@@@QEBAPEBQEAVNcDbNurbSurface@@XZ
  ?asArrayPtr@?$HostArray@PEAVNcDbPolygonMeshVertex@@V?$HostObjectsAllocator@PEAVNcDbPolygonMeshVertex@@@@@@QEAAPEAPEAVNcDbPolygonMeshVertex@@XZ
  ?asArrayPtr@?$HostArray@PEAVNcDbPolygonMeshVertex@@V?$HostObjectsAllocator@PEAVNcDbPolygonMeshVertex@@@@@@QEBAPEBQEAVNcDbPolygonMeshVertex@@XZ
  ?asArrayPtr@?$HostArray@PEAVNcDbVertex@@V?$HostObjectsAllocator@PEAVNcDbVertex@@@@@@QEAAPEAPEAVNcDbVertex@@XZ
  ?asArrayPtr@?$HostArray@PEAVNcDbVertex@@V?$HostObjectsAllocator@PEAVNcDbVertex@@@@@@QEBAPEBQEAVNcDbVertex@@XZ
  ?asArrayPtr@?$HostArray@PEAVNcLyLayerFilter@@V?$HostObjectsAllocator@PEAVNcLyLayerFilter@@@@@@QEAAPEAPEAVNcLyLayerFilter@@XZ
  ?asArrayPtr@?$HostArray@PEAVNcLyLayerFilter@@V?$HostObjectsAllocator@PEAVNcLyLayerFilter@@@@@@QEBAPEBQEAVNcLyLayerFilter@@XZ
  ?asArrayPtr@?$HostArray@PEAVNcTransaction@@V?$HostObjectsAllocator@PEAVNcTransaction@@@@@@QEAAPEAPEAVNcTransaction@@XZ
  ?asArrayPtr@?$HostArray@PEAVNcTransaction@@V?$HostObjectsAllocator@PEAVNcTransaction@@@@@@QEBAPEBQEAVNcTransaction@@XZ
  ?asArrayPtr@?$HostArray@PEAVNsdkHlrData@@V?$HostObjectsAllocator@PEAVNsdkHlrData@@@@@@QEAAPEAPEAVNsdkHlrData@@XZ
  ?asArrayPtr@?$HostArray@PEAVNsdkHlrData@@V?$HostObjectsAllocator@PEAVNsdkHlrData@@@@@@QEBAPEBQEAVNsdkHlrData@@XZ
  ?asArrayPtr@?$HostArray@PEAVOdDbEntity@@V?$HostObjectsAllocator@PEAVOdDbEntity@@@@@@QEAAPEAPEAVOdDbEntity@@XZ
  ?asArrayPtr@?$HostArray@PEAVOdDbEntity@@V?$HostObjectsAllocator@PEAVOdDbEntity@@@@@@QEBAPEBQEAVOdDbEntity@@XZ
  ?asArrayPtr@?$HostArray@PEAXV?$HostMemoryAllocator@PEAX@@@@QEAAPEAPEAXXZ
  ?asArrayPtr@?$HostArray@PEAXV?$HostMemoryAllocator@PEAX@@@@QEBAPEBQEAXXZ
  ?asArrayPtr@?$HostArray@VMcGeVector2d@@V?$HostMemoryAllocator@VMcGeVector2d@@@@@@QEAAPEAVMcGeVector2d@@XZ
  ?asArrayPtr@?$HostArray@VMcGeVector2d@@V?$HostMemoryAllocator@VMcGeVector2d@@@@@@QEBAPEBVMcGeVector2d@@XZ
  ?asArrayPtr@?$HostArray@VNcDbEvalVariant@@V?$HostMemoryAllocator@VNcDbEvalVariant@@@@@@QEAAPEAVNcDbEvalVariant@@XZ
  ?asArrayPtr@?$HostArray@VNcDbEvalVariant@@V?$HostMemoryAllocator@VNcDbEvalVariant@@@@@@QEBAPEBVNcDbEvalVariant@@XZ
  ?asArrayPtr@?$HostArray@VNcDbFullSubentPath@@V?$HostObjectsAllocator@VNcDbFullSubentPath@@@@@@QEAAPEAVNcDbFullSubentPath@@XZ
  ?asArrayPtr@?$HostArray@VNcDbFullSubentPath@@V?$HostObjectsAllocator@VNcDbFullSubentPath@@@@@@QEBAPEBVNcDbFullSubentPath@@XZ
  ?asArrayPtr@?$HostArray@VNcDbObjectId@@V?$HostObjectsAllocator@VNcDbObjectId@@@@@@QEAAPEAVNcDbObjectId@@XZ
  ?asArrayPtr@?$HostArray@VNcDbObjectId@@V?$HostObjectsAllocator@VNcDbObjectId@@@@@@QEBAPEBVNcDbObjectId@@XZ
  ?asArrayPtr@?$HostArray@VNcGePoint2d@@V?$HostMemoryAllocator@VNcGePoint2d@@@@@@QEAAPEAVNcGePoint2d@@XZ
  ?asArrayPtr@?$HostArray@VNcGePoint2d@@V?$HostMemoryAllocator@VNcGePoint2d@@@@@@QEBAPEBVNcGePoint2d@@XZ
  ?asArrayPtr@?$HostArray@VNcGePoint3d@@V?$HostMemoryAllocator@VNcGePoint3d@@@@@@QEAAPEAVNcGePoint3d@@XZ
  ?asArrayPtr@?$HostArray@VNcGePoint3d@@V?$HostMemoryAllocator@VNcGePoint3d@@@@@@QEBAPEBVNcGePoint3d@@XZ
  ?asArrayPtr@?$HostArray@VNcGeVector3d@@V?$HostMemoryAllocator@VNcGeVector3d@@@@@@QEAAPEAVNcGeVector3d@@XZ
  ?asArrayPtr@?$HostArray@VNcGeVector3d@@V?$HostMemoryAllocator@VNcGeVector3d@@@@@@QEBAPEBVNcGeVector3d@@XZ
  ?asArrayPtr@?$HostArray@_JV?$HostMemoryAllocator@_J@@@@QEAAPEA_JXZ
  ?asArrayPtr@?$HostArray@_JV?$HostMemoryAllocator@_J@@@@QEBAPEB_JXZ
  ?asArrayPtr@?$NcArray@HV?$HostMemoryAllocator@H@@@@QEAAPEAHXZ
  ?asArrayPtr@?$NcArray@HV?$HostMemoryAllocator@H@@@@QEBAPEBHXZ
  ?asArrayPtr@?$NcArray@NV?$HostMemoryAllocator@N@@@@QEAAPEANXZ
  ?asArrayPtr@?$NcArray@NV?$HostMemoryAllocator@N@@@@QEBAPEBNXZ
  ?asArrayPtr@?$NcArray@PEAUHINSTANCE__@@V?$HostObjectsAllocator@PEAUHINSTANCE__@@@@@@QEAAPEAPEAUHINSTANCE__@@XZ
  ?asArrayPtr@?$NcArray@PEAUHINSTANCE__@@V?$HostObjectsAllocator@PEAUHINSTANCE__@@@@@@QEBAPEBQEAUHINSTANCE__@@XZ
  ?asArrayPtr@?$NcArray@PEAVNcDb2dVertex@@V?$HostObjectsAllocator@PEAVNcDb2dVertex@@@@@@QEAAPEAPEAVNcDb2dVertex@@XZ
  ?asArrayPtr@?$NcArray@PEAVNcDb2dVertex@@V?$HostObjectsAllocator@PEAVNcDb2dVertex@@@@@@QEBAPEBQEAVNcDb2dVertex@@XZ
  ?asArrayPtr@?$NcArray@PEAVNcDb3dPolylineVertex@@V?$HostObjectsAllocator@PEAVNcDb3dPolylineVertex@@@@@@QEAAPEAPEAVNcDb3dPolylineVertex@@XZ
  ?asArrayPtr@?$NcArray@PEAVNcDb3dPolylineVertex@@V?$HostObjectsAllocator@PEAVNcDb3dPolylineVertex@@@@@@QEBAPEBQEAVNcDb3dPolylineVertex@@XZ
  ?asArrayPtr@?$NcArray@PEAVNcDbDimData@@V?$HostMemoryAllocator@PEAVNcDbDimData@@@@@@QEAAPEAPEAVNcDbDimData@@XZ
  ?asArrayPtr@?$NcArray@PEAVNcDbDimData@@V?$HostMemoryAllocator@PEAVNcDbDimData@@@@@@QEBAPEBQEAVNcDbDimData@@XZ
  ?asArrayPtr@?$NcArray@PEAVNcDbEntity@@V?$HostObjectsAllocator@PEAVNcDbEntity@@@@@@QEAAPEAPEAVNcDbEntity@@XZ
  ?asArrayPtr@?$NcArray@PEAVNcDbEntity@@V?$HostObjectsAllocator@PEAVNcDbEntity@@@@@@QEBAPEBQEAVNcDbEntity@@XZ
  ?asArrayPtr@?$NcArray@PEAVNcDbGripData@@V?$HostMemoryAllocator@PEAVNcDbGripData@@@@@@QEAAPEAPEAVNcDbGripData@@XZ
  ?asArrayPtr@?$NcArray@PEAVNcDbGripData@@V?$HostMemoryAllocator@PEAVNcDbGripData@@@@@@QEBAPEBQEAVNcDbGripData@@XZ
  ?asArrayPtr@?$NcArray@PEAVNcDbNurbSurface@@V?$HostObjectsAllocator@PEAVNcDbNurbSurface@@@@@@QEAAPEAPEAVNcDbNurbSurface@@XZ
  ?asArrayPtr@?$NcArray@PEAVNcDbNurbSurface@@V?$HostObjectsAllocator@PEAVNcDbNurbSurface@@@@@@QEBAPEBQEAVNcDbNurbSurface@@XZ
  ?asArrayPtr@?$NcArray@PEAVNcDbPolygonMeshVertex@@V?$HostObjectsAllocator@PEAVNcDbPolygonMeshVertex@@@@@@QEAAPEAPEAVNcDbPolygonMeshVertex@@XZ
  ?asArrayPtr@?$NcArray@PEAVNcDbPolygonMeshVertex@@V?$HostObjectsAllocator@PEAVNcDbPolygonMeshVertex@@@@@@QEBAPEBQEAVNcDbPolygonMeshVertex@@XZ
  ?asArrayPtr@?$NcArray@PEAVNcDbVertex@@V?$HostObjectsAllocator@PEAVNcDbVertex@@@@@@QEAAPEAPEAVNcDbVertex@@XZ
  ?asArrayPtr@?$NcArray@PEAVNcDbVertex@@V?$HostObjectsAllocator@PEAVNcDbVertex@@@@@@QEBAPEBQEAVNcDbVertex@@XZ
  ?asArrayPtr@?$NcArray@PEAVNcLyLayerFilter@@V?$HostObjectsAllocator@PEAVNcLyLayerFilter@@@@@@QEAAPEAPEAVNcLyLayerFilter@@XZ
  ?asArrayPtr@?$NcArray@PEAVNcLyLayerFilter@@V?$HostObjectsAllocator@PEAVNcLyLayerFilter@@@@@@QEBAPEBQEAVNcLyLayerFilter@@XZ
  ?asArrayPtr@?$NcArray@PEAVNcTransaction@@V?$HostObjectsAllocator@PEAVNcTransaction@@@@@@QEAAPEAPEAVNcTransaction@@XZ
  ?asArrayPtr@?$NcArray@PEAVNcTransaction@@V?$HostObjectsAllocator@PEAVNcTransaction@@@@@@QEBAPEBQEAVNcTransaction@@XZ
  ?asArrayPtr@?$NcArray@PEAVNsdkHlrData@@V?$HostObjectsAllocator@PEAVNsdkHlrData@@@@@@QEAAPEAPEAVNsdkHlrData@@XZ
  ?asArrayPtr@?$NcArray@PEAVNsdkHlrData@@V?$HostObjectsAllocator@PEAVNsdkHlrData@@@@@@QEBAPEBQEAVNsdkHlrData@@XZ
  ?asArrayPtr@?$NcArray@PEAVOdDbEntity@@V?$HostObjectsAllocator@PEAVOdDbEntity@@@@@@QEAAPEAPEAVOdDbEntity@@XZ
  ?asArrayPtr@?$NcArray@PEAVOdDbEntity@@V?$HostObjectsAllocator@PEAVOdDbEntity@@@@@@QEBAPEBQEAVOdDbEntity@@XZ
  ?asArrayPtr@?$NcArray@PEAXV?$HostMemoryAllocator@PEAX@@@@QEAAPEAPEAXXZ
  ?asArrayPtr@?$NcArray@PEAXV?$HostMemoryAllocator@PEAX@@@@QEBAPEBQEAXXZ
  ?asArrayPtr@?$NcArray@VMcGeVector2d@@V?$HostMemoryAllocator@VMcGeVector2d@@@@@@QEAAPEAVMcGeVector2d@@XZ
  ?asArrayPtr@?$NcArray@VMcGeVector2d@@V?$HostMemoryAllocator@VMcGeVector2d@@@@@@QEBAPEBVMcGeVector2d@@XZ
  ?asArrayPtr@?$NcArray@VNcDbEvalVariant@@V?$HostMemoryAllocator@VNcDbEvalVariant@@@@@@QEAAPEAVNcDbEvalVariant@@XZ
  ?asArrayPtr@?$NcArray@VNcDbEvalVariant@@V?$HostMemoryAllocator@VNcDbEvalVariant@@@@@@QEBAPEBVNcDbEvalVariant@@XZ
  ?asArrayPtr@?$NcArray@VNcDbFullSubentPath@@V?$HostObjectsAllocator@VNcDbFullSubentPath@@@@@@QEAAPEAVNcDbFullSubentPath@@XZ
  ?asArrayPtr@?$NcArray@VNcDbFullSubentPath@@V?$HostObjectsAllocator@VNcDbFullSubentPath@@@@@@QEBAPEBVNcDbFullSubentPath@@XZ
  ?asArrayPtr@?$NcArray@VNcDbObjectId@@V?$HostObjectsAllocator@VNcDbObjectId@@@@@@QEAAPEAVNcDbObjectId@@XZ
  ?asArrayPtr@?$NcArray@VNcDbObjectId@@V?$HostObjectsAllocator@VNcDbObjectId@@@@@@QEBAPEBVNcDbObjectId@@XZ
  ?asArrayPtr@?$NcArray@VNcGePoint2d@@V?$HostMemoryAllocator@VNcGePoint2d@@@@@@QEAAPEAVNcGePoint2d@@XZ
  ?asArrayPtr@?$NcArray@VNcGePoint2d@@V?$HostMemoryAllocator@VNcGePoint2d@@@@@@QEBAPEBVNcGePoint2d@@XZ
  ?asArrayPtr@?$NcArray@VNcGePoint3d@@V?$HostMemoryAllocator@VNcGePoint3d@@@@@@QEAAPEAVNcGePoint3d@@XZ
  ?asArrayPtr@?$NcArray@VNcGePoint3d@@V?$HostMemoryAllocator@VNcGePoint3d@@@@@@QEBAPEBVNcGePoint3d@@XZ
  ?asArrayPtr@?$NcArray@VNcGeVector3d@@V?$HostMemoryAllocator@VNcGeVector3d@@@@@@QEAAPEAVNcGeVector3d@@XZ
  ?asArrayPtr@?$NcArray@VNcGeVector3d@@V?$HostMemoryAllocator@VNcGeVector3d@@@@@@QEBAPEBVNcGeVector3d@@XZ
  ?asArrayPtr@?$NcArray@_JV?$HostMemoryAllocator@_J@@@@QEAAPEA_JXZ
  ?asArrayPtr@?$NcArray@_JV?$HostMemoryAllocator@_J@@@@QEBAPEB_JXZ
  ?asArrayPtr@NcGeKnotVector@@QEAAPEANXZ
  ?asArrayPtr@NcGeKnotVector@@QEBAPEBNXZ
  ?asBgrColor@RgbColor10@Ntil@@QEBA?AURgbColor@2@W4ChannelOrder@DataModelAttributes@2@@Z
  ?asBgrColor@RgbColor16f@Ntil@@QEBA?AURgbColor@2@W4ChannelOrder@DataModelAttributes@2@@Z
  ?asBgrColor@RgbColor16i@Ntil@@QEBA?AURgbColor@2@W4ChannelOrder@DataModelAttributes@2@@Z
  ?asBgrColor@RgbColor32f@Ntil@@QEBA?AURgbColor@2@W4ChannelOrder@DataModelAttributes@2@@Z
  ?asBgrColor@RgbColor5b@Ntil@@QEBA?AURgbColor@2@W4BitFields@DataModelAttributes@2@W4ChannelOrder@52@@Z
  ?asBoolean@NcGiVariant@@QEBA_NXZ
  ?asChar@NcGiVariant@@QEBADXZ
  ?asColor@NcGiVariant@@QEBA?AVNcCmColor@@XZ
  ?asDblArray@@YAPEANAEBVMcGeVector2d@@@Z
  ?asDblArray@@YAPEANAEBVNcGePoint2d@@@Z
  ?asDblArray@@YAPEANAEBVNcGePoint3d@@@Z
  ?asDblArray@@YAPEANAEBVNcGeVector3d@@@Z
  ?asDeci64@NcString@@QEBA_JH@Z
  ?asDeci@NcString@@QEBAHH@Z
  ?asDouble@NcGiVariant@@QEBANXZ
  ?asEnum@NcGiVariant@@QEBA?AVEnumType@1@XZ
  ?asFloat@NcGiVariant@@QEBAMXZ
  ?asGray@RgbColor10@Ntil@@QEBAGW4ChannelOrder@DataModelAttributes@2@@Z
  ?asGray@RgbColor16f@Ntil@@QEBA?AVhalf@2@W4ChannelOrder@DataModelAttributes@2@@Z
  ?asGray@RgbColor16i@Ntil@@QEBAGW4ChannelOrder@DataModelAttributes@2@@Z
  ?asGray@RgbColor32f@Ntil@@QEBAMW4ChannelOrder@DataModelAttributes@2@@Z
  ?asGray@RgbColor5b@Ntil@@QEBAEW4BitFields@DataModelAttributes@2@W4ChannelOrder@42@@Z
  ?asGray@RgbColor@Ntil@@QEBAEW4ChannelOrder@DataModelAttributes@2@@Z
  ?asHex64@NcString@@QEBA_JH@Z
  ?asHex@NcString@@QEBAHH@Z
  ?asInt@NcGiVariant@@QEBAHXZ
  ?asLong@NcGiVariant@@QEBAJXZ
  ?asNcDbHandle@NcString@@QEBA?AVNcDbHandle@@H@Z
  ?asOldId@NcDbObjectId@@QEBA_JXZ
  ?asPnt2d@@YAAEAVNcGePoint2d@@PEBN@Z
  ?asPnt3d@@YAAEAVNcGePoint3d@@PEBN@Z
  ?asPointCloudFrustum@NcViewFrustum@@QEBAPEAVNcPointCloudViewFrustum@@XZ
  ?asRgbColor@RgbColor10@Ntil@@QEBA?AURgbColor@2@W4ChannelOrder@DataModelAttributes@2@@Z
  ?asRgbColor@RgbColor16f@Ntil@@QEBA?AURgbColor@2@W4ChannelOrder@DataModelAttributes@2@@Z
  ?asRgbColor@RgbColor16i@Ntil@@QEBA?AURgbColor@2@W4ChannelOrder@DataModelAttributes@2@@Z
  ?asRgbColor@RgbColor32f@Ntil@@QEBA?AURgbColor@2@W4ChannelOrder@DataModelAttributes@2@@Z
  ?asRgbColor@RgbColor5b@Ntil@@QEBA?AURgbColor@2@W4BitFields@DataModelAttributes@2@W4ChannelOrder@52@@Z
  ?asSafeArrayPtr@NcAxPoint2d@@QEBAPEAUtagSAFEARRAY@@XZ
  ?asSafeArrayPtr@NcAxPoint3d@@QEBAPEAUtagSAFEARRAY@@XZ
  ?asShort@NcGiVariant@@QEBAFXZ
  ?asUDeci64@NcString@@QEBA_KH@Z
  ?asUDeci@NcString@@QEBAIH@Z
  ?asUHex64@NcString@@QEBA_KH@Z
  ?asUHex@NcString@@QEBAIH@Z
  ?asUchar@NcGiVariant@@QEBAEXZ
  ?asUint@NcGiVariant@@QEBAIXZ
  ?asUlong@NcGiVariant@@QEBAKXZ
  ?asUshort@NcGiVariant@@QEBAGXZ
  ?asVariantPtr@NcAxPoint2d@@QEBAPEAUtagVARIANT@@XZ
  ?asVariantPtr@NcAxPoint3d@@QEBAPEAUtagVARIANT@@XZ
  ?asVec2d@@YAAEAVMcGeVector2d@@PEBN@Z
  ?asVec3d@@YAAEAVNcGeVector3d@@PEBN@Z
  ?asVector@NcGePoint3d@@QEBA?AVNcGeVector3d@@XZ
  ?ascent@NcDbMText@@QEBANXZ
  ?asciiDescription@NcDbLinetypeTableRecord@@QEBA?AW4ErrorStatus@Nano@@AEAPEA_W@Z
  ?asciiDescription@NcDbLinetypeTableRecord@@QEBA?AW4ErrorStatus@Nano@@AEAPEB_W@Z
  ?asmBody@NcDbFaceRef@@QEBAPEAVBODY@@XZ
  ?assertNotifyEnabled@NcDbObject@@QEBAXXZ
  ?assertReadEnabled@NcDbObject@@QEBAXXZ
  ?assertValid@?$HostArray@HV?$HostMemoryAllocator@H@@@@AEBAXI@Z
  ?assertValid@?$HostArray@NV?$HostMemoryAllocator@N@@@@AEBAXI@Z
  ?assertValid@?$HostArray@PEAUHINSTANCE__@@V?$HostObjectsAllocator@PEAUHINSTANCE__@@@@@@AEBAXI@Z
  ?assertValid@?$HostArray@PEAVNcDb2dVertex@@V?$HostObjectsAllocator@PEAVNcDb2dVertex@@@@@@AEBAXI@Z
  ?assertValid@?$HostArray@PEAVNcDb3dPolylineVertex@@V?$HostObjectsAllocator@PEAVNcDb3dPolylineVertex@@@@@@AEBAXI@Z
  ?assertValid@?$HostArray@PEAVNcDbDimData@@V?$HostMemoryAllocator@PEAVNcDbDimData@@@@@@AEBAXI@Z
  ?assertValid@?$HostArray@PEAVNcDbEntity@@V?$HostObjectsAllocator@PEAVNcDbEntity@@@@@@AEBAXI@Z
  ?assertValid@?$HostArray@PEAVNcDbGripData@@V?$HostMemoryAllocator@PEAVNcDbGripData@@@@@@AEBAXI@Z
  ?assertValid@?$HostArray@PEAVNcDbNurbSurface@@V?$HostObjectsAllocator@PEAVNcDbNurbSurface@@@@@@AEBAXI@Z
  ?assertValid@?$HostArray@PEAVNcDbPolygonMeshVertex@@V?$HostObjectsAllocator@PEAVNcDbPolygonMeshVertex@@@@@@AEBAXI@Z
  ?assertValid@?$HostArray@PEAVNcDbVertex@@V?$HostObjectsAllocator@PEAVNcDbVertex@@@@@@AEBAXI@Z
  ?assertValid@?$HostArray@PEAVNcLyLayerFilter@@V?$HostObjectsAllocator@PEAVNcLyLayerFilter@@@@@@AEBAXI@Z
  ?assertValid@?$HostArray@PEAVNcTransaction@@V?$HostObjectsAllocator@PEAVNcTransaction@@@@@@AEBAXI@Z
  ?assertValid@?$HostArray@PEAVNsdkHlrData@@V?$HostObjectsAllocator@PEAVNsdkHlrData@@@@@@AEBAXI@Z
  ?assertValid@?$HostArray@PEAVOdDbEntity@@V?$HostObjectsAllocator@PEAVOdDbEntity@@@@@@AEBAXI@Z
  ?assertValid@?$HostArray@PEAXV?$HostMemoryAllocator@PEAX@@@@AEBAXI@Z
  ?assertValid@?$HostArray@VMcGeVector2d@@V?$HostMemoryAllocator@VMcGeVector2d@@@@@@AEBAXI@Z
  ?assertValid@?$HostArray@VNcDbEvalVariant@@V?$HostMemoryAllocator@VNcDbEvalVariant@@@@@@AEBAXI@Z
  ?assertValid@?$HostArray@VNcDbFullSubentPath@@V?$HostObjectsAllocator@VNcDbFullSubentPath@@@@@@AEBAXI@Z
  ?assertValid@?$HostArray@VNcDbObjectId@@V?$HostObjectsAllocator@VNcDbObjectId@@@@@@AEBAXI@Z
  ?assertValid@?$HostArray@VNcGePoint2d@@V?$HostMemoryAllocator@VNcGePoint2d@@@@@@AEBAXI@Z
  ?assertValid@?$HostArray@VNcGePoint3d@@V?$HostMemoryAllocator@VNcGePoint3d@@@@@@AEBAXI@Z
  ?assertValid@?$HostArray@VNcGeVector3d@@V?$HostMemoryAllocator@VNcGeVector3d@@@@@@AEBAXI@Z
  ?assertValid@?$HostArray@_JV?$HostMemoryAllocator@_J@@@@AEBAXI@Z
  ?assertWriteEnabled@NcDbObject@@QEAAXHH@Z
  ?assign@?$HostArray@HV?$HostMemoryAllocator@H@@@@QEAAXPEBH0@Z
  ?assign@?$HostArray@NV?$HostMemoryAllocator@N@@@@QEAAXPEBN0@Z
  ?assign@?$HostArray@PEAUHINSTANCE__@@V?$HostObjectsAllocator@PEAUHINSTANCE__@@@@@@QEAAXPEBQEAUHINSTANCE__@@0@Z
  ?assign@?$HostArray@PEAVNcDb2dVertex@@V?$HostObjectsAllocator@PEAVNcDb2dVertex@@@@@@QEAAXPEBQEAVNcDb2dVertex@@0@Z
  ?assign@?$HostArray@PEAVNcDb3dPolylineVertex@@V?$HostObjectsAllocator@PEAVNcDb3dPolylineVertex@@@@@@QEAAXPEBQEAVNcDb3dPolylineVertex@@0@Z
  ?assign@?$HostArray@PEAVNcDbDimData@@V?$HostMemoryAllocator@PEAVNcDbDimData@@@@@@QEAAXPEBQEAVNcDbDimData@@0@Z
  ?assign@?$HostArray@PEAVNcDbEntity@@V?$HostObjectsAllocator@PEAVNcDbEntity@@@@@@QEAAXPEBQEAVNcDbEntity@@0@Z
  ?assign@?$HostArray@PEAVNcDbGripData@@V?$HostMemoryAllocator@PEAVNcDbGripData@@@@@@QEAAXPEBQEAVNcDbGripData@@0@Z
  ?assign@?$HostArray@PEAVNcDbNurbSurface@@V?$HostObjectsAllocator@PEAVNcDbNurbSurface@@@@@@QEAAXPEBQEAVNcDbNurbSurface@@0@Z
  ?assign@?$HostArray@PEAVNcDbPolygonMeshVertex@@V?$HostObjectsAllocator@PEAVNcDbPolygonMeshVertex@@@@@@QEAAXPEBQEAVNcDbPolygonMeshVertex@@0@Z
  ?assign@?$HostArray@PEAVNcDbVertex@@V?$HostObjectsAllocator@PEAVNcDbVertex@@@@@@QEAAXPEBQEAVNcDbVertex@@0@Z
  ?assign@?$HostArray@PEAVNcLyLayerFilter@@V?$HostObjectsAllocator@PEAVNcLyLayerFilter@@@@@@QEAAXPEBQEAVNcLyLayerFilter@@0@Z
  ?assign@?$HostArray@PEAVNcTransaction@@V?$HostObjectsAllocator@PEAVNcTransaction@@@@@@QEAAXPEBQEAVNcTransaction@@0@Z
  ?assign@?$HostArray@PEAVNsdkHlrData@@V?$HostObjectsAllocator@PEAVNsdkHlrData@@@@@@QEAAXPEBQEAVNsdkHlrData@@0@Z
  ?assign@?$HostArray@PEAVOdDbEntity@@V?$HostObjectsAllocator@PEAVOdDbEntity@@@@@@QEAAXPEBQEAVOdDbEntity@@0@Z
  ?assign@?$HostArray@PEAXV?$HostMemoryAllocator@PEAX@@@@QEAAXPEBQEAX0@Z
  ?assign@?$HostArray@VMcGeVector2d@@V?$HostMemoryAllocator@VMcGeVector2d@@@@@@QEAAXPEBVMcGeVector2d@@0@Z
  ?assign@?$HostArray@VNcDbEvalVariant@@V?$HostMemoryAllocator@VNcDbEvalVariant@@@@@@QEAAXPEBVNcDbEvalVariant@@0@Z
  ?assign@?$HostArray@VNcDbFullSubentPath@@V?$HostObjectsAllocator@VNcDbFullSubentPath@@@@@@QEAAXPEBVNcDbFullSubentPath@@0@Z
  ?assign@?$HostArray@VNcDbObjectId@@V?$HostObjectsAllocator@VNcDbObjectId@@@@@@QEAAXPEBVNcDbObjectId@@0@Z
  ?assign@?$HostArray@VNcGePoint2d@@V?$HostMemoryAllocator@VNcGePoint2d@@@@@@QEAAXPEBVNcGePoint2d@@0@Z
  ?assign@?$HostArray@VNcGePoint3d@@V?$HostMemoryAllocator@VNcGePoint3d@@@@@@QEAAXPEBVNcGePoint3d@@0@Z
  ?assign@?$HostArray@VNcGeVector3d@@V?$HostMemoryAllocator@VNcGeVector3d@@@@@@QEAAXPEBVNcGeVector3d@@0@Z
  ?assign@?$HostArray@_JV?$HostMemoryAllocator@_J@@@@QEAAXPEB_J0@Z
  ?assign@NcDbIdMapping@@UEAA?AW4ErrorStatus@Nano@@AEBVNcDbIdPair@@@Z
  ?assign@NcRxObjectPtr@@AEAAXPEBVOdRxObject@@@Z
  ?assign@NcString@@QEAAAEAV1@AEBV1@@Z
  ?assign@NcString@@QEAAAEAV1@AEBVNcDbHandle@@@Z
  ?assign@NcString@@QEAAAEAV1@D@Z
  ?assign@NcString@@QEAAAEAV1@PEBD@Z
  ?assign@NcString@@QEAAAEAV1@PEB_W@Z
  ?assign@NcString@@QEAAAEAV1@_W@Z
  ?assignMove@?$HostArray@HV?$HostMemoryAllocator@H@@@@QEAAXPEAH0@Z
  ?assignMove@?$HostArray@NV?$HostMemoryAllocator@N@@@@QEAAXPEAN0@Z
  ?assignMove@?$HostArray@PEAUHINSTANCE__@@V?$HostObjectsAllocator@PEAUHINSTANCE__@@@@@@QEAAXPEAPEAUHINSTANCE__@@0@Z
  ?assignMove@?$HostArray@PEAVNcDb2dVertex@@V?$HostObjectsAllocator@PEAVNcDb2dVertex@@@@@@QEAAXPEAPEAVNcDb2dVertex@@0@Z
  ?assignMove@?$HostArray@PEAVNcDb3dPolylineVertex@@V?$HostObjectsAllocator@PEAVNcDb3dPolylineVertex@@@@@@QEAAXPEAPEAVNcDb3dPolylineVertex@@0@Z
  ?assignMove@?$HostArray@PEAVNcDbDimData@@V?$HostMemoryAllocator@PEAVNcDbDimData@@@@@@QEAAXPEAPEAVNcDbDimData@@0@Z
  ?assignMove@?$HostArray@PEAVNcDbEntity@@V?$HostObjectsAllocator@PEAVNcDbEntity@@@@@@QEAAXPEAPEAVNcDbEntity@@0@Z
  ?assignMove@?$HostArray@PEAVNcDbGripData@@V?$HostMemoryAllocator@PEAVNcDbGripData@@@@@@QEAAXPEAPEAVNcDbGripData@@0@Z
  ?assignMove@?$HostArray@PEAVNcDbNurbSurface@@V?$HostObjectsAllocator@PEAVNcDbNurbSurface@@@@@@QEAAXPEAPEAVNcDbNurbSurface@@0@Z
  ?assignMove@?$HostArray@PEAVNcDbPolygonMeshVertex@@V?$HostObjectsAllocator@PEAVNcDbPolygonMeshVertex@@@@@@QEAAXPEAPEAVNcDbPolygonMeshVertex@@0@Z
  ?assignMove@?$HostArray@PEAVNcDbVertex@@V?$HostObjectsAllocator@PEAVNcDbVertex@@@@@@QEAAXPEAPEAVNcDbVertex@@0@Z
  ?assignMove@?$HostArray@PEAVNcLyLayerFilter@@V?$HostObjectsAllocator@PEAVNcLyLayerFilter@@@@@@QEAAXPEAPEAVNcLyLayerFilter@@0@Z
  ?assignMove@?$HostArray@PEAVNcTransaction@@V?$HostObjectsAllocator@PEAVNcTransaction@@@@@@QEAAXPEAPEAVNcTransaction@@0@Z
  ?assignMove@?$HostArray@PEAVNsdkHlrData@@V?$HostObjectsAllocator@PEAVNsdkHlrData@@@@@@QEAAXPEAPEAVNsdkHlrData@@0@Z
  ?assignMove@?$HostArray@PEAVOdDbEntity@@V?$HostObjectsAllocator@PEAVOdDbEntity@@@@@@QEAAXPEAPEAVOdDbEntity@@0@Z
  ?assignMove@?$HostArray@PEAXV?$HostMemoryAllocator@PEAX@@@@QEAAXPEAPEAX0@Z
  ?assignMove@?$HostArray@VMcGeVector2d@@V?$HostMemoryAllocator@VMcGeVector2d@@@@@@QEAAXPEAVMcGeVector2d@@0@Z
  ?assignMove@?$HostArray@VNcDbEvalVariant@@V?$HostMemoryAllocator@VNcDbEvalVariant@@@@@@QEAAXPEAVNcDbEvalVariant@@0@Z
  ?assignMove@?$HostArray@VNcDbFullSubentPath@@V?$HostObjectsAllocator@VNcDbFullSubentPath@@@@@@QEAAXPEAVNcDbFullSubentPath@@0@Z
  ?assignMove@?$HostArray@VNcDbObjectId@@V?$HostObjectsAllocator@VNcDbObjectId@@@@@@QEAAXPEAVNcDbObjectId@@0@Z
  ?assignMove@?$HostArray@VNcGePoint2d@@V?$HostMemoryAllocator@VNcGePoint2d@@@@@@QEAAXPEAVNcGePoint2d@@0@Z
  ?assignMove@?$HostArray@VNcGePoint3d@@V?$HostMemoryAllocator@VNcGePoint3d@@@@@@QEAAXPEAVNcGePoint3d@@0@Z
  ?assignMove@?$HostArray@VNcGeVector3d@@V?$HostMemoryAllocator@VNcGeVector3d@@@@@@QEAAXPEAVNcGeVector3d@@0@Z
  ?assignMove@?$HostArray@_JV?$HostMemoryAllocator@_J@@@@QEAAXPEA_J0@Z
  ?assocFlag@NcDbDimAssoc@@QEAAHXZ
  ?assocFlag@NcDbDimAssoc@@QEBA_NH@Z
  ?associatedTo@FormatCodecAssociation@Ntil@@UEBAHXZ
  ?associative@NcDbHatch@@QEBA_NXZ
  ?assumeOwnershipOf@NcDbBlockTableRecord@@UEAA?AW4ErrorStatus@Nano@@AEAV?$NcArray@VNcDbObjectId@@V?$HostObjectsAllocator@VNcDbObjectId@@@@@@@Z
  ?at@?$HostArray@HV?$HostMemoryAllocator@H@@@@QEAAAEAHI@Z
  ?at@?$HostArray@HV?$HostMemoryAllocator@H@@@@QEBAAEBHI@Z
  ?at@?$HostArray@NV?$HostMemoryAllocator@N@@@@QEAAAEANI@Z
  ?at@?$HostArray@NV?$HostMemoryAllocator@N@@@@QEBAAEBNI@Z
  ?at@?$HostArray@PEAUHINSTANCE__@@V?$HostObjectsAllocator@PEAUHINSTANCE__@@@@@@QEAAAEAPEAUHINSTANCE__@@I@Z
  ?at@?$HostArray@PEAUHINSTANCE__@@V?$HostObjectsAllocator@PEAUHINSTANCE__@@@@@@QEBAAEBQEAUHINSTANCE__@@I@Z
  ?at@?$HostArray@PEAVNcDb2dVertex@@V?$HostObjectsAllocator@PEAVNcDb2dVertex@@@@@@QEAAAEAPEAVNcDb2dVertex@@I@Z
  ?at@?$HostArray@PEAVNcDb2dVertex@@V?$HostObjectsAllocator@PEAVNcDb2dVertex@@@@@@QEBAAEBQEAVNcDb2dVertex@@I@Z
  ?at@?$HostArray@PEAVNcDb3dPolylineVertex@@V?$HostObjectsAllocator@PEAVNcDb3dPolylineVertex@@@@@@QEAAAEAPEAVNcDb3dPolylineVertex@@I@Z
  ?at@?$HostArray@PEAVNcDb3dPolylineVertex@@V?$HostObjectsAllocator@PEAVNcDb3dPolylineVertex@@@@@@QEBAAEBQEAVNcDb3dPolylineVertex@@I@Z
  ?at@?$HostArray@PEAVNcDbDimData@@V?$HostMemoryAllocator@PEAVNcDbDimData@@@@@@QEAAAEAPEAVNcDbDimData@@I@Z
  ?at@?$HostArray@PEAVNcDbDimData@@V?$HostMemoryAllocator@PEAVNcDbDimData@@@@@@QEBAAEBQEAVNcDbDimData@@I@Z
  ?at@?$HostArray@PEAVNcDbEntity@@V?$HostObjectsAllocator@PEAVNcDbEntity@@@@@@QEAAAEAPEAVNcDbEntity@@I@Z
  ?at@?$HostArray@PEAVNcDbEntity@@V?$HostObjectsAllocator@PEAVNcDbEntity@@@@@@QEBAAEBQEAVNcDbEntity@@I@Z
  ?at@?$HostArray@PEAVNcDbGripData@@V?$HostMemoryAllocator@PEAVNcDbGripData@@@@@@QEAAAEAPEAVNcDbGripData@@I@Z
  ?at@?$HostArray@PEAVNcDbGripData@@V?$HostMemoryAllocator@PEAVNcDbGripData@@@@@@QEBAAEBQEAVNcDbGripData@@I@Z
  ?at@?$HostArray@PEAVNcDbNurbSurface@@V?$HostObjectsAllocator@PEAVNcDbNurbSurface@@@@@@QEAAAEAPEAVNcDbNurbSurface@@I@Z
  ?at@?$HostArray@PEAVNcDbNurbSurface@@V?$HostObjectsAllocator@PEAVNcDbNurbSurface@@@@@@QEBAAEBQEAVNcDbNurbSurface@@I@Z
  ?at@?$HostArray@PEAVNcDbPolygonMeshVertex@@V?$HostObjectsAllocator@PEAVNcDbPolygonMeshVertex@@@@@@QEAAAEAPEAVNcDbPolygonMeshVertex@@I@Z
  ?at@?$HostArray@PEAVNcDbPolygonMeshVertex@@V?$HostObjectsAllocator@PEAVNcDbPolygonMeshVertex@@@@@@QEBAAEBQEAVNcDbPolygonMeshVertex@@I@Z
  ?at@?$HostArray@PEAVNcDbVertex@@V?$HostObjectsAllocator@PEAVNcDbVertex@@@@@@QEAAAEAPEAVNcDbVertex@@I@Z
  ?at@?$HostArray@PEAVNcDbVertex@@V?$HostObjectsAllocator@PEAVNcDbVertex@@@@@@QEBAAEBQEAVNcDbVertex@@I@Z
  ?at@?$HostArray@PEAVNcLyLayerFilter@@V?$HostObjectsAllocator@PEAVNcLyLayerFilter@@@@@@QEAAAEAPEAVNcLyLayerFilter@@I@Z
  ?at@?$HostArray@PEAVNcLyLayerFilter@@V?$HostObjectsAllocator@PEAVNcLyLayerFilter@@@@@@QEBAAEBQEAVNcLyLayerFilter@@I@Z
  ?at@?$HostArray@PEAVNcTransaction@@V?$HostObjectsAllocator@PEAVNcTransaction@@@@@@QEAAAEAPEAVNcTransaction@@I@Z
  ?at@?$HostArray@PEAVNcTransaction@@V?$HostObjectsAllocator@PEAVNcTransaction@@@@@@QEBAAEBQEAVNcTransaction@@I@Z
  ?at@?$HostArray@PEAVNsdkHlrData@@V?$HostObjectsAllocator@PEAVNsdkHlrData@@@@@@QEAAAEAPEAVNsdkHlrData@@I@Z
  ?at@?$HostArray@PEAVNsdkHlrData@@V?$HostObjectsAllocator@PEAVNsdkHlrData@@@@@@QEBAAEBQEAVNsdkHlrData@@I@Z
  ?at@?$HostArray@PEAVOdDbEntity@@V?$HostObjectsAllocator@PEAVOdDbEntity@@@@@@QEAAAEAPEAVOdDbEntity@@I@Z
  ?at@?$HostArray@PEAVOdDbEntity@@V?$HostObjectsAllocator@PEAVOdDbEntity@@@@@@QEBAAEBQEAVOdDbEntity@@I@Z
  ?at@?$HostArray@PEAXV?$HostMemoryAllocator@PEAX@@@@QEAAAEAPEAXI@Z
  ?at@?$HostArray@PEAXV?$HostMemoryAllocator@PEAX@@@@QEBAAEBQEAXI@Z
  ?at@?$HostArray@VMcGeVector2d@@V?$HostMemoryAllocator@VMcGeVector2d@@@@@@QEAAAEAVMcGeVector2d@@I@Z
  ?at@?$HostArray@VMcGeVector2d@@V?$HostMemoryAllocator@VMcGeVector2d@@@@@@QEBAAEBVMcGeVector2d@@I@Z
  ?at@?$HostArray@VNcDbEvalVariant@@V?$HostMemoryAllocator@VNcDbEvalVariant@@@@@@QEAAAEAVNcDbEvalVariant@@I@Z
  ?at@?$HostArray@VNcDbEvalVariant@@V?$HostMemoryAllocator@VNcDbEvalVariant@@@@@@QEBAAEBVNcDbEvalVariant@@I@Z
  ?at@?$HostArray@VNcDbFullSubentPath@@V?$HostObjectsAllocator@VNcDbFullSubentPath@@@@@@QEAAAEAVNcDbFullSubentPath@@I@Z
  ?at@?$HostArray@VNcDbFullSubentPath@@V?$HostObjectsAllocator@VNcDbFullSubentPath@@@@@@QEBAAEBVNcDbFullSubentPath@@I@Z
  ?at@?$HostArray@VNcDbObjectId@@V?$HostObjectsAllocator@VNcDbObjectId@@@@@@QEAAAEAVNcDbObjectId@@I@Z
  ?at@?$HostArray@VNcDbObjectId@@V?$HostObjectsAllocator@VNcDbObjectId@@@@@@QEBAAEBVNcDbObjectId@@I@Z
  ?at@?$HostArray@VNcGePoint2d@@V?$HostMemoryAllocator@VNcGePoint2d@@@@@@QEAAAEAVNcGePoint2d@@I@Z
  ?at@?$HostArray@VNcGePoint2d@@V?$HostMemoryAllocator@VNcGePoint2d@@@@@@QEBAAEBVNcGePoint2d@@I@Z
  ?at@?$HostArray@VNcGePoint3d@@V?$HostMemoryAllocator@VNcGePoint3d@@@@@@QEAAAEAVNcGePoint3d@@I@Z
  ?at@?$HostArray@VNcGePoint3d@@V?$HostMemoryAllocator@VNcGePoint3d@@@@@@QEBAAEBVNcGePoint3d@@I@Z
  ?at@?$HostArray@VNcGeVector3d@@V?$HostMemoryAllocator@VNcGeVector3d@@@@@@QEAAAEAVNcGeVector3d@@I@Z
  ?at@?$HostArray@VNcGeVector3d@@V?$HostMemoryAllocator@VNcGeVector3d@@@@@@QEBAAEBVNcGeVector3d@@I@Z
  ?at@?$HostArray@_JV?$HostMemoryAllocator@_J@@@@QEAAAEA_JI@Z
  ?at@?$HostArray@_JV?$HostMemoryAllocator@_J@@@@QEBAAEB_JI@Z
  ?at@?$NcArray@HV?$HostMemoryAllocator@H@@@@QEAAAEAHH@Z
  ?at@?$NcArray@HV?$HostMemoryAllocator@H@@@@QEBAAEBHH@Z
  ?at@?$NcArray@NV?$HostMemoryAllocator@N@@@@QEAAAEANH@Z
  ?at@?$NcArray@NV?$HostMemoryAllocator@N@@@@QEBAAEBNH@Z
  ?at@?$NcArray@PEAUHINSTANCE__@@V?$HostObjectsAllocator@PEAUHINSTANCE__@@@@@@QEAAAEAPEAUHINSTANCE__@@H@Z
  ?at@?$NcArray@PEAUHINSTANCE__@@V?$HostObjectsAllocator@PEAUHINSTANCE__@@@@@@QEBAAEBQEAUHINSTANCE__@@H@Z
  ?at@?$NcArray@PEAVNcDb2dVertex@@V?$HostObjectsAllocator@PEAVNcDb2dVertex@@@@@@QEAAAEAPEAVNcDb2dVertex@@H@Z
  ?at@?$NcArray@PEAVNcDb2dVertex@@V?$HostObjectsAllocator@PEAVNcDb2dVertex@@@@@@QEBAAEBQEAVNcDb2dVertex@@H@Z
  ?at@?$NcArray@PEAVNcDb3dPolylineVertex@@V?$HostObjectsAllocator@PEAVNcDb3dPolylineVertex@@@@@@QEAAAEAPEAVNcDb3dPolylineVertex@@H@Z
  ?at@?$NcArray@PEAVNcDb3dPolylineVertex@@V?$HostObjectsAllocator@PEAVNcDb3dPolylineVertex@@@@@@QEBAAEBQEAVNcDb3dPolylineVertex@@H@Z
  ?at@?$NcArray@PEAVNcDbDimData@@V?$HostMemoryAllocator@PEAVNcDbDimData@@@@@@QEAAAEAPEAVNcDbDimData@@H@Z
  ?at@?$NcArray@PEAVNcDbDimData@@V?$HostMemoryAllocator@PEAVNcDbDimData@@@@@@QEBAAEBQEAVNcDbDimData@@H@Z
  ?at@?$NcArray@PEAVNcDbEntity@@V?$HostObjectsAllocator@PEAVNcDbEntity@@@@@@QEAAAEAPEAVNcDbEntity@@H@Z
  ?at@?$NcArray@PEAVNcDbEntity@@V?$HostObjectsAllocator@PEAVNcDbEntity@@@@@@QEBAAEBQEAVNcDbEntity@@H@Z
  ?at@?$NcArray@PEAVNcDbGripData@@V?$HostMemoryAllocator@PEAVNcDbGripData@@@@@@QEAAAEAPEAVNcDbGripData@@H@Z
  ?at@?$NcArray@PEAVNcDbGripData@@V?$HostMemoryAllocator@PEAVNcDbGripData@@@@@@QEBAAEBQEAVNcDbGripData@@H@Z
  ?at@?$NcArray@PEAVNcDbNurbSurface@@V?$HostObjectsAllocator@PEAVNcDbNurbSurface@@@@@@QEAAAEAPEAVNcDbNurbSurface@@H@Z
  ?at@?$NcArray@PEAVNcDbNurbSurface@@V?$HostObjectsAllocator@PEAVNcDbNurbSurface@@@@@@QEBAAEBQEAVNcDbNurbSurface@@H@Z
  ?at@?$NcArray@PEAVNcDbPolygonMeshVertex@@V?$HostObjectsAllocator@PEAVNcDbPolygonMeshVertex@@@@@@QEAAAEAPEAVNcDbPolygonMeshVertex@@H@Z
  ?at@?$NcArray@PEAVNcDbPolygonMeshVertex@@V?$HostObjectsAllocator@PEAVNcDbPolygonMeshVertex@@@@@@QEBAAEBQEAVNcDbPolygonMeshVertex@@H@Z
  ?at@?$NcArray@PEAVNcDbVertex@@V?$HostObjectsAllocator@PEAVNcDbVertex@@@@@@QEAAAEAPEAVNcDbVertex@@H@Z
  ?at@?$NcArray@PEAVNcDbVertex@@V?$HostObjectsAllocator@PEAVNcDbVertex@@@@@@QEBAAEBQEAVNcDbVertex@@H@Z
  ?at@?$NcArray@PEAVNcLyLayerFilter@@V?$HostObjectsAllocator@PEAVNcLyLayerFilter@@@@@@QEAAAEAPEAVNcLyLayerFilter@@H@Z
  ?at@?$NcArray@PEAVNcLyLayerFilter@@V?$HostObjectsAllocator@PEAVNcLyLayerFilter@@@@@@QEBAAEBQEAVNcLyLayerFilter@@H@Z
  ?at@?$NcArray@PEAVNcTransaction@@V?$HostObjectsAllocator@PEAVNcTransaction@@@@@@QEAAAEAPEAVNcTransaction@@H@Z
  ?at@?$NcArray@PEAVNcTransaction@@V?$HostObjectsAllocator@PEAVNcTransaction@@@@@@QEBAAEBQEAVNcTransaction@@H@Z
  ?at@?$NcArray@PEAVNsdkHlrData@@V?$HostObjectsAllocator@PEAVNsdkHlrData@@@@@@QEAAAEAPEAVNsdkHlrData@@H@Z
  ?at@?$NcArray@PEAVNsdkHlrData@@V?$HostObjectsAllocator@PEAVNsdkHlrData@@@@@@QEBAAEBQEAVNsdkHlrData@@H@Z
  ?at@?$NcArray@PEAVOdDbEntity@@V?$HostObjectsAllocator@PEAVOdDbEntity@@@@@@QEAAAEAPEAVOdDbEntity@@H@Z
  ?at@?$NcArray@PEAVOdDbEntity@@V?$HostObjectsAllocator@PEAVOdDbEntity@@@@@@QEBAAEBQEAVOdDbEntity@@H@Z
  ?at@?$NcArray@PEAXV?$HostMemoryAllocator@PEAX@@@@QEAAAEAPEAXH@Z
  ?at@?$NcArray@PEAXV?$HostMemoryAllocator@PEAX@@@@QEBAAEBQEAXH@Z
  ?at@?$NcArray@VMcGeVector2d@@V?$HostMemoryAllocator@VMcGeVector2d@@@@@@QEAAAEAVMcGeVector2d@@H@Z
  ?at@?$NcArray@VMcGeVector2d@@V?$HostMemoryAllocator@VMcGeVector2d@@@@@@QEBAAEBVMcGeVector2d@@H@Z
  ?at@?$NcArray@VNcDbEvalVariant@@V?$HostMemoryAllocator@VNcDbEvalVariant@@@@@@QEAAAEAVNcDbEvalVariant@@H@Z
  ?at@?$NcArray@VNcDbEvalVariant@@V?$HostMemoryAllocator@VNcDbEvalVariant@@@@@@QEBAAEBVNcDbEvalVariant@@H@Z
  ?at@?$NcArray@VNcDbFullSubentPath@@V?$HostObjectsAllocator@VNcDbFullSubentPath@@@@@@QEAAAEAVNcDbFullSubentPath@@H@Z
  ?at@?$NcArray@VNcDbFullSubentPath@@V?$HostObjectsAllocator@VNcDbFullSubentPath@@@@@@QEBAAEBVNcDbFullSubentPath@@H@Z
  ?at@?$NcArray@VNcDbObjectId@@V?$HostObjectsAllocator@VNcDbObjectId@@@@@@QEAAAEAVNcDbObjectId@@H@Z
  ?at@?$NcArray@VNcDbObjectId@@V?$HostObjectsAllocator@VNcDbObjectId@@@@@@QEBAAEBVNcDbObjectId@@H@Z
  ?at@?$NcArray@VNcGePoint2d@@V?$HostMemoryAllocator@VNcGePoint2d@@@@@@QEAAAEAVNcGePoint2d@@H@Z
  ?at@?$NcArray@VNcGePoint2d@@V?$HostMemoryAllocator@VNcGePoint2d@@@@@@QEBAAEBVNcGePoint2d@@H@Z
  ?at@?$NcArray@VNcGePoint3d@@V?$HostMemoryAllocator@VNcGePoint3d@@@@@@QEAAAEAVNcGePoint3d@@H@Z
  ?at@?$NcArray@VNcGePoint3d@@V?$HostMemoryAllocator@VNcGePoint3d@@@@@@QEBAAEBVNcGePoint3d@@H@Z
  ?at@?$NcArray@VNcGeVector3d@@V?$HostMemoryAllocator@VNcGeVector3d@@@@@@QEAAAEAVNcGeVector3d@@H@Z
  ?at@?$NcArray@VNcGeVector3d@@V?$HostMemoryAllocator@VNcGeVector3d@@@@@@QEBAAEBVNcGeVector3d@@H@Z
  ?at@?$NcArray@_JV?$HostMemoryAllocator@_J@@@@QEAAAEA_JH@Z
  ?at@?$NcArray@_JV?$HostMemoryAllocator@_J@@@@QEBAAEB_JH@Z
  ?at@NcRxDictionary@@UEBAPEAVNcRxObject@@K@Z
  ?at@NcRxDictionary@@UEBAPEAVNcRxObject@@PEB_W@Z
  ?atEOF@NcDbDxfFiler@@UEAA_NXZ
  ?atEmbeddedObjectStart@NcDbDxfFiler@@UEAA_NXZ
  ?atEndOfObject@NcDbDxfFiler@@UEAA_NXZ
  ?atExtendedData@NcDbDxfFiler@@UEAA_NXZ
  ?atKeyAndIdPut@NcRxDictionary@@UEAAHPEB_WKPEAVNcRxObject@@@Z
  ?atPut@NcRxDictionary@@QEAAPEAVNcRxObject@@PEB_WPEAV2@@Z
  ?atPut@NcRxDictionary@@UEAAPEAVNcRxObject@@KPEAV2@@Z
  ?atPut@NcRxDictionary@@UEAAPEAVNcRxObject@@PEB_WPEAV2@AEAK@Z
  ?atSubclassData@NcDbDxfFiler@@UEAA_NPEB_W@Z
  ?attach@NcApDocument@@SAPEAV1@PEBVHostApDocument@@@Z
  ?attach@NcDbDatabase@@SAPEAV1@PEBVOdDbDatabase@@@Z
  ?attach@NcDbEntity@@SAPEAV1@PEBVOdDbEntity@@@Z
  ?attach@NcDbObject@@SAPEAV1@PEBVOdDbObject@@@Z
  ?attach@NcRxClass@@SAPEAV1@PEBVOdRxClass@@@Z
  ?attach@NcRxObject@@SAPEAV1@PEBVOdRxObject@@@Z
  ?attach@NcRxObjectPtr@@QEAAXPEBVOdRxObject@@@Z
  ?attachAnnotation@NcDbLeader@@UEAA?AW4ErrorStatus@Nano@@AEBVNcDbObjectId@@@Z
  ?attachToObject@NcDbAssocDependency@@QEAA?AW4ErrorStatus@Nano@@AEBVNcDbCompoundObjectId@@@Z
  ?attachment@NcDbMText@@QEBA?AW4AttachmentPoint@1@XZ
  ?attachmentPoint@NcDbTable@@QEBA?AVNcGePoint3d@@HHH@Z
  ?attachmentPoint@NcDbTable@@UEBA?AVNcGePoint3d@@HH@Z
  ?attdia@NcDbAppSystemVariables@@QEBA_NXZ
  ?attdia@NcDbDatabase@@QEBA_NXZ
  ?attenuationType@NcGiLightAttenuation@@UEBA?AW4AttenuationType@1@XZ
  ?attmode@NcDbDatabase@@QEBAFXZ
  ?attreq@NcDbAppSystemVariables@@QEBA_NXZ
  ?attreq@NcDbDatabase@@QEBA_NXZ
  ?attributeIterator@NcDbBlockReference@@QEBAPEAVNcDbObjectIterator@@XZ
  ?audit@NcCmColor@@QEAA?AW4ErrorStatus@Nano@@PEAVNcDbAuditInfo@@@Z
  ?audit@NcCmComplexColor@@UEAA?AW4ErrorStatus@Nano@@PEAVNcDbAuditInfo@@@Z
  ?audit@NcDbAssocEdgePersSubentId@@UEAA?AW4ErrorStatus@Nano@@PEAVNcDbAuditInfo@@@Z
  ?audit@NcDbAssocPersSubentId@@UEAA?AW4ErrorStatus@Nano@@PEAVNcDbAuditInfo@@@Z
  ?audit@NcDbAssocSimplePersSubentId@@UEAA?AW4ErrorStatus@Nano@@PEAVNcDbAuditInfo@@@Z
  ?audit@NcDbDataTable@@UEAA?AW4ErrorStatus@Nano@@PEAVNcDbAuditInfo@@@Z
  ?audit@NcDbDatabase@@QEAA?AW4ErrorStatus@Nano@@PEAVNcDbAuditInfo@@@Z
  ?audit@NcDbEntity@@UEAA?AW4ErrorStatus@Nano@@PEAVNcDbAuditInfo@@@Z
  ?audit@NcDbMLeaderStyle@@UEAA?AW4ErrorStatus@Nano@@PEAVNcDbAuditInfo@@@Z
  ?audit@NcDbMPolygon@@UEAA?AW4ErrorStatus@Nano@@PEAVNcDbAuditInfo@@@Z
  ?audit@NcDbObject@@UEAA?AW4ErrorStatus@Nano@@PEAVNcDbAuditInfo@@@Z
  ?audit@NcDbSortentsTable@@UEAA?AW4ErrorStatus@Nano@@PEAVNcDbAuditInfo@@@Z
  ?audit@NcDbTable@@UEAA?AW4ErrorStatus@Nano@@PEAVNcDbAuditInfo@@@Z
  ?audit@NcDbTableStyle@@UEAA?AW4ErrorStatus@Nano@@PEAVNcDbAuditInfo@@@Z
  ?audit@NcDbXObject@@UEAA?AW4ErrorStatus@Nano@@PEAVNcDbAuditInfo@@@Z
  ?auditAssociativeData@NcDbAssocManager@@SA?AW4ErrorStatus@Nano@@PEAVNcDbDatabase@@_N@Z
  ?auditPass@NcDbAuditInfo@@QEBA?AW4AuditPass@1@XZ
  ?auditPrintReport@NcDbHostApplicationServices@@UEBAXPEAVNcDbAuditInfo@@PEB_WH@Z
  ?auditXData@NcDbDatabase@@QEAA?AW4ErrorStatus@Nano@@PEAVNcDbAuditInfo@@@Z
  ?aunits@NcDbDatabase@@QEBAFXZ
  ?auprec@NcDbDatabase@@QEBAFXZ
  ?autoConstrain@NcDbAssoc2dConstraintGroup@@QEAA?AW4ErrorStatus@Nano@@AEBV?$NcArray@VNcDbFullSubentPath@@V?$HostObjectsAllocator@VNcDbFullSubentPath@@@@@@AEBVMcGeTol@@PEAVNcAutoConstrainEvaluationCallback@@@Z
  ?autoOutputQuality@NcDbOle2Frame@@QEBAHXZ
  ?autoTransform@NcGiMapper@@QEBA?AW4AutoTransform@1@XZ
  ?axialNoise@NcGiWoodTexture@@UEBANXZ
  ?axisAt@NcDbMline@@QEBA?AVNcGeVector3d@@H@Z
  ?axisOfSymmetry@NcGeCone@@QEBA?AVNcGeVector3d@@XZ
  ?axisOfSymmetry@NcGeCylinder@@QEBA?AVNcGeVector3d@@XZ
  ?axisOfSymmetry@NcGeTorus@@QEBA?AVNcGeVector3d@@XZ
  ?axisPoint@NcDbHelix@@UEBA?AVNcGePoint3d@@XZ
  ?axisVector@NcDbHelix@@UEBA?AVNcGeVector3d@@XZ
  ?azimuth@NcDbSun@@UEBANXZ
  ?backClip@NcGsView@@UEBANXZ
  ?backClipDistance@NcDbAbstractViewTableRecord@@QEBANXZ
  ?backClipDistance@NcDbViewport@@QEBANXZ
  ?backClipEnabled@NcDbAbstractViewTableRecord@@QEBA_NXZ
  ?backFacesEnabled@NcDbRenderSettings@@QEBA_NXZ
  ?backFacesEnabled@NcGiRenderSettingsTraits@@UEBA_NXZ
  ?background@NcDbAbstractViewTableRecord@@QEAAAEAVNcDbObjectId@@XZ
  ?background@NcDbAbstractViewTableRecord@@QEBAAEBVNcDbObjectId@@XZ
  ?background@NcDbViewport@@QEBA?AVNcDbObjectId@@XZ
  ?background@NcGiViewportTraits@@UEBA?AVNcDbObjectId@@XZ
  ?background@NcGsModel@@UEBA?AVNcDbObjectId@@XZ
  ?background@NcGsView@@UEBA?AVNcDbObjectId@@XZ
  ?backgroundColor@NcDbFormattedTableData@@UEBA?AVNcCmColor@@HH@Z
  ?backgroundColor@NcDbHatch@@QEBA?AVNcCmColor@@XZ
  ?backgroundColor@NcDbTable@@UEBA?AVNcCmColor@@HH@Z
  ?backgroundColor@NcDbTable@@UEBA?AVNcCmColor@@W4RowType@NcDb@@@Z
  ?backgroundColor@NcDbTableStyle@@QEBA?AVNcCmColor@@PEB_W@Z
  ?backgroundColor@NcDbTableStyle@@UEBA?AVNcCmColor@@W4RowType@NcDb@@@Z
  ?backgroundFillOn@NcDbMText@@QEBA_NXZ
  ?balanceDisplay@NcDbMPolygon@@UEAA?AW4ErrorStatus@Nano@@XZ
  ?balanceTree@NcDbMPolygon@@UEAA?AW4ErrorStatus@Nano@@XZ
  ?bank@NcDbSweepOptions@@QEBA_NXZ
  ?baryComb@NcGeLineSeg2d@@UEBA?AVNcGePoint2d@@N@Z
  ?baryComb@NcGeLineSeg3d@@UEBA?AVNcGePoint3d@@N@Z
  ?baseCenter@NcGeCone@@QEBA?AVNcGePoint3d@@XZ
  ?baseDeepClone@NcDbCamera@@AEBA?AW4ErrorStatus@Nano@@PEAVNcDbObject@@AEAPEAV4@AEAVNcDbIdMapping@@H@Z
  ?baseDeepClone@NcDbLight@@AEBA?AW4ErrorStatus@Nano@@PEAVNcDbObject@@AEAPEAV4@AEAVNcDbIdMapping@@H@Z
  ?baseGetStretchPoints@NcDbCamera@@AEBA?AW4ErrorStatus@Nano@@AEAV?$NcArray@VNcGePoint3d@@V?$HostMemoryAllocator@VNcGePoint3d@@@@@@@Z
  ?baseHighlight@NcDbCamera@@AEBA?AW4ErrorStatus@Nano@@AEBVNcDbFullSubentPath@@H@Z
  ?baseHighlight@NcDbLight@@AEBA?AW4ErrorStatus@Nano@@AEBVNcDbFullSubentPath@@H@Z
  ?baseList@NcDbRasterImage@@QEBAXXZ
  ?baseMoveStretchPointsAt@NcDbCamera@@AEAA?AW4ErrorStatus@Nano@@AEBV?$NcArray@HV?$HostMemoryAllocator@H@@@@AEBVNcGeVector3d@@@Z
  ?basePoint@NcDbRay@@QEBA?AVNcGePoint3d@@XZ
  ?basePoint@NcDbSweepOptions@@QEBA?AVNcGePoint3d@@XZ
  ?basePoint@NcDbXline@@QEBA?AVNcGePoint3d@@XZ
  ?baseRadius@NcDbHelix@@UEBANXZ
  ?baseRadius@NcGeCone@@QEBANXZ
  ?baseSetAttributes@NcDbCamera@@AEAAKPEAVNcGiDrawableTraits@@@Z
  ?baseSetAttributes@NcDbLight@@AEAAKPEAVNcGiDrawableTraits@@@Z
  ?baseSetAttributes@NcDbMentalRayRenderSettings@@AEAAKPEAVNcGiDrawableTraits@@@Z
  ?baseSubEntMarker@NcGiPolyline@@QEBA_JXZ
  ?baseUnhighlight@NcDbCamera@@AEBA?AW4ErrorStatus@Nano@@AEBVNcDbFullSubentPath@@H@Z
  ?baseUnhighlight@NcDbLight@@AEBA?AW4ErrorStatus@Nano@@AEBVNcDbFullSubentPath@@H@Z
  ?baseWblockClone@NcDbCamera@@AEBA?AW4ErrorStatus@Nano@@PEAVNcRxObject@@AEAPEAVNcDbObject@@AEAVNcDbIdMapping@@H@Z
  ?baseWblockClone@NcDbLight@@AEBA?AW4ErrorStatus@Nano@@PEAVNcRxObject@@AEAPEAVNcDbObject@@AEAVNcDbIdMapping@@H@Z
  ?begin@?$HostArray@HV?$HostMemoryAllocator@H@@@@QEAAPEAHXZ
  ?begin@?$HostArray@HV?$HostMemoryAllocator@H@@@@QEBAPEBHXZ
  ?begin@?$HostArray@NV?$HostMemoryAllocator@N@@@@QEAAPEANXZ
  ?begin@?$HostArray@NV?$HostMemoryAllocator@N@@@@QEBAPEBNXZ
  ?begin@?$HostArray@PEAUHINSTANCE__@@V?$HostObjectsAllocator@PEAUHINSTANCE__@@@@@@QEAAPEAPEAUHINSTANCE__@@XZ
  ?begin@?$HostArray@PEAUHINSTANCE__@@V?$HostObjectsAllocator@PEAUHINSTANCE__@@@@@@QEBAPEBQEAUHINSTANCE__@@XZ
  ?begin@?$HostArray@PEAVNcDb2dVertex@@V?$HostObjectsAllocator@PEAVNcDb2dVertex@@@@@@QEAAPEAPEAVNcDb2dVertex@@XZ
  ?begin@?$HostArray@PEAVNcDb2dVertex@@V?$HostObjectsAllocator@PEAVNcDb2dVertex@@@@@@QEBAPEBQEAVNcDb2dVertex@@XZ
  ?begin@?$HostArray@PEAVNcDb3dPolylineVertex@@V?$HostObjectsAllocator@PEAVNcDb3dPolylineVertex@@@@@@QEAAPEAPEAVNcDb3dPolylineVertex@@XZ
  ?begin@?$HostArray@PEAVNcDb3dPolylineVertex@@V?$HostObjectsAllocator@PEAVNcDb3dPolylineVertex@@@@@@QEBAPEBQEAVNcDb3dPolylineVertex@@XZ
  ?begin@?$HostArray@PEAVNcDbDimData@@V?$HostMemoryAllocator@PEAVNcDbDimData@@@@@@QEAAPEAPEAVNcDbDimData@@XZ
  ?begin@?$HostArray@PEAVNcDbDimData@@V?$HostMemoryAllocator@PEAVNcDbDimData@@@@@@QEBAPEBQEAVNcDbDimData@@XZ
  ?begin@?$HostArray@PEAVNcDbEntity@@V?$HostObjectsAllocator@PEAVNcDbEntity@@@@@@QEAAPEAPEAVNcDbEntity@@XZ
  ?begin@?$HostArray@PEAVNcDbEntity@@V?$HostObjectsAllocator@PEAVNcDbEntity@@@@@@QEBAPEBQEAVNcDbEntity@@XZ
  ?begin@?$HostArray@PEAVNcDbGripData@@V?$HostMemoryAllocator@PEAVNcDbGripData@@@@@@QEAAPEAPEAVNcDbGripData@@XZ
  ?begin@?$HostArray@PEAVNcDbGripData@@V?$HostMemoryAllocator@PEAVNcDbGripData@@@@@@QEBAPEBQEAVNcDbGripData@@XZ
  ?begin@?$HostArray@PEAVNcDbNurbSurface@@V?$HostObjectsAllocator@PEAVNcDbNurbSurface@@@@@@QEAAPEAPEAVNcDbNurbSurface@@XZ
  ?begin@?$HostArray@PEAVNcDbNurbSurface@@V?$HostObjectsAllocator@PEAVNcDbNurbSurface@@@@@@QEBAPEBQEAVNcDbNurbSurface@@XZ
  ?begin@?$HostArray@PEAVNcDbPolygonMeshVertex@@V?$HostObjectsAllocator@PEAVNcDbPolygonMeshVertex@@@@@@QEAAPEAPEAVNcDbPolygonMeshVertex@@XZ
  ?begin@?$HostArray@PEAVNcDbPolygonMeshVertex@@V?$HostObjectsAllocator@PEAVNcDbPolygonMeshVertex@@@@@@QEBAPEBQEAVNcDbPolygonMeshVertex@@XZ
  ?begin@?$HostArray@PEAVNcDbVertex@@V?$HostObjectsAllocator@PEAVNcDbVertex@@@@@@QEAAPEAPEAVNcDbVertex@@XZ
  ?begin@?$HostArray@PEAVNcDbVertex@@V?$HostObjectsAllocator@PEAVNcDbVertex@@@@@@QEBAPEBQEAVNcDbVertex@@XZ
  ?begin@?$HostArray@PEAVNcLyLayerFilter@@V?$HostObjectsAllocator@PEAVNcLyLayerFilter@@@@@@QEAAPEAPEAVNcLyLayerFilter@@XZ
  ?begin@?$HostArray@PEAVNcLyLayerFilter@@V?$HostObjectsAllocator@PEAVNcLyLayerFilter@@@@@@QEBAPEBQEAVNcLyLayerFilter@@XZ
  ?begin@?$HostArray@PEAVNcTransaction@@V?$HostObjectsAllocator@PEAVNcTransaction@@@@@@QEAAPEAPEAVNcTransaction@@XZ
  ?begin@?$HostArray@PEAVNcTransaction@@V?$HostObjectsAllocator@PEAVNcTransaction@@@@@@QEBAPEBQEAVNcTransaction@@XZ
  ?begin@?$HostArray@PEAVNsdkHlrData@@V?$HostObjectsAllocator@PEAVNsdkHlrData@@@@@@QEAAPEAPEAVNsdkHlrData@@XZ
  ?begin@?$HostArray@PEAVNsdkHlrData@@V?$HostObjectsAllocator@PEAVNsdkHlrData@@@@@@QEBAPEBQEAVNsdkHlrData@@XZ
  ?begin@?$HostArray@PEAVOdDbEntity@@V?$HostObjectsAllocator@PEAVOdDbEntity@@@@@@QEAAPEAPEAVOdDbEntity@@XZ
  ?begin@?$HostArray@PEAVOdDbEntity@@V?$HostObjectsAllocator@PEAVOdDbEntity@@@@@@QEBAPEBQEAVOdDbEntity@@XZ
  ?begin@?$HostArray@PEAXV?$HostMemoryAllocator@PEAX@@@@QEAAPEAPEAXXZ
  ?begin@?$HostArray@PEAXV?$HostMemoryAllocator@PEAX@@@@QEBAPEBQEAXXZ
  ?begin@?$HostArray@VMcGeVector2d@@V?$HostMemoryAllocator@VMcGeVector2d@@@@@@QEAAPEAVMcGeVector2d@@XZ
  ?begin@?$HostArray@VMcGeVector2d@@V?$HostMemoryAllocator@VMcGeVector2d@@@@@@QEBAPEBVMcGeVector2d@@XZ
  ?begin@?$HostArray@VNcDbEvalVariant@@V?$HostMemoryAllocator@VNcDbEvalVariant@@@@@@QEAAPEAVNcDbEvalVariant@@XZ
  ?begin@?$HostArray@VNcDbEvalVariant@@V?$HostMemoryAllocator@VNcDbEvalVariant@@@@@@QEBAPEBVNcDbEvalVariant@@XZ
  ?begin@?$HostArray@VNcDbFullSubentPath@@V?$HostObjectsAllocator@VNcDbFullSubentPath@@@@@@QEAAPEAVNcDbFullSubentPath@@XZ
  ?begin@?$HostArray@VNcDbFullSubentPath@@V?$HostObjectsAllocator@VNcDbFullSubentPath@@@@@@QEBAPEBVNcDbFullSubentPath@@XZ
  ?begin@?$HostArray@VNcDbObjectId@@V?$HostObjectsAllocator@VNcDbObjectId@@@@@@QEAAPEAVNcDbObjectId@@XZ
  ?begin@?$HostArray@VNcDbObjectId@@V?$HostObjectsAllocator@VNcDbObjectId@@@@@@QEBAPEBVNcDbObjectId@@XZ
  ?begin@?$HostArray@VNcGePoint2d@@V?$HostMemoryAllocator@VNcGePoint2d@@@@@@QEAAPEAVNcGePoint2d@@XZ
  ?begin@?$HostArray@VNcGePoint2d@@V?$HostMemoryAllocator@VNcGePoint2d@@@@@@QEBAPEBVNcGePoint2d@@XZ
  ?begin@?$HostArray@VNcGePoint3d@@V?$HostMemoryAllocator@VNcGePoint3d@@@@@@QEAAPEAVNcGePoint3d@@XZ
  ?begin@?$HostArray@VNcGePoint3d@@V?$HostMemoryAllocator@VNcGePoint3d@@@@@@QEBAPEBVNcGePoint3d@@XZ
  ?begin@?$HostArray@VNcGeVector3d@@V?$HostMemoryAllocator@VNcGeVector3d@@@@@@QEAAPEAVNcGeVector3d@@XZ
  ?begin@?$HostArray@VNcGeVector3d@@V?$HostMemoryAllocator@VNcGeVector3d@@@@@@QEBAPEBVNcGeVector3d@@XZ
  ?begin@?$HostArray@_JV?$HostMemoryAllocator@_J@@@@QEAAPEA_JXZ
  ?begin@?$HostArray@_JV?$HostMemoryAllocator@_J@@@@QEBAPEB_JXZ
  ?begin@SpanProviderInterface@Ntil@@UEAAXXZ
  ?beginActionEvaluation@NcDbAssocEvaluationCallback@@UEAAXPEAVNcDbAssocAction@@@Z
  ?beginActionEvaluationUsingObject@NcDbAssocEvaluationCallback@@UEAAXPEAVNcDbAssocAction@@AEBVNcDbObjectId@@_N2AEAPEAVNcDbObject@@@Z
  ?beginAttach@NcRxEventReactor@@UEAAXPEAVNcDbDatabase@@PEB_W0@Z
  ?beginCheckIn@NcApLongTransactionReactor@@UEAAXAEAVNcDbLongTransaction@@@Z
  ?beginCheckOut@NcApLongTransactionReactor@@UEAAXAEAVNcDbLongTransaction@@AEAV?$NcArray@VNcDbObjectId@@V?$HostObjectsAllocator@VNcDbObjectId@@@@@@@Z
  ?beginDeepClone@NcRxEventReactor@@UEAAXPEAVNcDbDatabase@@AEAVNcDbIdMapping@@@Z
  ?beginDeepCloneXlation@NcRxEventReactor@@UEAAXAEAVNcDbIdMapping@@PEAW4ErrorStatus@Nano@@@Z
  ?beginDragSequence@NcEdInputContextReactor@@UEAAXPEB_W@Z
  ?beginDxfIn@NcRxEventReactor@@UEAAXPEAVNcDbDatabase@@@Z
  ?beginDxfOut@NcRxEventReactor@@UEAAXPEAVNcDbDatabase@@@Z
  ?beginEntsel@NcEdInputContextReactor@@UEAAXPEB_WH0@Z
  ?beginEvaluateFields@NcFdFieldReactor@@UEAA?AW4ErrorStatus@Nano@@HPEAVNcDbDatabase@@@Z
  ?beginGetAngle@NcEdInputContextReactor@@UEAAXPEBVNcGePoint3d@@PEB_WH1@Z
  ?beginGetColor@NcEdInputContextReactor@@UEAAXPEBHPEB_WH1@Z
  ?beginGetCorner@NcEdInputContextReactor@@UEAAXPEBVNcGePoint3d@@PEB_WH1@Z
  ?beginGetDistance@NcEdInputContextReactor@@UEAAXPEBVNcGePoint3d@@PEB_WH1@Z
  ?beginGetInteger@NcEdInputContextReactor@@UEAAXPEBHPEB_WH1@Z
  ?beginGetKeyword@NcEdInputContextReactor@@UEAAXPEB_WH0@Z
  ?beginGetOrientation@NcEdInputContextReactor@@UEAAXPEBVNcGePoint3d@@PEB_WH1@Z
  ?beginGetPoint@NcEdInputContextReactor@@UEAAXPEBVNcGePoint3d@@PEB_WH1@Z
  ?beginGetReal@NcEdInputContextReactor@@UEAAXPEBNPEB_WH1@Z
  ?beginGetScaleFactor@NcEdInputContextReactor@@UEAAXPEBVNcGePoint3d@@PEB_WH1@Z
  ?beginGetString@NcEdInputContextReactor@@UEAAXPEB_WH@Z
  ?beginInsert@NcRxEventReactor@@UEAAXPEAVNcDbDatabase@@AEBVNcGeMatrix3d@@0@Z
  ?beginInsert@NcRxEventReactor@@UEAAXPEAVNcDbDatabase@@PEB_W0@Z
  ?beginInteractivity@NcGsView@@UEAAXN@Z
  ?beginNentsel@NcEdInputContextReactor@@UEAAXPEB_WHH0@Z
  ?beginQuiescentState@NcEdInputContextReactor@@UEAAXXZ
  ?beginRestore@NcRxEventReactor@@UEAAXPEAVNcDbDatabase@@PEB_W0@Z
  ?beginSSGet@NcEdInputContextReactor@@UEAAXPEB_WH00AEBV?$NcArray@VNcGePoint3d@@V?$HostMemoryAllocator@VNcGePoint3d@@@@@@PEBUresbuf@@@Z
  ?beginSave@NcRxDynamicLinkerImpl@@UEAAXPEAVOdDbDatabase@@AEBVOdString@@@Z
  ?beginSave@NcRxEventReactor@@UEAAXPEAVNcDbDatabase@@PEB_W@Z
  ?beginWblock@NcRxEventReactor@@UEAAXPEAVNcDbDatabase@@0@Z
  ?beginWblock@NcRxEventReactor@@UEAAXPEAVNcDbDatabase@@0AEAPEBVNcGePoint3d@@@Z
  ?beginWblock@NcRxEventReactor@@UEAAXPEAVNcDbDatabase@@0VNcDbObjectId@@@Z
  ?beginWblockObjects@NcRxEventReactor@@UEAAXPEAVNcDbDatabase@@AEAVNcDbIdMapping@@@Z
  ?begin_const@?$HostArray@HV?$HostMemoryAllocator@H@@@@AEBAPEBHXZ
  ?begin_const@?$HostArray@NV?$HostMemoryAllocator@N@@@@AEBAPEBNXZ
  ?begin_const@?$HostArray@PEAUHINSTANCE__@@V?$HostObjectsAllocator@PEAUHINSTANCE__@@@@@@AEBAPEBQEAUHINSTANCE__@@XZ
  ?begin_const@?$HostArray@PEAVNcDb2dVertex@@V?$HostObjectsAllocator@PEAVNcDb2dVertex@@@@@@AEBAPEBQEAVNcDb2dVertex@@XZ
  ?begin_const@?$HostArray@PEAVNcDb3dPolylineVertex@@V?$HostObjectsAllocator@PEAVNcDb3dPolylineVertex@@@@@@AEBAPEBQEAVNcDb3dPolylineVertex@@XZ
  ?begin_const@?$HostArray@PEAVNcDbDimData@@V?$HostMemoryAllocator@PEAVNcDbDimData@@@@@@AEBAPEBQEAVNcDbDimData@@XZ
  ?begin_const@?$HostArray@PEAVNcDbEntity@@V?$HostObjectsAllocator@PEAVNcDbEntity@@@@@@AEBAPEBQEAVNcDbEntity@@XZ
  ?begin_const@?$HostArray@PEAVNcDbGripData@@V?$HostMemoryAllocator@PEAVNcDbGripData@@@@@@AEBAPEBQEAVNcDbGripData@@XZ
  ?begin_const@?$HostArray@PEAVNcDbNurbSurface@@V?$HostObjectsAllocator@PEAVNcDbNurbSurface@@@@@@AEBAPEBQEAVNcDbNurbSurface@@XZ
  ?begin_const@?$HostArray@PEAVNcDbPolygonMeshVertex@@V?$HostObjectsAllocator@PEAVNcDbPolygonMeshVertex@@@@@@AEBAPEBQEAVNcDbPolygonMeshVertex@@XZ
  ?begin_const@?$HostArray@PEAVNcDbVertex@@V?$HostObjectsAllocator@PEAVNcDbVertex@@@@@@AEBAPEBQEAVNcDbVertex@@XZ
  ?begin_const@?$HostArray@PEAVNcLyLayerFilter@@V?$HostObjectsAllocator@PEAVNcLyLayerFilter@@@@@@AEBAPEBQEAVNcLyLayerFilter@@XZ
  ?begin_const@?$HostArray@PEAVNcTransaction@@V?$HostObjectsAllocator@PEAVNcTransaction@@@@@@AEBAPEBQEAVNcTransaction@@XZ
  ?begin_const@?$HostArray@PEAVNsdkHlrData@@V?$HostObjectsAllocator@PEAVNsdkHlrData@@@@@@AEBAPEBQEAVNsdkHlrData@@XZ
  ?begin_const@?$HostArray@PEAVOdDbEntity@@V?$HostObjectsAllocator@PEAVOdDbEntity@@@@@@AEBAPEBQEAVOdDbEntity@@XZ
  ?begin_const@?$HostArray@PEAXV?$HostMemoryAllocator@PEAX@@@@AEBAPEBQEAXXZ
  ?begin_const@?$HostArray@VMcGeVector2d@@V?$HostMemoryAllocator@VMcGeVector2d@@@@@@AEBAPEBVMcGeVector2d@@XZ
  ?begin_const@?$HostArray@VNcDbEvalVariant@@V?$HostMemoryAllocator@VNcDbEvalVariant@@@@@@AEBAPEBVNcDbEvalVariant@@XZ
  ?begin_const@?$HostArray@VNcDbFullSubentPath@@V?$HostObjectsAllocator@VNcDbFullSubentPath@@@@@@AEBAPEBVNcDbFullSubentPath@@XZ
  ?begin_const@?$HostArray@VNcDbObjectId@@V?$HostObjectsAllocator@VNcDbObjectId@@@@@@AEBAPEBVNcDbObjectId@@XZ
  ?begin_const@?$HostArray@VNcGePoint2d@@V?$HostMemoryAllocator@VNcGePoint2d@@@@@@AEBAPEBVNcGePoint2d@@XZ
  ?begin_const@?$HostArray@VNcGePoint3d@@V?$HostMemoryAllocator@VNcGePoint3d@@@@@@AEBAPEBVNcGePoint3d@@XZ
  ?begin_const@?$HostArray@VNcGeVector3d@@V?$HostMemoryAllocator@VNcGeVector3d@@@@@@AEBAPEBVNcGeVector3d@@XZ
  ?begin_const@?$HostArray@_JV?$HostMemoryAllocator@_J@@@@AEBAPEB_JXZ
  ?begin_non_const@?$HostArray@HV?$HostMemoryAllocator@H@@@@AEAAPEAHXZ
  ?begin_non_const@?$HostArray@NV?$HostMemoryAllocator@N@@@@AEAAPEANXZ
  ?begin_non_const@?$HostArray@PEAUHINSTANCE__@@V?$HostObjectsAllocator@PEAUHINSTANCE__@@@@@@AEAAPEAPEAUHINSTANCE__@@XZ
  ?begin_non_const@?$HostArray@PEAVNcDb2dVertex@@V?$HostObjectsAllocator@PEAVNcDb2dVertex@@@@@@AEAAPEAPEAVNcDb2dVertex@@XZ
  ?begin_non_const@?$HostArray@PEAVNcDb3dPolylineVertex@@V?$HostObjectsAllocator@PEAVNcDb3dPolylineVertex@@@@@@AEAAPEAPEAVNcDb3dPolylineVertex@@XZ
  ?begin_non_const@?$HostArray@PEAVNcDbDimData@@V?$HostMemoryAllocator@PEAVNcDbDimData@@@@@@AEAAPEAPEAVNcDbDimData@@XZ
  ?begin_non_const@?$HostArray@PEAVNcDbEntity@@V?$HostObjectsAllocator@PEAVNcDbEntity@@@@@@AEAAPEAPEAVNcDbEntity@@XZ
  ?begin_non_const@?$HostArray@PEAVNcDbGripData@@V?$HostMemoryAllocator@PEAVNcDbGripData@@@@@@AEAAPEAPEAVNcDbGripData@@XZ
  ?begin_non_const@?$HostArray@PEAVNcDbNurbSurface@@V?$HostObjectsAllocator@PEAVNcDbNurbSurface@@@@@@AEAAPEAPEAVNcDbNurbSurface@@XZ
  ?begin_non_const@?$HostArray@PEAVNcDbPolygonMeshVertex@@V?$HostObjectsAllocator@PEAVNcDbPolygonMeshVertex@@@@@@AEAAPEAPEAVNcDbPolygonMeshVertex@@XZ
  ?begin_non_const@?$HostArray@PEAVNcDbVertex@@V?$HostObjectsAllocator@PEAVNcDbVertex@@@@@@AEAAPEAPEAVNcDbVertex@@XZ
  ?begin_non_const@?$HostArray@PEAVNcLyLayerFilter@@V?$HostObjectsAllocator@PEAVNcLyLayerFilter@@@@@@AEAAPEAPEAVNcLyLayerFilter@@XZ
  ?begin_non_const@?$HostArray@PEAVNcTransaction@@V?$HostObjectsAllocator@PEAVNcTransaction@@@@@@AEAAPEAPEAVNcTransaction@@XZ
  ?begin_non_const@?$HostArray@PEAVNsdkHlrData@@V?$HostObjectsAllocator@PEAVNsdkHlrData@@@@@@AEAAPEAPEAVNsdkHlrData@@XZ
  ?begin_non_const@?$HostArray@PEAVOdDbEntity@@V?$HostObjectsAllocator@PEAVOdDbEntity@@@@@@AEAAPEAPEAVOdDbEntity@@XZ
  ?begin_non_const@?$HostArray@PEAXV?$HostMemoryAllocator@PEAX@@@@AEAAPEAPEAXXZ
  ?begin_non_const@?$HostArray@VMcGeVector2d@@V?$HostMemoryAllocator@VMcGeVector2d@@@@@@AEAAPEAVMcGeVector2d@@XZ
  ?begin_non_const@?$HostArray@VNcDbEvalVariant@@V?$HostMemoryAllocator@VNcDbEvalVariant@@@@@@AEAAPEAVNcDbEvalVariant@@XZ
  ?begin_non_const@?$HostArray@VNcDbFullSubentPath@@V?$HostObjectsAllocator@VNcDbFullSubentPath@@@@@@AEAAPEAVNcDbFullSubentPath@@XZ
  ?begin_non_const@?$HostArray@VNcDbObjectId@@V?$HostObjectsAllocator@VNcDbObjectId@@@@@@AEAAPEAVNcDbObjectId@@XZ
  ?begin_non_const@?$HostArray@VNcGePoint2d@@V?$HostMemoryAllocator@VNcGePoint2d@@@@@@AEAAPEAVNcGePoint2d@@XZ
  ?begin_non_const@?$HostArray@VNcGePoint3d@@V?$HostMemoryAllocator@VNcGePoint3d@@@@@@AEAAPEAVNcGePoint3d@@XZ
  ?begin_non_const@?$HostArray@VNcGeVector3d@@V?$HostMemoryAllocator@VNcGeVector3d@@@@@@AEAAPEAVNcGeVector3d@@XZ
  ?begin_non_const@?$HostArray@_JV?$HostMemoryAllocator@_J@@@@AEAAPEA_JXZ
  ?bigFontFileName@NcDbTextStyleTableRecord@@QEBA?AW4ErrorStatus@Nano@@AEAPEA_W@Z
  ?bigFontFileName@NcDbTextStyleTableRecord@@QEBA?AW4ErrorStatus@Nano@@AEAPEB_W@Z
  ?bigFontFileName@NcGiTextStyle@@UEBAPEB_WXZ
  ?bitFields@DataModel@Ntil@@UEBA?AW4BitFields@DataModelAttributes@2@XZ
  ?bitFields@DataModelAttributes@Ntil@@UEBA?AW4BitFields@12@XZ
  ?bitFlags@NcDbDimData@@QEBAIXZ
  ?bitFlags@NcDbGripData@@QEBAIXZ
  ?bitFlags@NcDbMLeaderStyle@@UEBAKXZ
  ?bitFlags@NcDbTableStyle@@UEBAKXZ
  ?bits@half@Ntil@@QEBAGXZ
  ?bitsPerPixel@DataModel@Ntil@@SAHW4BitsPerPixel@DataModelAttributes@2@@Z
  ?bitsPerPixel@DataModel@Ntil@@UEBA?AW4BitsPerPixel@DataModelAttributes@2@XZ
  ?bitsPerPixel@DataModelAttributes@Ntil@@SA?AW4BitsPerPixel@12@W4PixelType@12@@Z
  ?bitsPerPixel@DataModelAttributes@Ntil@@UEBA?AW4BitsPerPixel@12@XZ
  ?bitsUsedPerPixel@DataModel@Ntil@@UEBAHXZ
  ?bitsUsedPerPixel@DataModelAttributes@Ntil@@UEBAHXZ
  ?blend@Image@Ntil@@QEAAXPEAVRowProviderInterface@2@AEBVOffset@2@H_N@Z
  ?blend@ImageRep@Ntil@@UEAAXPEAVRowProviderInterface@2@AEBVOffset@2@H_N@Z
  ?blendFactor@NcGiMaterialMap@@UEBANXZ
  ?blipmode@NcDbAppSystemVariables@@QEBA_NXZ
  ?blipmode@NcDbDatabase@@QEBA_NXZ
  ?blockBegin@NcDbMText@@SAQEB_WXZ
  ?blockColor@NcDbMLeader@@QEBA?AVNcCmColor@@XZ
  ?blockColor@NcDbMLeaderStyle@@QEBA?AVNcCmColor@@XZ
  ?blockConnectionType@NcDbMLeader@@QEBA?AW4BlockConnectionType@NcDbMLeaderStyle@@XZ
  ?blockConnectionType@NcDbMLeaderStyle@@QEBA?AW4BlockConnectionType@1@XZ
  ?blockContentId@NcDbMLeader@@QEBA?AVNcDbObjectId@@XZ
  ?blockEnd@NcDbMText@@SAQEB_WXZ
  ?blockId@NcDbDynBlockReference@@QEBA?AVNcDbObjectId@@XZ
  ?blockId@NcDbDynBlockReferenceProperty@@QEBA?AVNcDbObjectId@@XZ
  ?blockId@NcDbEntity@@QEBA?AVNcDbObjectId@@XZ
  ?blockId@NcDbMLeaderStyle@@QEBA?AVNcDbObjectId@@XZ
  ?blockId@NcDbSortentsTable@@QEBA?AVNcDbObjectId@@XZ
  ?blockInsertUnits@NcDbBlockTableRecord@@QEBA?AW4UnitsValue@NcDb@@XZ
  ?blockRotation@NcDbMLeader@@QEBANXZ
  ?blockRotation@NcDbMLeaderStyle@@QEBANXZ
  ?blockRotation@NcDbTable@@UEBANHH@Z
  ?blockScale@NcDbMLeader@@QEBA?AVNcGeScale3d@@XZ
  ?blockScale@NcDbMLeaderStyle@@QEBA?AVNcGeScale3d@@XZ
  ?blockScale@NcDbTable@@UEBANHH@Z
  ?blockScaling@NcDbBlockTableRecord@@QEBA?AW4BlockScaling@1@XZ
  ?blockTableId@NcDbDatabase@@QEAA?AVNcDbObjectId@@XZ
  ?blockTableRecord@NcDbBlockReference@@QEBA?AVNcDbObjectId@@XZ
  ?blockTableRecord@NcDbBlockTableRecordIterator@@QEBAPEAVNcDbBlockTableRecord@@XZ
  ?blockTableRecordId@NcDbDynBlockTableRecord@@QEBA?AVNcDbObjectId@@XZ
  ?blockTableRecordId@NcDbGeoData@@QEBA?AVNcDbObjectId@@XZ
  ?blockTableRecordId@NcDbTable@@QEBA?AVNcDbObjectId@@HHH@Z
  ?blockTableRecordId@NcDbTable@@UEBA?AVNcDbObjectId@@HH@Z
  ?blockTransform@NcDbBlockReference@@QEBA?AVNcGeMatrix3d@@XZ
  ?blockTransform@NcDbDimension@@QEBA?AVNcGeMatrix3d@@XZ
  ?blue@NcCmColorBase@@UEBAEXZ
  ?blue@NcCmComplexColor@@UEBAEXZ
  ?blue@NcCmEntityColor@@QEBAEXZ
  ?blue@NcCmEntityColor@@SAEPEBTRGBM@1@@Z
  ?body@NcDb3dSolid@@UEBAPEAXXZ
  ?body@NcDbAssocAsmBodyActionParam@@UEBAPEAX_N@Z
  ?body@NcDbBody@@UEBAPEAXXZ
  ?body@NcDbRegion@@UEBAPEAXXZ
  ?body@NcDbSurface@@UEBAPEAXXZ
  ?bookName@NcCmColorBase@@UEBAPEB_WXZ
  ?booleanIntersect@NcDbSurface@@UEAA?AW4ErrorStatus@Nano@@PEBV1@AEAV?$NcArray@PEAVNcDbEntity@@V?$HostObjectsAllocator@PEAVNcDbEntity@@@@@@@Z
  ?booleanIntersect@NcDbSurface@@UEAA?AW4ErrorStatus@Nano@@PEBVNcDb3dSolid@@AEAV?$NcArray@PEAVNcDbEntity@@V?$HostObjectsAllocator@PEAVNcDbEntity@@@@@@@Z
  ?booleanOper@NcDb3dSolid@@UEAA?AW4ErrorStatus@Nano@@W4BoolOperType@NcDb@@PEAV1@@Z
  ?booleanOper@NcDbRegion@@UEAA?AW4ErrorStatus@Nano@@W4BoolOperType@NcDb@@PEAV1@@Z
  ?booleanSubtract@NcDbSurface@@UEAA?AW4ErrorStatus@Nano@@PEBV1@AEAPEAV1@@Z
  ?booleanSubtract@NcDbSurface@@UEAA?AW4ErrorStatus@Nano@@PEBVNcDb3dSolid@@AEAPEAV1@@Z
  ?booleanUnion@NcDbSurface@@UEAA?AW4ErrorStatus@Nano@@PEBV1@AEAPEAV1@@Z
  ?boundBlock@NcGeCubicSplineCurve3d@@QEBA?AVMcGeBoundBlock3d@@AEBVNcGeInterval@@@Z
  ?boundBlock@NcGeCubicSplineCurve3d@@QEBA?AVMcGeBoundBlock3d@@XZ
  ?boundBlock@NcGeCurve2d@@QEBA?AVNcGeBoundBlock2d@@AEBVNcGeInterval@@@Z
  ?boundBlock@NcGeCurve2d@@QEBA?AVNcGeBoundBlock2d@@XZ
  ?boundBlock@NcGeCurve3d@@QEBA?AVMcGeBoundBlock3d@@AEBVNcGeInterval@@@Z
  ?boundBlock@NcGeCurve3d@@QEBA?AVMcGeBoundBlock3d@@XZ
  ?boundingBoxIntersectWith@NcDbEntity@@QEBA?AW4ErrorStatus@Nano@@PEBV1@W4Intersect@NcDb@@AEAV?$NcArray@VNcGePoint3d@@V?$HostMemoryAllocator@VNcGePoint3d@@@@@@_J3@Z
  ?boundingBoxIntersectWith@NcDbEntity@@QEBA?AW4ErrorStatus@Nano@@PEBV1@W4Intersect@NcDb@@AEBVNcGePlane@@AEAV?$NcArray@VNcGePoint3d@@V?$HostMemoryAllocator@VNcGePoint3d@@@@@@_J4@Z
  ?bounds@NcDbEntity@@UEBA_NAEAVNcDbExtents@@@Z
  ?bounds@NcDbSubDMesh@@UEBA_NAEAVNcDbExtents@@@Z
  ?bounds@NcGiDrawable@@UEBA_NAEAVNcDbExtents@@@Z
  ?bounds@SpanProviderInterface@Ntil@@UEBAAEBVBoundingBox@2@XZ
  ?breakCycleEdge@NcDbGraph@@QEAA?AW4ErrorStatus@Nano@@PEAVNcDbGraphNode@@0@Z
  ?breakFlowDirection@NcDbTable@@QEBA?AW4TableBreakFlowDirection@NcDb@@XZ
  ?breakHeight@NcDbTable@@QEBANH@Z
  ?breakOffset@NcDbTable@@QEBA?AVNcGeVector3d@@H@Z
  ?breakOption@NcDbTable@@QEBA?AW4TableBreakOption@NcDb@@XZ
  ?breakPoint2@NcDbBreakPointRef@@QEBA?AVNcGePoint3d@@XZ
  ?breakPoint@NcDbBreakPointRef@@QEBA?AVNcGePoint3d@@XZ
  ?breakSize@NcDbMLeaderStyle@@QEBANXZ
  ?breakSpacing@NcDbTable@@QEBANXZ
  ?brepChanged@NcBrEntity@@QEBAHXZ
  ?brepChanged@NcBrHit@@QEBAHXZ
  ?brepChanged@NcBrMeshEntity@@QEBAHXZ
  ?brepChanged@NcBrTraverser@@QEBAHXZ
  ?brightness@NcDbAbstractViewTableRecord@@QEBANXZ
  ?brightness@NcDbRasterImage@@UEBACXZ
  ?brightness@NcDbViewport@@QEBANXZ
  ?brightness@NcGiDisplayStyle@@UEBANXZ
  ?brightness@NcGiToneOperatorParameters@@UEBANXZ
  ?brightness@NcGiViewportTraits@@UEBANXZ
  ?btrId@NcDbXrefGraphNode@@QEBA?AVNcDbObjectId@@XZ
  ?buffer@?$HostArray@HV?$HostMemoryAllocator@H@@@@AEBAPEAUBuffer@1@XZ
  ?buffer@?$HostArray@NV?$HostMemoryAllocator@N@@@@AEBAPEAUBuffer@1@XZ
  ?buffer@?$HostArray@PEAUHINSTANCE__@@V?$HostObjectsAllocator@PEAUHINSTANCE__@@@@@@AEBAPEAUBuffer@1@XZ
  ?buffer@?$HostArray@PEAVNcDb2dVertex@@V?$HostObjectsAllocator@PEAVNcDb2dVertex@@@@@@AEBAPEAUBuffer@1@XZ
  ?buffer@?$HostArray@PEAVNcDb3dPolylineVertex@@V?$HostObjectsAllocator@PEAVNcDb3dPolylineVertex@@@@@@AEBAPEAUBuffer@1@XZ
  ?buffer@?$HostArray@PEAVNcDbDimData@@V?$HostMemoryAllocator@PEAVNcDbDimData@@@@@@AEBAPEAUBuffer@1@XZ
  ?buffer@?$HostArray@PEAVNcDbEntity@@V?$HostObjectsAllocator@PEAVNcDbEntity@@@@@@AEBAPEAUBuffer@1@XZ
  ?buffer@?$HostArray@PEAVNcDbGripData@@V?$HostMemoryAllocator@PEAVNcDbGripData@@@@@@AEBAPEAUBuffer@1@XZ
  ?buffer@?$HostArray@PEAVNcDbNurbSurface@@V?$HostObjectsAllocator@PEAVNcDbNurbSurface@@@@@@AEBAPEAUBuffer@1@XZ
  ?buffer@?$HostArray@PEAVNcDbPolygonMeshVertex@@V?$HostObjectsAllocator@PEAVNcDbPolygonMeshVertex@@@@@@AEBAPEAUBuffer@1@XZ
  ?buffer@?$HostArray@PEAVNcDbVertex@@V?$HostObjectsAllocator@PEAVNcDbVertex@@@@@@AEBAPEAUBuffer@1@XZ
  ?buffer@?$HostArray@PEAVNcLyLayerFilter@@V?$HostObjectsAllocator@PEAVNcLyLayerFilter@@@@@@AEBAPEAUBuffer@1@XZ
  ?buffer@?$HostArray@PEAVNcTransaction@@V?$HostObjectsAllocator@PEAVNcTransaction@@@@@@AEBAPEAUBuffer@1@XZ
  ?buffer@?$HostArray@PEAVNsdkHlrData@@V?$HostObjectsAllocator@PEAVNsdkHlrData@@@@@@AEBAPEAUBuffer@1@XZ
  ?buffer@?$HostArray@PEAVOdDbEntity@@V?$HostObjectsAllocator@PEAVOdDbEntity@@@@@@AEBAPEAUBuffer@1@XZ
  ?buffer@?$HostArray@PEAXV?$HostMemoryAllocator@PEAX@@@@AEBAPEAUBuffer@1@XZ
  ?buffer@?$HostArray@VMcGeVector2d@@V?$HostMemoryAllocator@VMcGeVector2d@@@@@@AEBAPEAUBuffer@1@XZ
  ?buffer@?$HostArray@VNcDbEvalVariant@@V?$HostMemoryAllocator@VNcDbEvalVariant@@@@@@AEBAPEAUBuffer@1@XZ
  ?buffer@?$HostArray@VNcDbFullSubentPath@@V?$HostObjectsAllocator@VNcDbFullSubentPath@@@@@@AEBAPEAUBuffer@1@XZ
  ?buffer@?$HostArray@VNcDbObjectId@@V?$HostObjectsAllocator@VNcDbObjectId@@@@@@AEBAPEAUBuffer@1@XZ
  ?buffer@?$HostArray@VNcGePoint2d@@V?$HostMemoryAllocator@VNcGePoint2d@@@@@@AEBAPEAUBuffer@1@XZ
  ?buffer@?$HostArray@VNcGePoint3d@@V?$HostMemoryAllocator@VNcGePoint3d@@@@@@AEBAPEAUBuffer@1@XZ
  ?buffer@?$HostArray@VNcGeVector3d@@V?$HostMemoryAllocator@VNcGeVector3d@@@@@@AEBAPEAUBuffer@1@XZ
  ?buffer@?$HostArray@_JV?$HostMemoryAllocator@_J@@@@AEBAPEAUBuffer@1@XZ
  ?buffer@INcPcPointProcessor@@QEAAPEAVINcPcDataBuffer@@XZ
  ?buffersForComposition@NcDbFilteredBlockIterator@@UEBAHXZ
  ?buildFitData@NcGeNurbCurve2d@@QEAAHXZ
  ?buildFitData@NcGeNurbCurve3d@@QEAAHXZ
  ?bulge@NcDb2dVertex@@QEBANXZ
  ?bump@NcDbMaterial@@UEBAXAEAVNcGiMaterialMap@@@Z
  ?bump@NcGiMaterialTraits@@UEBAXAEAVNcGiMaterialMap@@@Z
  ?byBlockLineWeight@NcGiContext@@UEBA?AW4LineWeight@NcDb@@XZ
  ?byBlockLinetype@NcDbDatabase@@QEBA?AVNcDbObjectId@@XZ
  ?byBlockMaterial@NcDbDatabase@@QEBA?AVNcDbObjectId@@XZ
  ?byBlockMaterialId@NcGiContext@@UEBA?AVNcDbObjectId@@XZ
  ?byBlockPlotStyleNameId@NcGiContext@@UEBA?AVNcDbObjectId@@XZ
  ?byLayerLinetype@NcDbDatabase@@QEBA?AVNcDbObjectId@@XZ
  ?byLayerMaterial@NcDbDatabase@@QEBA?AVNcDbObjectId@@XZ
  ?byte@NcDbHandle@@QEBAHK@Z
  ?bytesInString@StringBuffer@Ntil@@SAHPEBEW4CharacterType@12@@Z
  ?bytesPerRow@DataModel@Ntil@@SAHHW4BitsPerPixel@DataModelAttributes@2@@Z
  ?bytesPerRow@ImageFilter@Ntil@@UEBAHXZ
  ?bytesPerRow@RowProviderInterface@Ntil@@UEBAHXZ
  ?cDoc@NcApDocument@@UEBAPEAVCDocument@@XZ
  ?cDynDisplayMode@NcDbDatabase@@QEBAFXZ
  ?c_str@NcString@@QEBAPEBGXZ
  ?cacheSymbolIndices@NcDbHostApplicationServices@@UEBA_NXZ
  ?calcTransform@NcDbPointRef@@SA_NAEBV?$NcArray@VNcDbObjectId@@V?$HostObjectsAllocator@VNcDbObjectId@@@@@@AEAVNcGeMatrix3d@@@Z
  ?calculate2LineAngDimArcLocation@NcDbDimAssoc@@IEAA?AW4ErrorStatus@Nano@@PEBVNcGePoint3d@@AEBV4@10AEBVNcGeVector3d@@AEAV4@3@Z
  ?calculate3PointAngDimArcLocation@NcDbDimAssoc@@IEAA?AW4ErrorStatus@Nano@@PEBVNcGePoint3d@@AEBV4@10AEBVNcGeVector3d@@AEAV4@3@Z
  ?callEntryPoint@NcRxDynamicLinkerImpl@@QEAA?AW4AppRetCode@NcRx@@PEAUHINSTANCE__@@W4AppMsgCode@3@PEAX@Z
  ?camera@NcDbViewTableRecord@@QEBA?AVNcDbObjectId@@XZ
  ?cameraDisplay@NcDbDatabase@@QEBA_NXZ
  ?cameraHeight@NcDbDatabase@@QEBANXZ
  ?cameraPath@NcDbMotionPath@@QEBA?AVNcDbObjectId@@XZ
  ?canConvertFrom@BitonalModel@Ntil@@UEBA_NPEBVColorModelInterface@2@@Z
  ?canConvertFrom@ColorModelInterface@Ntil@@UEBA_NPEBV12@@Z
  ?canConvertFrom@RgbGrayModel@Ntil@@UEBA_NPEBVColorModelInterface@2@@Z
  ?canConvertFrom@RgbModel@Ntil@@UEBA_NPEBVColorModelInterface@2@@Z
  ?canConvertFrom@RgbPaletteModel@Ntil@@UEBA_NPEBVColorModelInterface@2@@Z
  ?canConvertTo@BitonalModel@Ntil@@UEBA_NPEBVColorModelInterface@2@@Z
  ?canConvertTo@ColorModelInterface@Ntil@@UEBA_NPEBV12@@Z
  ?canConvertTo@RgbGrayModel@Ntil@@UEBA_NPEBVColorModelInterface@2@@Z
  ?canConvertTo@RgbModel@Ntil@@UEBA_NPEBVColorModelInterface@2@@Z
  ?canConvertTo@RgbPaletteModel@Ntil@@UEBA_NPEBVColorModelInterface@2@@Z
  ?canDelete@NcDbLinkedTableData@@UEBA_NHH_N@Z
  ?canDelete@NcDbTable@@QEBA_NHH_N@Z
  ?canGetValue@NcDbAssocValueProviderPE@@UEAA_NPEBVNcDbObject@@AEBVNcString@@@Z
  ?canInsert@NcDbLinkedTableData@@UEBA_NH_N@Z
  ?canInsert@NcDbTable@@QEBA_NH_N@Z
  ?canLoadModule@NcRxDynamicLinkerImpl@@UEAA_NPEB_W@Z
  ?canSetValue@NcDbAssocValueProviderPE@@UEAA_NPEBVNcDbObject@@AEBVNcString@@@Z
  ?cancel@INcPcPointProcessor@@UEAA_NXZ
  ?cancel@NcDbObject@@QEAA?AW4ErrorStatus@Nano@@XZ
  ?cancel@NcDbObjectOverrule@@UEAA?AW4ErrorStatus@Nano@@PEAVNcDbObject@@@Z
  ?cancelActionEvaluation@NcDbAssocEvaluationCallback@@UEAA_NXZ
  ?cancelled@NcDbObject@@UEAAXPEBV1@@Z
  ?cancelled@NcDbObjectReactor@@UEAAXPEBVNcDbObject@@@Z
  ?cannoscale@NcDbDatabase@@QEBAPEAVNcDbAnnotationScale@@XZ
  ?canonicalMediaNameList@NcDbPlotSettingsValidator@@UEAA?AW4ErrorStatus@Nano@@PEAVNcDbPlotSettings@@AEAV?$NcArray@PEB_WV?$HostObjectsAllocator@PEB_W@@@@@Z
  ?cap@NcDbSubDMesh@@QEAA?AW4ErrorStatus@Nano@@AEBV?$NcArray@VNcDbFullSubentPath@@V?$HostObjectsAllocator@VNcDbFullSubentPath@@@@@@@Z
  ?capacity@?$HostArray@HV?$HostMemoryAllocator@H@@@@QEBAIXZ
  ?capacity@?$HostArray@NV?$HostMemoryAllocator@N@@@@QEBAIXZ
  ?capacity@?$HostArray@PEAUHINSTANCE__@@V?$HostObjectsAllocator@PEAUHINSTANCE__@@@@@@QEBAIXZ
  ?capacity@?$HostArray@PEAVNcDb2dVertex@@V?$HostObjectsAllocator@PEAVNcDb2dVertex@@@@@@QEBAIXZ
  ?capacity@?$HostArray@PEAVNcDb3dPolylineVertex@@V?$HostObjectsAllocator@PEAVNcDb3dPolylineVertex@@@@@@QEBAIXZ
  ?capacity@?$HostArray@PEAVNcDbDimData@@V?$HostMemoryAllocator@PEAVNcDbDimData@@@@@@QEBAIXZ
  ?capacity@?$HostArray@PEAVNcDbEntity@@V?$HostObjectsAllocator@PEAVNcDbEntity@@@@@@QEBAIXZ
  ?capacity@?$HostArray@PEAVNcDbGripData@@V?$HostMemoryAllocator@PEAVNcDbGripData@@@@@@QEBAIXZ
  ?capacity@?$HostArray@PEAVNcDbNurbSurface@@V?$HostObjectsAllocator@PEAVNcDbNurbSurface@@@@@@QEBAIXZ
  ?capacity@?$HostArray@PEAVNcDbPolygonMeshVertex@@V?$HostObjectsAllocator@PEAVNcDbPolygonMeshVertex@@@@@@QEBAIXZ
  ?capacity@?$HostArray@PEAVNcDbVertex@@V?$HostObjectsAllocator@PEAVNcDbVertex@@@@@@QEBAIXZ
  ?capacity@?$HostArray@PEAVNcLyLayerFilter@@V?$HostObjectsAllocator@PEAVNcLyLayerFilter@@@@@@QEBAIXZ
  ?capacity@?$HostArray@PEAVNcTransaction@@V?$HostObjectsAllocator@PEAVNcTransaction@@@@@@QEBAIXZ
  ?capacity@?$HostArray@PEAVNsdkHlrData@@V?$HostObjectsAllocator@PEAVNsdkHlrData@@@@@@QEBAIXZ
  ?capacity@?$HostArray@PEAVOdDbEntity@@V?$HostObjectsAllocator@PEAVOdDbEntity@@@@@@QEBAIXZ
  ?capacity@?$HostArray@PEAXV?$HostMemoryAllocator@PEAX@@@@QEBAIXZ
  ?capacity@?$HostArray@VMcGeVector2d@@V?$HostMemoryAllocator@VMcGeVector2d@@@@@@QEBAIXZ
  ?capacity@?$HostArray@VNcDbEvalVariant@@V?$HostMemoryAllocator@VNcDbEvalVariant@@@@@@QEBAIXZ
  ?capacity@?$HostArray@VNcDbFullSubentPath@@V?$HostObjectsAllocator@VNcDbFullSubentPath@@@@@@QEBAIXZ
  ?capacity@?$HostArray@VNcDbObjectId@@V?$HostObjectsAllocator@VNcDbObjectId@@@@@@QEBAIXZ
  ?capacity@?$HostArray@VNcGePoint2d@@V?$HostMemoryAllocator@VNcGePoint2d@@@@@@QEBAIXZ
  ?capacity@?$HostArray@VNcGePoint3d@@V?$HostMemoryAllocator@VNcGePoint3d@@@@@@QEBAIXZ
  ?capacity@?$HostArray@VNcGeVector3d@@V?$HostMemoryAllocator@VNcGeVector3d@@@@@@QEBAIXZ
  ?capacity@?$HostArray@_JV?$HostMemoryAllocator@_J@@@@QEBAIXZ
  ?caps@NcRxDynamicLinkerImpl@@UEAAKXZ
  ?capture@NcDbTableTemplate@@UEAA?AW4ErrorStatus@Nano@@PEBVNcDbTable@@W4TableCopyOption@NcDb@@@Z
  ?cartesianSnappedPoint@NcEdInputPoint@@QEBAAEBVNcGePoint3d@@XZ
  ?cast@INativeExtension@@SA?AV?$OdSmartPtr@VINativeExtension@@@@PEBVOdRxObject@@@Z
  ?cast@IWrapperQuery@@SA?AV?$OdSmartPtr@VIWrapperQuery@@@@PEBVOdRxObject@@@Z
  ?cast@Nc3PointAngleConstraint@@SAPEAV1@PEBVNcRxObject@@@Z
  ?cast@NcAngleConstraint@@SAPEAV1@PEBVNcRxObject@@@Z
  ?cast@NcApDocManager@@SAPEAV1@PEBVNcRxObject@@@Z
  ?cast@NcApDocManagerReactor@@SAPEAV1@PEBVNcRxObject@@@Z
  ?cast@NcApDocument@@SAPEAV1@PEBVNcRxObject@@@Z
  ?cast@NcApDocumentIterator@@SAPEAV1@PEBVNcRxObject@@@Z
  ?cast@NcApLongTransactionManager@@SAPEAV1@PEBVNcRxObject@@@Z
  ?cast@NcApLongTransactionReactor@@SAPEAV1@PEBVNcRxObject@@@Z
  ?cast@NcBrBrep@@SAPEAV1@PEBVNcRxObject@@@Z
  ?cast@NcBrBrepComplexTraverser@@SAPEAV1@PEBVNcRxObject@@@Z
  ?cast@NcBrBrepEdgeTraverser@@SAPEAV1@PEBVNcRxObject@@@Z
  ?cast@NcBrBrepFaceTraverser@@SAPEAV1@PEBVNcRxObject@@@Z
  ?cast@NcBrBrepShellTraverser@@SAPEAV1@PEBVNcRxObject@@@Z
  ?cast@NcBrBrepVertexTraverser@@SAPEAV1@PEBVNcRxObject@@@Z
  ?cast@NcBrComplex@@SAPEAV1@PEBVNcRxObject@@@Z
  ?cast@NcBrComplexShellTraverser@@SAPEAV1@PEBVNcRxObject@@@Z
  ?cast@NcBrEdge@@SAPEAV1@PEBVNcRxObject@@@Z
  ?cast@NcBrEdgeLoopTraverser@@SAPEAV1@PEBVNcRxObject@@@Z
  ?cast@NcBrElement2d@@SAPEAV1@PEBVNcRxObject@@@Z
  ?cast@NcBrElement2dNodeTraverser@@SAPEAV1@PEBVNcRxObject@@@Z
  ?cast@NcBrElement@@SAPEAV1@PEBVNcRxObject@@@Z
  ?cast@NcBrEntity@@SAPEAV1@PEBVNcRxObject@@@Z
  ?cast@NcBrFace@@SAPEAV1@PEBVNcRxObject@@@Z
  ?cast@NcBrFaceLoopTraverser@@SAPEAV1@PEBVNcRxObject@@@Z
  ?cast@NcBrHit@@SAPEAV1@PEBVNcRxObject@@@Z
  ?cast@NcBrLoop@@SAPEAV1@PEBVNcRxObject@@@Z
  ?cast@NcBrLoopEdgeTraverser@@SAPEAV1@PEBVNcRxObject@@@Z
  ?cast@NcBrLoopVertexTraverser@@SAPEAV1@PEBVNcRxObject@@@Z
  ?cast@NcBrMesh2d@@SAPEAV1@PEBVNcRxObject@@@Z
  ?cast@NcBrMesh2dControl@@SAPEAV1@PEBVNcRxObject@@@Z
  ?cast@NcBrMesh2dElement2dTraverser@@SAPEAV1@PEBVNcRxObject@@@Z
  ?cast@NcBrMesh@@SAPEAV1@PEBVNcRxObject@@@Z
  ?cast@NcBrMeshControl@@SAPEAV1@PEBVNcRxObject@@@Z
  ?cast@NcBrMeshEntity@@SAPEAV1@PEBVNcRxObject@@@Z
  ?cast@NcBrNode@@SAPEAV1@PEBVNcRxObject@@@Z
  ?cast@NcBrShell@@SAPEAV1@PEBVNcRxObject@@@Z
  ?cast@NcBrShellFaceTraverser@@SAPEAV1@PEBVNcRxObject@@@Z
  ?cast@NcBrTraverser@@SAPEAV1@PEBVNcRxObject@@@Z
  ?cast@NcBrVertex@@SAPEAV1@PEBVNcRxObject@@@Z
  ?cast@NcBrVertexEdgeTraverser@@SAPEAV1@PEBVNcRxObject@@@Z
  ?cast@NcBrVertexLoopTraverser@@SAPEAV1@PEBVNcRxObject@@@Z
  ?cast@NcCenterPointConstraint@@SAPEAV1@PEBVNcRxObject@@@Z
  ?cast@NcCmComplexColor@@SAPEAV1@PEBVNcRxObject@@@Z
  ?cast@NcColinearConstraint@@SAPEAV1@PEBVNcRxObject@@@Z
  ?cast@NcCompositeConstraint@@SAPEAV1@PEBVNcRxObject@@@Z
  ?cast@NcConcentricConstraint@@SAPEAV1@PEBVNcRxObject@@@Z
  ?cast@NcConstrained2PointsConstructionLine@@SAPEAV1@PEBVNcRxObject@@@Z
  ?cast@NcConstrainedArc@@SAPEAV1@PEBVNcRxObject@@@Z
  ?cast@NcConstrainedBoundedEllipse@@SAPEAV1@PEBVNcRxObject@@@Z
  ?cast@NcConstrainedBoundedLine@@SAPEAV1@PEBVNcRxObject@@@Z
  ?cast@NcConstrainedCircle@@SAPEAV1@PEBVNcRxObject@@@Z
  ?cast@NcConstrainedConstructionLine@@SAPEAV1@PEBVNcRxObject@@@Z
  ?cast@NcConstrainedCurve@@SAPEAV1@PEBVNcRxObject@@@Z
  ?cast@NcConstrainedDatumLine@@SAPEAV1@PEBVNcRxObject@@@Z
  ?cast@NcConstrainedEllipse@@SAPEAV1@PEBVNcRxObject@@@Z
  ?cast@NcConstrainedGeometry@@SAPEAV1@PEBVNcRxObject@@@Z
  ?cast@NcConstrainedImplicitPoint@@SAPEAV1@PEBVNcRxObject@@@Z
  ?cast@NcConstrainedLine@@SAPEAV1@PEBVNcRxObject@@@Z
  ?cast@NcConstrainedPoint@@SAPEAV1@PEBVNcRxObject@@@Z
  ?cast@NcConstrainedRigidSet@@SAPEAV1@PEBVNcRxObject@@@Z
  ?cast@NcConstrainedSpline@@SAPEAV1@PEBVNcRxObject@@@Z
  ?cast@NcConstraintGroupNode@@SAPEAV1@PEBVNcRxObject@@@Z
  ?cast@NcDb2LineAngularDimension@@SAPEAV1@PEBVNcRxObject@@@Z
  ?cast@NcDb2dPolyline@@SAPEAV1@PEBVNcRxObject@@@Z
  ?cast@NcDb2dVertex@@SAPEAV1@PEBVNcRxObject@@@Z
  ?cast@NcDb3PointAngularDimension@@SAPEAV1@PEBVNcRxObject@@@Z
  ?cast@NcDb3dPolyline@@SAPEAV1@PEBVNcRxObject@@@Z
  ?cast@NcDb3dPolylineVertex@@SAPEAV1@PEBVNcRxObject@@@Z
  ?cast@NcDb3dProfile@@SAPEAV1@PEBVNcRxObject@@@Z
  ?cast@NcDb3dSolid@@SAPEAV1@PEBVNcRxObject@@@Z
  ?cast@NcDbAbstractViewTable@@SAPEAV1@PEBVNcRxObject@@@Z
  ?cast@NcDbAbstractViewTableRecord@@SAPEAV1@PEBVNcRxObject@@@Z
  ?cast@NcDbAlignedDimension@@SAPEAV1@PEBVNcRxObject@@@Z
  ?cast@NcDbAlignment@@SAPEAV1@PEBVNcRxObject@@@Z
  ?cast@NcDbAnnotationScale@@SAPEAV1@PEBVNcRxObject@@@Z
  ?cast@NcDbAnnotationScaleReactor@@SAPEAV1@PEBVNcRxObject@@@Z
  ?cast@NcDbAnnotativeObjectPE@@SAPEAV1@PEBVNcRxObject@@@Z
  ?cast@NcDbAppEntityGrips@@SAPEAV1@PEBVNcRxObject@@@Z
  ?cast@NcDbArc@@SAPEAV1@PEBVNcRxObject@@@Z
  ?cast@NcDbArcDimension@@SAPEAV1@PEBVNcRxObject@@@Z
  ?cast@NcDbAssoc2dConstraintGroup@@SAPEAV1@PEBVNcRxObject@@@Z
  ?cast@NcDbAssocAction@@SAPEAV1@PEBVNcRxObject@@@Z
  ?cast@NcDbAssocActionBody@@SAPEAV1@PEBVNcRxObject@@@Z
  ?cast@NcDbAssocActionParam@@SAPEAV1@PEBVNcRxObject@@@Z
  ?cast@NcDbAssocAsmBodyActionParam@@SAPEAV1@PEBVNcRxObject@@@Z
  ?cast@NcDbAssocBlendSurfaceActionBody@@SAPEAV1@PEBVNcRxObject@@@Z
  ?cast@NcDbAssocCompoundActionParam@@SAPEAV1@PEBVNcRxObject@@@Z
  ?cast@NcDbAssocDependency@@SAPEAV1@PEBVNcRxObject@@@Z
  ?cast@NcDbAssocDependencyBody@@SAPEAV1@PEBVNcRxObject@@@Z
  ?cast@NcDbAssocDependencyPE@@SAPEAV1@PEBVNcRxObject@@@Z
  ?cast@NcDbAssocDimDependencyBody@@SAPEAV1@PEBVNcRxObject@@@Z
  ?cast@NcDbAssocDimDependencyBodyBase@@SAPEAV1@PEBVNcRxObject@@@Z
  ?cast@NcDbAssocEdgeActionParam@@SAPEAV1@PEBVNcRxObject@@@Z
  ?cast@NcDbAssocEdgeChamferActionBody@@SAPEAV1@PEBVNcRxObject@@@Z
  ?cast@NcDbAssocEdgeFilletActionBody@@SAPEAV1@PEBVNcRxObject@@@Z
  ?cast@NcDbAssocEdgePersSubentId@@SAPEAV1@PEBVNcRxObject@@@Z
  ?cast@NcDbAssocExtendSurfaceActionBody@@SAPEAV1@PEBVNcRxObject@@@Z
  ?cast@NcDbAssocExtrudedSurfaceActionBody@@SAPEAV1@PEBVNcRxObject@@@Z
  ?cast@NcDbAssocFaceActionParam@@SAPEAV1@PEBVNcRxObject@@@Z
  ?cast@NcDbAssocGeomDependency@@SAPEAV1@PEBVNcRxObject@@@Z
  ?cast@NcDbAssocLoftedSurfaceActionBody@@SAPEAV1@PEBVNcRxObject@@@Z
  ?cast@NcDbAssocManager@@SAPEAV1@PEBVNcRxObject@@@Z
  ?cast@NcDbAssocNetwork@@SAPEAV1@PEBVNcRxObject@@@Z
  ?cast@NcDbAssocNetworkSurfaceActionBody@@SAPEAV1@PEBVNcRxObject@@@Z
  ?cast@NcDbAssocOffsetSurfaceActionBody@@SAPEAV1@PEBVNcRxObject@@@Z
  ?cast@NcDbAssocParamBasedActionBody@@SAPEAV1@PEBVNcRxObject@@@Z
  ?cast@NcDbAssocPatchSurfaceActionBody@@SAPEAV1@PEBVNcRxObject@@@Z
  ?cast@NcDbAssocPathActionParam@@SAPEAV1@PEBVNcRxObject@@@Z
  ?cast@NcDbAssocPathBasedSurfaceActionBody@@SAPEAV1@PEBVNcRxObject@@@Z
  ?cast@NcDbAssocPersSubentId@@SAPEAV1@PEBVNcRxObject@@@Z
  ?cast@NcDbAssocPersSubentIdPE@@SAPEAV1@PEBVNcRxObject@@@Z
  ?cast@NcDbAssocPlaneSurfaceActionBody@@SAPEAV1@PEBVNcRxObject@@@Z
  ?cast@NcDbAssocRevolvedSurfaceActionBody@@SAPEAV1@PEBVNcRxObject@@@Z
  ?cast@NcDbAssocSimplePersSubentId@@SAPEAV1@PEBVNcRxObject@@@Z
  ?cast@NcDbAssocSingleEdgePersSubentId@@SAPEAV1@PEBVNcRxObject@@@Z
  ?cast@NcDbAssocSurfaceActionBody@@SAPEAV1@PEBVNcRxObject@@@Z
  ?cast@NcDbAssocSweptSurfaceActionBody@@SAPEAV1@PEBVNcRxObject@@@Z
  ?cast@NcDbAssocTrimSurfaceActionBody@@SAPEAV1@PEBVNcRxObject@@@Z
  ?cast@NcDbAssocValueDependency@@SAPEAV1@PEBVNcRxObject@@@Z
  ?cast@NcDbAssocValueProviderPE@@SAPEAV1@PEBVNcRxObject@@@Z
  ?cast@NcDbAssocVariable@@SAPEAV1@PEBVNcRxObject@@@Z
  ?cast@NcDbAssocVertexActionParam@@SAPEAV1@PEBVNcRxObject@@@Z
  ?cast@NcDbAttribute@@SAPEAV1@PEBVNcRxObject@@@Z
  ?cast@NcDbAttributeDefinition@@SAPEAV1@PEBVNcRxObject@@@Z
  ?cast@NcDbAuditRecreatePE@@SAPEAV1@PEBVNcRxObject@@@Z
  ?cast@NcDbBackground@@SAPEAV1@PEBVNcRxObject@@@Z
  ?cast@NcDbBlockBegin@@SAPEAV1@PEBVNcRxObject@@@Z
  ?cast@NcDbBlockEnd@@SAPEAV1@PEBVNcRxObject@@@Z
  ?cast@NcDbBlockInsertionPoints@@SAPEAV1@PEBVNcRxObject@@@Z
  ?cast@NcDbBlockReference@@SAPEAV1@PEBVNcRxObject@@@Z
  ?cast@NcDbBlockTable@@SAPEAV1@PEBVNcRxObject@@@Z
  ?cast@NcDbBlockTableRecord@@SAPEAV1@PEBVNcRxObject@@@Z
  ?cast@NcDbBody@@SAPEAV1@PEBVNcRxObject@@@Z
  ?cast@NcDbBreakData@@SAPEAV1@PEBVNcRxObject@@@Z
  ?cast@NcDbBreakPointRef@@SAPEAV1@PEBVNcRxObject@@@Z
  ?cast@NcDbCamera@@SAPEAV1@PEBVNcRxObject@@@Z
  ?cast@NcDbCircle@@SAPEAV1@PEBVNcRxObject@@@Z
  ?cast@NcDbColor@@SAPEAV1@PEBVNcRxObject@@@Z
  ?cast@NcDbCompoundObjectId@@SAPEAV1@PEBVNcRxObject@@@Z
  ?cast@NcDbCurve@@SAPEAV1@PEBVNcRxObject@@@Z
  ?cast@NcDbCurvePath@@SAPEAV1@PEBVNcRxObject@@@Z
  ?cast@NcDbCustomOsnapInfo@@SAPEAV1@PEBVNcRxObject@@@Z
  ?cast@NcDbDataCell@@SAPEAV1@PEBVNcRxObject@@@Z
  ?cast@NcDbDataColumn@@SAPEAV1@PEBVNcRxObject@@@Z
  ?cast@NcDbDataTable@@SAPEAV1@PEBVNcRxObject@@@Z
  ?cast@NcDbDatabase@@SAPEAV1@PEBVNcRxObject@@@Z
  ?cast@NcDbDatabaseReactor@@SAPEAV1@PEBVNcRxObject@@@Z
  ?cast@NcDbDatabaseSummaryInfo@@SAPEAV1@PEBVNcRxObject@@@Z
  ?cast@NcDbDeepCloneFiler@@SAPEAV1@PEBVNcRxObject@@@Z
  ?cast@NcDbDgnDefinition@@SAPEAV1@PEBVNcRxObject@@@Z
  ?cast@NcDbDgnReference@@SAPEAV1@PEBVNcRxObject@@@Z
  ?cast@NcDbDiametricDimension@@SAPEAV1@PEBVNcRxObject@@@Z
  ?cast@NcDbDictionary@@SAPEAV1@PEBVNcRxObject@@@Z
  ?cast@NcDbDictionaryIterator@@SAPEAV1@PEBVNcRxObject@@@Z
  ?cast@NcDbDictionaryWithDefault@@SAPEAV1@PEBVNcRxObject@@@Z
  ?cast@NcDbDimAssoc@@SAPEAV1@PEBVNcRxObject@@@Z
  ?cast@NcDbDimStyleTable@@SAPEAV1@PEBVNcRxObject@@@Z
  ?cast@NcDbDimStyleTableRecord@@SAPEAV1@PEBVNcRxObject@@@Z
  ?cast@NcDbDimension@@SAPEAV1@PEBVNcRxObject@@@Z
  ?cast@NcDbDimensionStyleOverrule@@SAPEAV1@PEBVNcRxObject@@@Z
  ?cast@NcDbDoubleClickEdit@@SAPEAV1@PEBVNcRxObject@@@Z
  ?cast@NcDbDwfDefinition@@SAPEAV1@PEBVNcRxObject@@@Z
  ?cast@NcDbDwfReference@@SAPEAV1@PEBVNcRxObject@@@Z
  ?cast@NcDbDwgFiler@@SAPEAV1@PEBVNcRxObject@@@Z
  ?cast@NcDbDxfFiler@@SAPEAV1@PEBVNcRxObject@@@Z
  ?cast@NcDbDynamicUCSPE@@SAPEAV1@PEBVNcRxObject@@@Z
  ?cast@NcDbEdgeRef@@SAPEAV1@PEBVNcRxObject@@@Z
  ?cast@NcDbEllipse@@SAPEAV1@PEBVNcRxObject@@@Z
  ?cast@NcDbEntity@@SAPEAV1@PEBVNcRxObject@@@Z
  ?cast@NcDbEntityHyperlinkPE@@SAPEAV1@PEBVNcRxObject@@@Z
  ?cast@NcDbEntityReactor@@SAPEAV1@PEBVNcRxObject@@@Z
  ?cast@NcDbEvalConnectable@@SAPEAV1@PEBVNcRxObject@@@Z
  ?cast@NcDbEvalContext@@SAPEAV1@PEBVNcRxObject@@@Z
  ?cast@NcDbEvalContextIterator@@SAPEAV1@PEBVNcRxObject@@@Z
  ?cast@NcDbEvalExpr@@SAPEAV1@PEBVNcRxObject@@@Z
  ?cast@NcDbEvalGraph@@SAPEAV1@PEBVNcRxObject@@@Z
  ?cast@NcDbEvalVariant@@SAPEAV1@PEBVNcRxObject@@@Z
  ?cast@NcDbExtrudedSurface@@SAPEAV1@PEBVNcRxObject@@@Z
  ?cast@NcDbFace@@SAPEAV1@PEBVNcRxObject@@@Z
  ?cast@NcDbFaceRecord@@SAPEAV1@PEBVNcRxObject@@@Z
  ?cast@NcDbFaceRef@@SAPEAV1@PEBVNcRxObject@@@Z
  ?cast@NcDbFcf@@SAPEAV1@PEBVNcRxObject@@@Z
  ?cast@NcDbFilter@@SAPEAV1@PEBVNcRxObject@@@Z
  ?cast@NcDbFormattedTableData@@SAPEAV1@PEBVNcRxObject@@@Z
  ?cast@NcDbFrame@@SAPEAV1@PEBVNcRxObject@@@Z
  ?cast@NcDbGeomRef@@SAPEAV1@PEBVNcRxObject@@@Z
  ?cast@NcDbGeometryOverrule@@SAPEAV1@PEBVNcRxObject@@@Z
  ?cast@NcDbGradientBackground@@SAPEAV1@PEBVNcRxObject@@@Z
  ?cast@NcDbGripOverrule@@SAPEAV1@PEBVNcRxObject@@@Z
  ?cast@NcDbGroundPlaneBackground@@SAPEAV1@PEBVNcRxObject@@@Z
  ?cast@NcDbGroup@@SAPEAV1@PEBVNcRxObject@@@Z
  ?cast@NcDbGroupIterator@@SAPEAV1@PEBVNcRxObject@@@Z
  ?cast@NcDbHatch@@SAPEAV1@PEBVNcRxObject@@@Z
  ?cast@NcDbHelix@@SAPEAV1@PEBVNcRxObject@@@Z
  ?cast@NcDbHighlightOverrule@@SAPEAV1@PEBVNcRxObject@@@Z
  ?cast@NcDbHighlightStateOverrule@@SAPEAV1@PEBVNcRxObject@@@Z
  ?cast@NcDbHostApplicationServices@@SAPEAV1@PEBVNcRxObject@@@Z
  ?cast@NcDbIdMapping@@SAPEAV1@PEBVNcRxObject@@@Z
  ?cast@NcDbIdMappingIter@@SAPEAV1@PEBVNcRxObject@@@Z
  ?cast@NcDbImage@@SAPEAV1@PEBVNcRxObject@@@Z
  ?cast@NcDbImageBackground@@SAPEAV1@PEBVNcRxObject@@@Z
  ?cast@NcDbIndex@@SAPEAV1@PEBVNcRxObject@@@Z
  ?cast@NcDbInterferencePE@@SAPEAV1@PEBVNcRxObject@@@Z
  ?cast@NcDbJoinEntityPE@@SAPEAV1@PEBVNcRxObject@@@Z
  ?cast@NcDbLayerFilter@@SAPEAV1@PEBVNcRxObject@@@Z
  ?cast@NcDbLayerIndex@@SAPEAV1@PEBVNcRxObject@@@Z
  ?cast@NcDbLayerStateManager@@SAPEAV1@PEBVNcRxObject@@@Z
  ?cast@NcDbLayerStateManagerReactor@@SAPEAV1@PEBVNcRxObject@@@Z
  ?cast@NcDbLayerTable@@SAPEAV1@PEBVNcRxObject@@@Z
  ?cast@NcDbLayerTableRecord@@SAPEAV1@PEBVNcRxObject@@@Z
  ?cast@NcDbLayout@@SAPEAV1@PEBVNcRxObject@@@Z
  ?cast@NcDbLayoutManager@@SAPEAV1@PEBVNcRxObject@@@Z
  ?cast@NcDbLayoutManagerReactor@@SAPEAV1@PEBVNcRxObject@@@Z
  ?cast@NcDbLeader@@SAPEAV1@PEBVNcRxObject@@@Z
  ?cast@NcDbLight@@SAPEAV1@PEBVNcRxObject@@@Z
  ?cast@NcDbLine@@SAPEAV1@PEBVNcRxObject@@@Z
  ?cast@NcDbLinetypeTable@@SAPEAV1@PEBVNcRxObject@@@Z
  ?cast@NcDbLinetypeTableRecord@@SAPEAV1@PEBVNcRxObject@@@Z
  ?cast@NcDbLinkedData@@SAPEAV1@PEBVNcRxObject@@@Z
  ?cast@NcDbLinkedTableData@@SAPEAV1@PEBVNcRxObject@@@Z
  ?cast@NcDbLoftProfile@@SAPEAV1@PEBVNcRxObject@@@Z
  ?cast@NcDbLongTransWorkSetIterator@@SAPEAV1@PEBVNcRxObject@@@Z
  ?cast@NcDbLongTransaction@@SAPEAV1@PEBVNcRxObject@@@Z
  ?cast@NcDbMInsertBlock@@SAPEAV1@PEBVNcRxObject@@@Z
  ?cast@NcDbMLeader@@SAPEAV1@PEBVNcRxObject@@@Z
  ?cast@NcDbMLeaderStyle@@SAPEAV1@PEBVNcRxObject@@@Z
  ?cast@NcDbMPolygon@@SAPEAV1@PEBVNcRxObject@@@Z
  ?cast@NcDbMText@@SAPEAV1@PEBVNcRxObject@@@Z
  ?cast@NcDbMatchProperties@@SAPEAV1@PEBVNcRxObject@@@Z
  ?cast@NcDbMaterial@@SAPEAV1@PEBVNcRxObject@@@Z
  ?cast@NcDbMentalRayRenderSettings@@SAPEAV1@PEBVNcRxObject@@@Z
  ?cast@NcDbMline@@SAPEAV1@PEBVNcRxObject@@@Z
  ?cast@NcDbMlineStyle@@SAPEAV1@PEBVNcRxObject@@@Z
  ?cast@NcDbMotionPath@@SAPEAV1@PEBVNcRxObject@@@Z
  ?cast@NcDbMultiModesGripPE@@SAPEAV1@PEBVNcRxObject@@@Z
  ?cast@NcDbNamedPath@@SAPEAV1@PEBVNcRxObject@@@Z
  ?cast@NcDbNurbSurface@@SAPEAV1@PEBVNcRxObject@@@Z
  ?cast@NcDbObject@@SAPEAV1@PEBVNcRxObject@@@Z
  ?cast@NcDbObjectContext@@SAPEAV1@PEBVNcRxObject@@@Z
  ?cast@NcDbObjectContextCollection@@SAPEAV1@PEBVNcRxObject@@@Z
  ?cast@NcDbObjectContextCollectionIterator@@SAPEAV1@PEBVNcRxObject@@@Z
  ?cast@NcDbObjectContextInterface@@SAPEAV1@PEBVNcRxObject@@@Z
  ?cast@NcDbObjectContextManager@@SAPEAV1@PEBVNcRxObject@@@Z
  ?cast@NcDbObjectIterator@@SAPEAV1@PEBVNcRxObject@@@Z
  ?cast@NcDbObjectOverrule@@SAPEAV1@PEBVNcRxObject@@@Z
  ?cast@NcDbObjectReactor@@SAPEAV1@PEBVNcRxObject@@@Z
  ?cast@NcDbOle2Frame@@SAPEAV1@PEBVNcRxObject@@@Z
  ?cast@NcDbOleFrame@@SAPEAV1@PEBVNcRxObject@@@Z
  ?cast@NcDbOrdinateDimension@@SAPEAV1@PEBVNcRxObject@@@Z
  ?cast@NcDbOsnapOverrule@@SAPEAV1@PEBVNcRxObject@@@Z
  ?cast@NcDbOsnapPointRef@@SAPEAV1@PEBVNcRxObject@@@Z
  ?cast@NcDbPaperOrientationPE@@SAPEAV1@PEBVNcRxObject@@@Z
  ?cast@NcDbPlaceHolder@@SAPEAV1@PEBVNcRxObject@@@Z
  ?cast@NcDbPlaneSurface@@SAPEAV1@PEBVNcRxObject@@@Z
  ?cast@NcDbPlotSettings@@SAPEAV1@PEBVNcRxObject@@@Z
  ?cast@NcDbPoint@@SAPEAV1@PEBVNcRxObject@@@Z
  ?cast@NcDbPointPath@@SAPEAV1@PEBVNcRxObject@@@Z
  ?cast@NcDbPointRef@@SAPEAV1@PEBVNcRxObject@@@Z
  ?cast@NcDbPolyFaceMesh@@SAPEAV1@PEBVNcRxObject@@@Z
  ?cast@NcDbPolyFaceMeshVertex@@SAPEAV1@PEBVNcRxObject@@@Z
  ?cast@NcDbPolygonMesh@@SAPEAV1@PEBVNcRxObject@@@Z
  ?cast@NcDbPolygonMeshVertex@@SAPEAV1@PEBVNcRxObject@@@Z
  ?cast@NcDbPolyline@@SAPEAV1@PEBVNcRxObject@@@Z
  ?cast@NcDbPropertiesOverrule@@SAPEAV1@PEBVNcRxObject@@@Z
  ?cast@NcDbPropertyFilterCustomizationPE@@SAPEAV1@PEBVNcRxObject@@@Z
  ?cast@NcDbProxyEntity@@SAPEAV1@PEBVNcRxObject@@@Z
  ?cast@NcDbProxyObject@@SAPEAV1@PEBVNcRxObject@@@Z
  ?cast@NcDbRadialDimension@@SAPEAV1@PEBVNcRxObject@@@Z
  ?cast@NcDbRadialDimensionLarge@@SAPEAV1@PEBVNcRxObject@@@Z
  ?cast@NcDbRasterImage@@SAPEAV1@PEBVNcRxObject@@@Z
  ?cast@NcDbRasterImageDef@@SAPEAV1@PEBVNcRxObject@@@Z
  ?cast@NcDbRasterImageDefFileAccessReactor@@SAPEAV1@PEBVNcRxObject@@@Z
  ?cast@NcDbRasterImageDefReactor@@SAPEAV1@PEBVNcRxObject@@@Z
  ?cast@NcDbRasterImageDefTransReactor@@SAPEAV1@PEBVNcRxObject@@@Z
  ?cast@NcDbRasterVariables@@SAPEAV1@PEBVNcRxObject@@@Z
  ?cast@NcDbRay@@SAPEAV1@PEBVNcRxObject@@@Z
  ?cast@NcDbRegAppTable@@SAPEAV1@PEBVNcRxObject@@@Z
  ?cast@NcDbRegAppTableRecord@@SAPEAV1@PEBVNcRxObject@@@Z
  ?cast@NcDbRegion@@SAPEAV1@PEBVNcRxObject@@@Z
  ?cast@NcDbRenderEnvironment@@SAPEAV1@PEBVNcRxObject@@@Z
  ?cast@NcDbRenderGlobal@@SAPEAV1@PEBVNcRxObject@@@Z
  ?cast@NcDbRenderSettings@@SAPEAV1@PEBVNcRxObject@@@Z
  ?cast@NcDbRevolvedSurface@@SAPEAV1@PEBVNcRxObject@@@Z
  ?cast@NcDbRotatedDimension@@SAPEAV1@PEBVNcRxObject@@@Z
  ?cast@NcDbSelectGrip@@SAPEAV1@PEBVNcRxObject@@@Z
  ?cast@NcDbSequenceEnd@@SAPEAV1@PEBVNcRxObject@@@Z
  ?cast@NcDbServices@@SAPEAV1@PEBVNcRxObject@@@Z
  ?cast@NcDbShape@@SAPEAV1@PEBVNcRxObject@@@Z
  ?cast@NcDbSkyBackground@@SAPEAV1@PEBVNcRxObject@@@Z
  ?cast@NcDbSolid@@SAPEAV1@PEBVNcRxObject@@@Z
  ?cast@NcDbSolidBackground@@SAPEAV1@PEBVNcRxObject@@@Z
  ?cast@NcDbSortentsTable@@SAPEAV1@PEBVNcRxObject@@@Z
  ?cast@NcDbSpatialFilter@@SAPEAV1@PEBVNcRxObject@@@Z
  ?cast@NcDbSpatialIndex@@SAPEAV1@PEBVNcRxObject@@@Z
  ?cast@NcDbSpline@@SAPEAV1@PEBVNcRxObject@@@Z
  ?cast@NcDbSubDMesh@@SAPEAV1@PEBVNcRxObject@@@Z
  ?cast@NcDbSubentRef@@SAPEAV1@PEBVNcRxObject@@@Z
  ?cast@NcDbSubentityOverrule@@SAPEAV1@PEBVNcRxObject@@@Z
  ?cast@NcDbSun@@SAPEAV1@PEBVNcRxObject@@@Z
  ?cast@NcDbSurface@@SAPEAV1@PEBVNcRxObject@@@Z
  ?cast@NcDbSymbolTable@@SAPEAV1@PEBVNcRxObject@@@Z
  ?cast@NcDbSymbolTableRecord@@SAPEAV1@PEBVNcRxObject@@@Z
  ?cast@NcDbTable@@SAPEAV1@PEBVNcRxObject@@@Z
  ?cast@NcDbTableContent@@SAPEAV1@PEBVNcRxObject@@@Z
  ?cast@NcDbTableStyle@@SAPEAV1@PEBVNcRxObject@@@Z
  ?cast@NcDbTableTemplate@@SAPEAV1@PEBVNcRxObject@@@Z
  ?cast@NcDbText@@SAPEAV1@PEBVNcRxObject@@@Z
  ?cast@NcDbTextFieldsPE@@SAPEAV1@PEBVNcRxObject@@@Z
  ?cast@NcDbTextStyleTable@@SAPEAV1@PEBVNcRxObject@@@Z
  ?cast@NcDbTextStyleTableRecord@@SAPEAV1@PEBVNcRxObject@@@Z
  ?cast@NcDbTrace@@SAPEAV1@PEBVNcRxObject@@@Z
  ?cast@NcDbTransactionManager@@SAPEAV1@PEBVNcRxObject@@@Z
  ?cast@NcDbTransformOverrule@@SAPEAV1@PEBVNcRxObject@@@Z
  ?cast@NcDbUCSTable@@SAPEAV1@PEBVNcRxObject@@@Z
  ?cast@NcDbUCSTableRecord@@SAPEAV1@PEBVNcRxObject@@@Z
  ?cast@NcDbUnderlayDefinition@@SAPEAV1@PEBVNcRxObject@@@Z
  ?cast@NcDbUnderlayReference@@SAPEAV1@PEBVNcRxObject@@@Z
  ?cast@NcDbVertex@@SAPEAV1@PEBVNcRxObject@@@Z
  ?cast@NcDbViewTable@@SAPEAV1@PEBVNcRxObject@@@Z
  ?cast@NcDbViewTableRecord@@SAPEAV1@PEBVNcRxObject@@@Z
  ?cast@NcDbViewport@@SAPEAV1@PEBVNcRxObject@@@Z
  ?cast@NcDbViewportTable@@SAPEAV1@PEBVNcRxObject@@@Z
  ?cast@NcDbViewportTableRecord@@SAPEAV1@PEBVNcRxObject@@@Z
  ?cast@NcDbVisibilityOverrule@@SAPEAV1@PEBVNcRxObject@@@Z
  ?cast@NcDbVisualStyle@@SAPEAV1@PEBVNcRxObject@@@Z
  ?cast@NcDbWblockCloneFiler@@SAPEAV1@PEBVNcRxObject@@@Z
  ?cast@NcDbWipeout@@SAPEAV1@PEBVNcRxObject@@@Z
  ?cast@NcDbXObject@@SAPEAV1@PEBVNcRxObject@@@Z
  ?cast@NcDbXline@@SAPEAV1@PEBVNcRxObject@@@Z
  ?cast@NcDbXrecord@@SAPEAV1@PEBVNcRxObject@@@Z
  ?cast@NcDbXrecordIterator@@SAPEAV1@PEBVNcRxObject@@@Z
  ?cast@NcDistanceConstraint@@SAPEAV1@PEBVNcRxObject@@@Z
  ?cast@NcEdInputPointFilter@@SAPEAV1@PEBVNcRxObject@@@Z
  ?cast@NcEdInputPointMonitor@@SAPEAV1@PEBVNcRxObject@@@Z
  ?cast@NcEqualCurvatureConstraint@@SAPEAV1@PEBVNcRxObject@@@Z
  ?cast@NcEqualDistanceConstraint@@SAPEAV1@PEBVNcRxObject@@@Z
  ?cast@NcEqualHelpParameterConstraint@@SAPEAV1@PEBVNcRxObject@@@Z
  ?cast@NcEqualLengthConstraint@@SAPEAV1@PEBVNcRxObject@@@Z
  ?cast@NcEqualRadiusConstraint@@SAPEAV1@PEBVNcRxObject@@@Z
  ?cast@NcExplicitConstraint@@SAPEAV1@PEBVNcRxObject@@@Z
  ?cast@NcFdFieldReactor@@SAPEAV1@PEBVNcRxObject@@@Z
  ?cast@NcFdFieldResult@@SAPEAV1@PEBVNcRxObject@@@Z
  ?cast@NcFixedConstraint@@SAPEAV1@PEBVNcRxObject@@@Z
  ?cast@NcG2SmoothConstraint@@SAPEAV1@PEBVNcRxObject@@@Z
  ?cast@NcGeomConstraint@@SAPEAV1@PEBVNcRxObject@@@Z
  ?cast@NcGiCommonDraw@@SAPEAV1@PEBVNcRxObject@@@Z
  ?cast@NcGiContext@@SAPEAV1@PEBVNcRxObject@@@Z
  ?cast@NcGiDisplayStyle@@SAPEAV1@PEBVNcRxObject@@@Z
  ?cast@NcGiDistantLightTraits2@@SAPEAV1@PEBVNcRxObject@@@Z
  ?cast@NcGiDistantLightTraits@@SAPEAV1@PEBVNcRxObject@@@Z
  ?cast@NcGiDrawable@@SAPEAV1@PEBVNcRxObject@@@Z
  ?cast@NcGiDrawableOverrule@@SAPEAV1@PEBVNcRxObject@@@Z
  ?cast@NcGiDrawableTraits2@@SAPEAV1@PEBVNcRxObject@@@Z
  ?cast@NcGiDrawableTraits@@SAPEAV1@PEBVNcRxObject@@@Z
  ?cast@NcGiEdgeData@@SAPEAV1@PEBVNcRxObject@@@Z
  ?cast@NcGiEdgeStyle@@SAPEAV1@PEBVNcRxObject@@@Z
  ?cast@NcGiFaceData@@SAPEAV1@PEBVNcRxObject@@@Z
  ?cast@NcGiFaceStyle@@SAPEAV1@PEBVNcRxObject@@@Z
  ?cast@NcGiGdiDrawObject@@SAPEAV1@PEBVNcRxObject@@@Z
  ?cast@NcGiGenericTexture@@SAPEAV1@PEBVNcRxObject@@@Z
  ?cast@NcGiGeometry@@SAPEAV1@PEBVNcRxObject@@@Z
  ?cast@NcGiGlyph@@SAPEAV1@PEBVNcRxObject@@@Z
  ?cast@NcGiGradientBackgroundTraits@@SAPEAV1@PEBVNcRxObject@@@Z
  ?cast@NcGiGroundPlaneBackgroundTraits@@SAPEAV1@PEBVNcRxObject@@@Z
  ?cast@NcGiImageBackgroundTraits@@SAPEAV1@PEBVNcRxObject@@@Z
  ?cast@NcGiImageFileTexture@@SAPEAV1@PEBVNcRxObject@@@Z
  ?cast@NcGiImageTexture@@SAPEAV1@PEBVNcRxObject@@@Z
  ?cast@NcGiLightAttenuation@@SAPEAV1@PEBVNcRxObject@@@Z
  ?cast@NcGiLightTraits@@SAPEAV1@PEBVNcRxObject@@@Z
  ?cast@NcGiLinetypeEngine@@SAPEAV1@PEBVNcRxObject@@@Z
  ?cast@NcGiMarbleTexture@@SAPEAV1@PEBVNcRxObject@@@Z
  ?cast@NcGiMaterialColor@@SAPEAV1@PEBVNcRxObject@@@Z
  ?cast@NcGiMaterialMap@@SAPEAV1@PEBVNcRxObject@@@Z
  ?cast@NcGiMaterialTexture@@SAPEAV1@PEBVNcRxObject@@@Z
  ?cast@NcGiMaterialTraits2@@SAPEAV1@PEBVNcRxObject@@@Z
  ?cast@NcGiMaterialTraits@@SAPEAV1@PEBVNcRxObject@@@Z
  ?cast@NcGiMentalRayRenderSettingsTraits2@@SAPEAV1@PEBVNcRxObject@@@Z
  ?cast@NcGiMentalRayRenderSettingsTraits3@@SAPEAV1@PEBVNcRxObject@@@Z
  ?cast@NcGiMentalRayRenderSettingsTraits@@SAPEAV1@PEBVNcRxObject@@@Z
  ?cast@NcGiNonEntityTraits@@SAPEAV1@PEBVNcRxObject@@@Z
  ?cast@NcGiPointLightTraits2@@SAPEAV1@PEBVNcRxObject@@@Z
  ?cast@NcGiPointLightTraits@@SAPEAV1@PEBVNcRxObject@@@Z
  ?cast@NcGiProceduralTexture@@SAPEAV1@PEBVNcRxObject@@@Z
  ?cast@NcGiRenderEnvironmentTraits@@SAPEAV1@PEBVNcRxObject@@@Z
  ?cast@NcGiRenderSettingsTraits@@SAPEAV1@PEBVNcRxObject@@@Z
  ?cast@NcGiShadowParameters2@@SAPEAV1@PEBVNcRxObject@@@Z
  ?cast@NcGiShadowParameters@@SAPEAV1@PEBVNcRxObject@@@Z
  ?cast@NcGiSkyBackgroundTraits@@SAPEAV1@PEBVNcRxObject@@@Z
  ?cast@NcGiSkyParameters@@SAPEAV1@PEBVNcRxObject@@@Z
  ?cast@NcGiSolidBackgroundTraits@@SAPEAV1@PEBVNcRxObject@@@Z
  ?cast@NcGiSpotLightTraits2@@SAPEAV1@PEBVNcRxObject@@@Z
  ?cast@NcGiSpotLightTraits@@SAPEAV1@PEBVNcRxObject@@@Z
  ?cast@NcGiStandardLightTraits@@SAPEAV1@PEBVNcRxObject@@@Z
  ?cast@NcGiSubEntityTraits@@SAPEAV1@PEBVNcRxObject@@@Z
  ?cast@NcGiTextStyle@@SAPEAV1@PEBVNcRxObject@@@Z
  ?cast@NcGiToneOperatorParameters@@SAPEAV1@PEBVNcRxObject@@@Z
  ?cast@NcGiVariant@@SAPEAV1@PEBVNcRxObject@@@Z
  ?cast@NcGiVertexData@@SAPEAV1@PEBVNcRxObject@@@Z
  ?cast@NcGiViewport@@SAPEAV1@PEBVNcRxObject@@@Z
  ?cast@NcGiViewportDrawNrx@@SAPEAV1@PEBVNcRxObject@@@Z
  ?cast@NcGiViewportGeometry@@SAPEAV1@PEBVNcRxObject@@@Z
  ?cast@NcGiViewportTraits@@SAPEAV1@PEBVNcRxObject@@@Z
  ?cast@NcGiVisualStyle@@SAPEAV1@PEBVNcRxObject@@@Z
  ?cast@NcGiVisualStyleTraits@@SAPEAV1@PEBVNcRxObject@@@Z
  ?cast@NcGiWebLightTraits@@SAPEAV1@PEBVNcRxObject@@@Z
  ?cast@NcGiWoodTexture@@SAPEAV1@PEBVNcRxObject@@@Z
  ?cast@NcGiWorldDraw@@SAPEAV1@PEBVNcRxObject@@@Z
  ?cast@NcGiWorldGeometry@@SAPEAV1@PEBVNcRxObject@@@Z
  ?cast@NcHelpParameter@@SAPEAV1@PEBVNcRxObject@@@Z
  ?cast@NcHorizontalConstraint@@SAPEAV1@PEBVNcRxObject@@@Z
  ?cast@NcLyLayerFilter@@SAPEAV1@PEBVNcRxObject@@@Z
  ?cast@NcLyLayerFilterManager@@SAPEAV1@PEBVNcRxObject@@@Z
  ?cast@NcLyLayerGroup@@SAPEAV1@PEBVNcRxObject@@@Z
  ?cast@NcMidPointConstraint@@SAPEAV1@PEBVNcRxObject@@@Z
  ?cast@NcNormalConstraint@@SAPEAV1@PEBVNcRxObject@@@Z
  ?cast@NcParallelConstraint@@SAPEAV1@PEBVNcRxObject@@@Z
  ?cast@NcPerpendicularConstraint@@SAPEAV1@PEBVNcRxObject@@@Z
  ?cast@NcPointCoincidenceConstraint@@SAPEAV1@PEBVNcRxObject@@@Z
  ?cast@NcPointCurveConstraint@@SAPEAV1@PEBVNcRxObject@@@Z
  ?cast@NcRadiusDiameterConstraint@@SAPEAV1@PEBVNcRxObject@@@Z
  ?cast@NcRxClass@@SAPEAV1@PEBVNcRxObject@@@Z
  ?cast@NcRxClassExtPE@@SAPEAV1@PEBVNcRxObject@@@Z
  ?cast@NcRxDLinkerReactor@@SAPEAV1@PEBVNcRxObject@@@Z
  ?cast@NcRxDictionary@@SAPEAV1@PEBVNcRxObject@@@Z
  ?cast@NcRxDictionaryIterator@@SAPEAV1@PEBVNcRxObject@@@Z
  ?cast@NcRxDynamicLinker@@SAPEAV1@PEBVNcRxObject@@@Z
  ?cast@NcRxEvent@@SAPEAV1@PEBVNcRxObject@@@Z
  ?cast@NcRxEventReactor@@SAPEAV1@PEBVNcRxObject@@@Z
  ?cast@NcRxIterator@@SAPEAV1@PEBVNcRxObject@@@Z
  ?cast@NcRxKernel@@SAPEAV1@PEBVNcRxObject@@@Z
  ?cast@NcRxObject@@SAPEAV1@PEBV1@@Z
  ?cast@NcRxOverrule@@SAPEAV1@PEBVNcRxObject@@@Z
  ?cast@NcRxProtocolReactor@@SAPEAV1@PEBVNcRxObject@@@Z
  ?cast@NcRxProtocolReactorIterator@@SAPEAV1@PEBVNcRxObject@@@Z
  ?cast@NcRxProtocolReactorList@@SAPEAV1@PEBVNcRxObject@@@Z
  ?cast@NcRxProtocolReactorListIterator@@SAPEAV1@PEBVNcRxObject@@@Z
  ?cast@NcRxProtocolReactorManager@@SAPEAV1@PEBVNcRxObject@@@Z
  ?cast@NcRxProtocolReactorManagerFactory@@SAPEAV1@PEBVNcRxObject@@@Z
  ?cast@NcRxService@@SAPEAV1@PEBVNcRxObject@@@Z
  ?cast@NcSymmetricConstraint@@SAPEAV1@PEBVNcRxObject@@@Z
  ?cast@NcTangentConstraint@@SAPEAV1@PEBVNcRxObject@@@Z
  ?cast@NcTransaction@@SAPEAV1@PEBVNcRxObject@@@Z
  ?cast@NcTransactionManager@@SAPEAV1@PEBVNcRxObject@@@Z
  ?cast@NcTransactionReactor@@SAPEAV1@PEBVNcRxObject@@@Z
  ?cast@NcVerticalConstraint@@SAPEAV1@PEBVNcRxObject@@@Z
  ?cast@OPMPerInstancePropertyExtension@@SAPEAV1@PEBVNcRxObject@@@Z
  ?cast@OPMPerInstancePropertyExtensionFactory@@SAPEAV1@PEBVNcRxObject@@@Z
  ?cast@OPMPerInstancePropertySources@@SAPEAV1@PEBVNcRxObject@@@Z
  ?cast@OPMPropertyExtension@@SAPEAV1@PEBVNcRxObject@@@Z
  ?cast@OPMPropertyExtensionFactory@@SAPEAV1@PEBVNcRxObject@@@Z
  ?castShadows@NcDbEntity@@UEBA_NXZ
  ?castShadows@NcDbLight@@UEBA_NXZ
  ?castShadows@NcDbRasterImage@@UEBA_NXZ
  ?ccwAngleTo@Vector2d@Ntil@@UEBANAEBV12@@Z
  ?ccwAngleTo@VectorUL@Ntil@@UEBANAEBVVector2d@2@@Z
  ?cecolor@NcDbDatabase@@QEBA?AVNcCmColor@@XZ
  ?cellClass@NcDbTableStyle@@QEBAHPEB_W@Z
  ?cellState@NcDbLinkedTableData@@UEBA?AW4CellState@NcDb@@HH@Z
  ?cellState@NcDbTable@@QEBA?AW4CellState@NcDb@@HH@Z
  ?cellStyle@NcDbTable@@QEBAPEB_WHH@Z
  ?cellStyle@NcDbTableContent@@UEBAPEB_WHH@Z
  ?cellStyleOverrides@NcDbTable@@UEBA_NHHAEAV?$NcArray@HV?$HostMemoryAllocator@H@@@@@Z
  ?cellType@NcDbTable@@UEBA?AW4CellType@NcDb@@HH@Z
  ?celtscale@NcDbDatabase@@QEBANXZ
  ?celtype@NcDbDatabase@@QEBA?AVNcDbObjectId@@XZ
  ?celweight@NcDbDatabase@@QEBA?AW4LineWeight@NcDb@@XZ
  ?center@NcDbArc@@QEBA?AVNcGePoint3d@@XZ
  ?center@NcDbCircle@@QEBA?AVNcGePoint3d@@XZ
  ?center@NcDbEllipse@@QEBA?AVNcGePoint3d@@XZ
  ?center@NcDbHomeView@@QEBAAEBVNcGePoint3d@@XZ
  ?center@NcDbRadialDimension@@QEBA?AVNcGePoint3d@@XZ
  ?center@NcDbRadialDimensionLarge@@QEBA?AVNcGePoint3d@@XZ
  ?center@NcGeCircArc2d@@QEBA?AVNcGePoint2d@@XZ
  ?center@NcGeCircArc3d@@UEBA?AVNcGePoint3d@@XZ
  ?center@NcGeEllipArc2d@@QEBA?AVNcGePoint2d@@XZ
  ?center@NcGeEllipArc3d@@UEBA?AVNcGePoint3d@@XZ
  ?center@NcGeSphere@@QEBA?AVNcGePoint3d@@XZ
  ?center@NcGeTorus@@QEBA?AVNcGePoint3d@@XZ
  ?centerPoint@NcConstrainedCircle@@QEBA?AVNcGePoint3d@@XZ
  ?centerPoint@NcConstrainedEllipse@@QEBA?AVNcGePoint3d@@XZ
  ?centerPoint@NcDb3PointAngularDimension@@QEBA?AVNcGePoint3d@@XZ
  ?centerPoint@NcDbAbstractViewTableRecord@@QEBA?AVNcGePoint2d@@XZ
  ?centerPoint@NcDbArcDimension@@QEBA?AVNcGePoint3d@@XZ
  ?centerPoint@NcDbViewport@@QEBA?AVNcGePoint3d@@XZ
  ?cetransparency@NcDbDatabase@@QEBA?AVNcCmTransparency@@XZ
  ?chamferEdges@NcDb3dSolid@@UEAA?AW4ErrorStatus@Nano@@AEBV?$NcArray@PEAVNcDbSubentId@@V?$HostObjectsAllocator@PEAVNcDbSubentId@@@@@@AEBVNcDbSubentId@@NN@Z
  ?chamferEdges@NcDbSurface@@QEAA?AW4ErrorStatus@Nano@@AEBV?$NcArray@PEAVNcDbSubentId@@V?$HostObjectsAllocator@PEAVNcDbSubentId@@@@@@AEBVNcDbSubentId@@NN_N@Z
  ?chamferEdges@NcDbSurface@@UEAA?AW4ErrorStatus@Nano@@AEBV?$NcArray@PEAVNcDbSubentId@@V?$HostObjectsAllocator@PEAVNcDbSubentId@@@@@@AEBVNcDbSubentId@@NN@Z
  ?chamfera@NcDbDatabase@@QEBANXZ
  ?chamferb@NcDbDatabase@@QEBANXZ
  ?chamferc@NcDbDatabase@@QEBANXZ
  ?chamferd@NcDbDatabase@@QEBANXZ
  ?change@NcDbIdMapping@@UEAA_NAEBVNcDbIdPair@@@Z
  ?changeCurveOrder@NcGeCurveCurveInt2d@@QEAAXXZ
  ?changeCurveOrder@NcGeCurveCurveInt3d@@QEAAXXZ
  ?channelFlags@NcDbMaterial@@UEBA?AW4ChannelFlags@NcGiMaterialTraits@@XZ
  ?channelFlags@NcGiMaterialTraits@@UEBA?AW4ChannelFlags@1@XZ
  ?channelOrder@DataModel@Ntil@@UEBA?AW4ChannelOrder@DataModelAttributes@2@XZ
  ?channelOrder@DataModelAttributes@Ntil@@UEBA?AW4ChannelOrder@12@XZ
  ?channelOrder@RgbModel@Ntil@@UEBA?AW4ChannelOrder@DataModelAttributes@2@XZ
  ?channelOrder@RgbPaletteModel@Ntil@@UEBA?AW4ChannelOrder@DataModelAttributes@2@XZ
  ?charValue@CNsiChar@@QEBAAEBVCNsiUcStr@@XZ
  ?checkAdd@CNsiData@@UEBAPEAV1@PEBV1@@Z
  ?checkAdd@CNsiDatetime@@UEBAPEAVCNsiData@@PEBV2@@Z
  ?checkAdd@CNsiDecimal@@UEBAPEAVCNsiData@@PEBV2@@Z
  ?checkAdd@CNsiDouble@@UEBAPEAVCNsiData@@PEBV2@@Z
  ?checkAdd@CNsiExactNum@@UEBAPEAVCNsiData@@PEBV2@@Z
  ?checkAdd@CNsiFloat@@UEBAPEAVCNsiData@@PEBV2@@Z
  ?checkAdd@CNsiInt@@UEBAPEAVCNsiData@@PEBV2@@Z
  ?checkAdd@CNsiInterval@@UEBAPEAVCNsiData@@PEBV2@@Z
  ?checkAdd@CNsiNum@@UEBAPEAVCNsiData@@PEBV2@@Z
  ?checkAdd@CNsiNumeric@@UEBAPEAVCNsiData@@PEBV2@@Z
  ?checkAdd@CNsiReal@@UEBAPEAVCNsiData@@PEBV2@@Z
  ?checkAdd@CNsiSmallInt@@UEBAPEAVCNsiData@@PEBV2@@Z
  ?checkCat@CNsiBinary@@UEBAPEAVCNsiData@@PEBV2@@Z
  ?checkCat@CNsiChar@@UEBAPEAVCNsiData@@PEBV2@@Z
  ?checkCat@CNsiData@@UEBAPEAV1@PEBV1@@Z
  ?checkCrossSectionCurves@NcDbLoftOptions@@QEAA?AW4ErrorStatus@Nano@@AEAV?$NcArray@PEAVNcDbEntity@@V?$HostObjectsAllocator@PEAVNcDbEntity@@@@@@AEA_N11_N@Z
  ?checkDiv@CNsiData@@UEBAPEAV1@PEBV1@@Z
  ?checkDiv@CNsiDecimal@@UEBAPEAVCNsiData@@PEBV2@@Z
  ?checkDiv@CNsiDouble@@UEBAPEAVCNsiData@@PEBV2@@Z
  ?checkDiv@CNsiFloat@@UEBAPEAVCNsiData@@PEBV2@@Z
  ?checkDiv@CNsiInt@@UEBAPEAVCNsiData@@PEBV2@@Z
  ?checkDiv@CNsiInterval@@UEBAPEAVCNsiData@@PEBV2@@Z
  ?checkDiv@CNsiNum@@UEBAPEAVCNsiData@@PEBV2@@Z
  ?checkDiv@CNsiNumeric@@UEBAPEAVCNsiData@@PEBV2@@Z
  ?checkDiv@CNsiReal@@UEBAPEAVCNsiData@@PEBV2@@Z
  ?checkDiv@CNsiSmallInt@@UEBAPEAVCNsiData@@PEBV2@@Z
  ?checkEntity@NcBrEntity@@QEBAHXZ
  ?checkGuideCurves@NcDbLoftOptions@@QEAA?AW4ErrorStatus@Nano@@AEAV?$NcArray@PEAVNcDbEntity@@V?$HostObjectsAllocator@PEAVNcDbEntity@@@@@@_N@Z
  ?checkIn@NcApLongTransactionManager@@UEAA?AW4ErrorStatus@Nano@@VNcDbObjectId@@AEAVNcDbIdMapping@@_N@Z
  ?checkInterference@NcDb3dSolid@@UEBA?AW4ErrorStatus@Nano@@PEBV1@HAEAHAEAPEAV1@@Z
  ?checkIntersections@NcDbSweepOptions@@QEBA_NXZ
  ?checkLoftCurves@NcDbLoftOptions@@QEAA?AW4ErrorStatus@Nano@@AEAV?$NcArray@PEAVNcDbEntity@@V?$HostObjectsAllocator@PEAVNcDbEntity@@@@@@0PEAVNcDbEntity@@AEA_N22_N@Z
  ?checkMul@CNsiData@@UEBAPEAV1@PEBV1@@Z
  ?checkMul@CNsiDecimal@@UEBAPEAVCNsiData@@PEBV2@@Z
  ?checkMul@CNsiDouble@@UEBAPEAVCNsiData@@PEBV2@@Z
  ?checkMul@CNsiFloat@@UEBAPEAVCNsiData@@PEBV2@@Z
  ?checkMul@CNsiInt@@UEBAPEAVCNsiData@@PEBV2@@Z
  ?checkMul@CNsiInterval@@UEBAPEAVCNsiData@@PEBV2@@Z
  ?checkMul@CNsiNum@@UEBAPEAVCNsiData@@PEBV2@@Z
  ?checkMul@CNsiNumeric@@UEBAPEAVCNsiData@@PEBV2@@Z
  ?checkMul@CNsiReal@@UEBAPEAVCNsiData@@PEBV2@@Z
  ?checkMul@CNsiSmallInt@@UEBAPEAVCNsiData@@PEBV2@@Z
  ?checkOptions@NcDbLoftOptions@@QEAA?AW4ErrorStatus@Nano@@_N@Z
  ?checkOut@NcApLongTransactionManager@@UEAA?AW4ErrorStatus@Nano@@AEAVNcDbObjectId@@AEAV?$NcArray@VNcDbObjectId@@V?$HostObjectsAllocator@VNcDbObjectId@@@@@@V4@AEAVNcDbIdMapping@@2@Z
  ?checkPathCurve@NcDbLoftOptions@@QEAA?AW4ErrorStatus@Nano@@PEAVNcDbEntity@@_N@Z
  ?checkPathCurve@NcDbSweepOptions@@QEAA?AW4ErrorStatus@Nano@@PEAVNcDbEntity@@_N@Z
  ?checkRevolveCurve@NcDbRevolveOptions@@QEAA?AW4ErrorStatus@Nano@@PEAVNcDbEntity@@AEBVNcGePoint3d@@AEBVNcGeVector3d@@AEA_N33_N@Z
  ?checkSet@CNsiBinary@@UEBAPEAVCNsiData@@PEBV2@@Z
  ?checkSet@CNsiChar@@UEBAPEAVCNsiData@@PEBV2@@Z
  ?checkSet@CNsiData@@UEBAPEAV1@PEBV1@@Z
  ?checkSet@CNsiDatetime@@UEBAPEAVCNsiData@@PEBV2@@Z
  ?checkSet@CNsiDecimal@@UEBAPEAVCNsiData@@PEBV2@@Z
  ?checkSet@CNsiDouble@@UEBAPEAVCNsiData@@PEBV2@@Z
  ?checkSet@CNsiFloat@@UEBAPEAVCNsiData@@PEBV2@@Z
  ?checkSet@CNsiInt@@UEBAPEAVCNsiData@@PEBV2@@Z
  ?checkSet@CNsiInterval@@UEBAPEAVCNsiData@@PEBV2@@Z
  ?checkSet@CNsiNumeric@@UEBAPEAVCNsiData@@PEBV2@@Z
  ?checkSet@CNsiReal@@UEBAPEAVCNsiData@@PEBV2@@Z
  ?checkSet@CNsiSmallInt@@UEBAPEAVCNsiData@@PEBV2@@Z
  ?checkSub@CNsiData@@UEBAPEAV1@PEBV1@@Z
  ?checkSub@CNsiDatetime@@UEBAPEAVCNsiData@@PEBV2@@Z
  ?checkSub@CNsiDecimal@@UEBAPEAVCNsiData@@PEBV2@@Z
  ?checkSub@CNsiDouble@@UEBAPEAVCNsiData@@PEBV2@@Z
  ?checkSub@CNsiFloat@@UEBAPEAVCNsiData@@PEBV2@@Z
  ?checkSub@CNsiInt@@UEBAPEAVCNsiData@@PEBV2@@Z
  ?checkSub@CNsiInterval@@UEBAPEAVCNsiData@@PEBV2@@Z
  ?checkSub@CNsiNum@@UEBAPEAVCNsiData@@PEBV2@@Z
  ?checkSub@CNsiNumeric@@UEBAPEAVCNsiData@@PEBV2@@Z
  ?checkSub@CNsiReal@@UEBAPEAVCNsiData@@PEBV2@@Z
  ?checkSub@CNsiSmallInt@@UEBAPEAVCNsiData@@PEBV2@@Z
  ?checkSweepCurve@NcDbSweepOptions@@QEAA?AW4ErrorStatus@Nano@@PEAVNcDbEntity@@AEAW4Planarity@NcDb@@AEAVNcGePoint3d@@AEAVNcGeVector3d@@AEA_NAEAN_N@Z
  ?childCount@NcDbField@@QEBAHXZ
  ?chordPoint@NcDbDiametricDimension@@QEBA?AVNcGePoint3d@@XZ
  ?chordPoint@NcDbRadialDimension@@QEBA?AVNcGePoint3d@@XZ
  ?chordPoint@NcDbRadialDimensionLarge@@QEBA?AVNcGePoint3d@@XZ
  ?chromaticAdaptation@NcGiToneOperatorParameters@@UEBA_NXZ
  ?circle@NcGiGeometry@@UEBAHAEBVNcGePoint3d@@00@Z
  ?circle@NcGiGeometry@@UEBAHAEBVNcGePoint3d@@NAEBVNcGeVector3d@@@Z
  ?circleSides@NcDbViewport@@QEBAGXZ
  ?circleSides@NcDbViewportTableRecord@@QEBAGXZ
  ?circularArc@NcGiGeometry@@UEBAHAEBVNcGePoint3d@@00W4NcGiArcType@@@Z
  ?circularArc@NcGiGeometry@@UEBAHAEBVNcGePoint3d@@NAEBVNcGeVector3d@@1NW4NcGiArcType@@@Z
  ?classDxfName@NcDbDatabase@@QEAAPEB_WPEBVNcRxClass@@@Z
  ?classVersion@NcDbRasterImage@@SA?AW4ClassVersion@@XZ
  ?classVersion@NcDbRasterImageDef@@SA?AW4ClassVersion@@XZ
  ?classVersion@NcDbRasterImageDefReactor@@SA?AW4ClassVersion@@XZ
  ?classVersion@NcDbRasterVariables@@SA?AW4ClassVersion@@XZ
  ?clayer@NcDbDatabase@@QEBA?AVNcDbObjectId@@XZ
  ?cleanBody@NcDb3dSolid@@UEAA?AW4ErrorStatus@Nano@@XZ
  ?cleanHlrCache@NsdkHlrEngine@@SAXPEAVNcDbEntity@@PEAVNcDbViewport@@@Z
  ?cleanHlrCache@NsdkHlrEngine@@SAXPEAVNcDbEntity@@VNcGePoint3d@@VNcGeVector3d@@@Z
  ?cleanHlrCache@NsdkHlrEngine@@SAXXZ
  ?cleanNames@NcDbPlotSettingsValidator@@IEAAXXZ
  ?clear@?$HostArray@HV?$HostMemoryAllocator@H@@@@QEAAXXZ
  ?clear@?$HostArray@NV?$HostMemoryAllocator@N@@@@QEAAXXZ
  ?clear@?$HostArray@PEAUHINSTANCE__@@V?$HostObjectsAllocator@PEAUHINSTANCE__@@@@@@QEAAXXZ
  ?clear@?$HostArray@PEAVNcDb2dVertex@@V?$HostObjectsAllocator@PEAVNcDb2dVertex@@@@@@QEAAXXZ
  ?clear@?$HostArray@PEAVNcDb3dPolylineVertex@@V?$HostObjectsAllocator@PEAVNcDb3dPolylineVertex@@@@@@QEAAXXZ
  ?clear@?$HostArray@PEAVNcDbDimData@@V?$HostMemoryAllocator@PEAVNcDbDimData@@@@@@QEAAXXZ
  ?clear@?$HostArray@PEAVNcDbEntity@@V?$HostObjectsAllocator@PEAVNcDbEntity@@@@@@QEAAXXZ
  ?clear@?$HostArray@PEAVNcDbGripData@@V?$HostMemoryAllocator@PEAVNcDbGripData@@@@@@QEAAXXZ
  ?clear@?$HostArray@PEAVNcDbNurbSurface@@V?$HostObjectsAllocator@PEAVNcDbNurbSurface@@@@@@QEAAXXZ
  ?clear@?$HostArray@PEAVNcDbPolygonMeshVertex@@V?$HostObjectsAllocator@PEAVNcDbPolygonMeshVertex@@@@@@QEAAXXZ
  ?clear@?$HostArray@PEAVNcDbVertex@@V?$HostObjectsAllocator@PEAVNcDbVertex@@@@@@QEAAXXZ
  ?clear@?$HostArray@PEAVNcLyLayerFilter@@V?$HostObjectsAllocator@PEAVNcLyLayerFilter@@@@@@QEAAXXZ
  ?clear@?$HostArray@PEAVNcTransaction@@V?$HostObjectsAllocator@PEAVNcTransaction@@@@@@QEAAXXZ
  ?clear@?$HostArray@PEAVNsdkHlrData@@V?$HostObjectsAllocator@PEAVNsdkHlrData@@@@@@QEAAXXZ
  ?clear@?$HostArray@PEAVOdDbEntity@@V?$HostObjectsAllocator@PEAVOdDbEntity@@@@@@QEAAXXZ
  ?clear@?$HostArray@PEAXV?$HostMemoryAllocator@PEAX@@@@QEAAXXZ
  ?clear@?$HostArray@VMcGeVector2d@@V?$HostMemoryAllocator@VMcGeVector2d@@@@@@QEAAXXZ
  ?clear@?$HostArray@VNcDbEvalVariant@@V?$HostMemoryAllocator@VNcDbEvalVariant@@@@@@QEAAXXZ
  ?clear@?$HostArray@VNcDbFullSubentPath@@V?$HostObjectsAllocator@VNcDbFullSubentPath@@@@@@QEAAXXZ
  ?clear@?$HostArray@VNcDbObjectId@@V?$HostObjectsAllocator@VNcDbObjectId@@@@@@QEAAXXZ
  ?clear@?$HostArray@VNcGePoint2d@@V?$HostMemoryAllocator@VNcGePoint2d@@@@@@QEAAXXZ
  ?clear@?$HostArray@VNcGePoint3d@@V?$HostMemoryAllocator@VNcGePoint3d@@@@@@QEAAXXZ
  ?clear@?$HostArray@VNcGeVector3d@@V?$HostMemoryAllocator@VNcGeVector3d@@@@@@QEAAXXZ
  ?clear@?$HostArray@_JV?$HostMemoryAllocator@_J@@@@QEAAXXZ
  ?clear@Image@Ntil@@QEAAXXZ
  ?clear@ImageRep@Ntil@@UEAAXXZ
  ?clear@NcDbEvalVariant@@QEAAXXZ
  ?clear@NcDbGraphNode@@QEAA?AW4ErrorStatus@Nano@@E@Z
  ?clear@NcDbGroup@@QEAA?AW4ErrorStatus@Nano@@XZ
  ?clear@NcDbLinkedData@@UEAA?AW4ErrorStatus@Nano@@XZ
  ?clear@NcDbLinkedTableData@@UEAA?AW4ErrorStatus@Nano@@XZ
  ?clear@NsdkHiddenLineBase@@SAXPEAVNcDbEntity@@@Z
  ?clear@NsdkHiddenLineBase@@SAXPEAVNcDbEntity@@PEAVNcDbViewport@@@Z
  ?clear@NsdkHiddenLineBase@@SAXXZ
  ?clear@NsdkHlrCollector@@QEAAXXZ
  ?clearAdskMaterialCache@NcDbMaterial@@QEAAXXZ
  ?clearAll@NcDbGraph@@QEAAXE@Z
  ?clearAllCycles@NcDbGraph@@IEAA?AW4ErrorStatus@Nano@@XZ
  ?clearCellOverrides@NcDbTable@@QEAAXHH@Z
  ?clearColor@Image@Ntil@@QEBAAEBUImagePixel@2@XZ
  ?clearColor@ImageRep@Ntil@@UEBAAEBUImagePixel@2@XZ
  ?clearCycles@NcDbGraphNode@@AEAA?AW4ErrorStatus@Nano@@XZ
  ?clearFrozenLayers@NcGsView@@UEAAXXZ
  ?clearProcessedFlags@NcDbBlockChangeIterator@@QEAAXXZ
  ?clearSubSelection@NcDbTable@@UEAAXXZ
  ?clearTableStyleOverrides@NcDbTable@@UEAAXH@Z
  ?clipBoundary@NcDbRasterImage@@UEBAAEBV?$NcArray@VNcGePoint2d@@V?$HostMemoryAllocator@VNcGePoint2d@@@@@@XZ
  ?clipBoundary@NcDbUnderlayReference@@QEBAAEBV?$NcArray@VNcGePoint2d@@V?$HostMemoryAllocator@VNcGePoint2d@@@@@@XZ
  ?clipBoundaryType@NcDbRasterImage@@UEBA?AW4ClipBoundaryType@1@XZ
  ?clipPolygon@NcGeClipBoundary2d@@QEBA?AW4ClipError@McGe@@AEBV?$NcArray@VNcGePoint2d@@V?$HostMemoryAllocator@VNcGePoint2d@@@@@@AEAV4@AEAW4ClipCondition@3@PEAV?$NcArray@HV?$HostMemoryAllocator@H@@@@@Z
  ?clipPolyline@NcGeClipBoundary2d@@QEBA?AW4ClipError@McGe@@AEBV?$NcArray@VNcGePoint2d@@V?$HostMemoryAllocator@VNcGePoint2d@@@@@@AEAV4@AEAW4ClipCondition@3@PEAV?$NcArray@HV?$HostMemoryAllocator@H@@@@@Z
  ?clipToBounds@BoundingBox@Ntil@@QEBA?AVOffset@2@AEBV32@@Z
  ?clipVolumeIntersectsExtents@NcDbSpatialFilter@@QEBAHAEBVNcDbExtents@@@Z
  ?clone@BitonalModel@Ntil@@UEBAPEAVDataModel@2@XZ
  ?clone@DataModel@Ntil@@UEBAPEAV12@XZ
  ?clone@FormatCodecAssociation@Ntil@@UEBAPEAVFormatCodecPropertyInterface@2@XZ
  ?clone@FormatCodecBooleanProperty@Ntil@@UEBAPEAVFormatCodecPropertyInterface@2@XZ
  ?clone@FormatCodecColorProperty@Ntil@@UEBAPEAVFormatCodecPropertyInterface@2@XZ
  ?clone@FormatCodecDensity@Ntil@@UEBAPEAVFormatCodecPropertyInterface@2@XZ
  ?clone@FormatCodecDoubleProperty@Ntil@@UEBAPEAVFormatCodecPropertyInterface@2@XZ
  ?clone@FormatCodecIntProperty@Ntil@@UEBAPEAVFormatCodecPropertyInterface@2@XZ
  ?clone@FormatCodecPropertyInterface@Ntil@@UEBAPEAV12@XZ
  ?clone@FormatCodecStringProperty@Ntil@@UEBAPEAVFormatCodecPropertyInterface@2@XZ
  ?clone@FormatCodecTransparency@Ntil@@UEBAPEAVFormatCodecPropertyInterface@2@XZ
  ?clone@NcDbObject@@UEBAPEAVNcRxObject@@XZ
  ?clone@NcGsView@@UEAAPEAV1@_N0@Z
  ?clone@NcRxClass@@UEBAPEAVNcRxObject@@XZ
  ?clone@NcRxObject@@UEBAPEAV1@XZ
  ?clone@PngCompression@Ntil@@UEBAPEAVFormatCodecPropertyInterface@2@XZ
  ?clone@PngCompressionType@Ntil@@UEBAPEAVFormatCodecPropertyInterface@2@XZ
  ?clone@PngGamma@Ntil@@UEBAPEAVFormatCodecPropertyInterface@2@XZ
  ?clone@PngHistogram@Ntil@@UEBAPEAVFormatCodecPropertyInterface@2@XZ
  ?clone@PngInterlacing@Ntil@@UEBAPEAVFormatCodecPropertyInterface@2@XZ
  ?clone@PngPageOffset@Ntil@@UEBAPEAVFormatCodecPropertyInterface@2@XZ
  ?clone@PngSRGB@Ntil@@UEBAPEAVFormatCodecPropertyInterface@2@XZ
  ?clone@PngScale@Ntil@@UEBAPEAVFormatCodecPropertyInterface@2@XZ
  ?clone@PngText@Ntil@@UEBAPEAVFormatCodecPropertyInterface@2@XZ
  ?clone@RgbGrayModel@Ntil@@UEBAPEAVDataModel@2@XZ
  ?clone@RgbModel@Ntil@@UEBAPEAVDataModel@2@XZ
  ?clone@RgbPaletteModel@Ntil@@UEBAPEAVDataModel@2@XZ
  ?clone@SpanProviderInterface@Ntil@@UEBAPEAV12@XZ
  ?clone@TiffCompression@Ntil@@UEBAPEAVFormatCodecPropertyInterface@2@XZ
  ?clone@TiffCompressionType@Ntil@@UEBAPEAVFormatCodecPropertyInterface@2@XZ
  ?clone@TiffFillOrder@Ntil@@UEBAPEAVFormatCodecPropertyInterface@2@XZ
  ?clone@TiffGrayResponseCurve@Ntil@@UEBAPEAVFormatCodecPropertyInterface@2@XZ
  ?clone@TiffPageInformation@Ntil@@UEBAPEAVFormatCodecPropertyInterface@2@XZ
  ?clone@TiffPhotometricInterpretation@Ntil@@UEBAPEAVFormatCodecPropertyInterface@2@XZ
  ?clone@TiffPrivateTag@Ntil@@UEBAPEAVFormatCodecPropertyInterface@2@XZ
  ?clone@TiffSampleRange@Ntil@@UEBAPEAVFormatCodecPropertyInterface@2@XZ
  ?clone@TiffText@Ntil@@UEBAPEAVFormatCodecPropertyInterface@2@XZ
  ?cloneLayout@NcDbLayoutManager@@UEAA?AW4ErrorStatus@Nano@@PEAVNcDbLayout@@PEB_WHPEAVNcDbDatabase@@@Z
  ?cloneMeForDragging@NcDbEntity@@UEAAHXZ
  ?cloneMeForDragging@NcDbTransformOverrule@@UEAAHPEAVNcDbEntity@@@Z
  ?cloneOpenImage@BmpFormatCodec@Ntil@@UEBAPEAVReadImageFileInterface@2@PEBV32@@Z
  ?cloneOpenImage@ImageFormatCodec@Ntil@@UEBAPEAVReadImageFileInterface@2@PEBV32@@Z
  ?cloneOpenImage@JfifFormatCodec@Ntil@@UEBAPEAVReadImageFileInterface@2@PEBV32@@Z
  ?cloneOpenImage@PngFormatCodec@Ntil@@UEBAPEAVReadImageFileInterface@2@PEBV32@@Z
  ?cloneOpenImage@TiffFormatCodec@Ntil@@UEBAPEAVReadImageFileInterface@2@PEBV32@@Z
  ?clonePersSubentNamingDataOverride@NcDbAssocActionParam@@UEAAXPEAVNcDbAssocPersSubentManagerCloner@@@Z
  ?clonePersSubentNamingDataOverride@NcDbAssocParamBasedActionBody@@UEAA?AW4ErrorStatus@Nano@@PEAVNcDbAssocPersSubentManagerCloner@@@Z
  ?cloneSecurityParams@NcDbDatabase@@QEAAPEBUSecurityParams@@XZ
  ?clonedOverride@NcDbAssocDependencyBody@@UEAAXPEBVNcDbObject@@0@Z
  ?close@DataStreamInterface@Ntil@@UEAAXXZ
  ?close@FileReadDescriptor@Ntil@@QEBAXXZ
  ?close@FileReadDescriptorRep@Ntil@@UEBAXXZ
  ?close@NcDbObject@@QEAA?AW4ErrorStatus@Nano@@XZ
  ?close@NcDbObjectOverrule@@UEAA?AW4ErrorStatus@Nano@@PEAVNcDbObject@@@Z
  ?close@NsdkHlrCollector@@MEAAXAEAV?$NcArray@PEAVNcDbEntity@@V?$HostObjectsAllocator@PEAVNcDbEntity@@@@@@@Z
  ?closeAndPage@NcDbObject@@QEAA?AW4ErrorStatus@Nano@@H@Z
  ?closeDocument@NcApDocManager@@UEAA?AW4ErrorStatus@Nano@@PEAVNcApDocument@@@Z
  ?closeImage@NcDbRasterImageDef@@UEAA?AW4ErrorStatus@Nano@@XZ
  ?closeInput@NcDbDatabase@@QEAA?AW4ErrorStatus@Nano@@_N@Z
  ?closeProperty@FormatCodecPropertySetIterator@Ntil@@UEAAXXZ
  ?closeToAxis@NcDbRevolveOptions@@QEBA_NXZ
  ?closed@NcDbLoftOptions@@QEBA_NXZ
  ?closedMline@NcDbMline@@QEBA_NXZ
  ?closestPointTo@NcGeCubicSplineCurve3d@@UEBA?AVNcGePoint3d@@AEBV2@AEBVMcGeTol@@@Z
  ?closestPointTo@NcGeCubicSplineCurve3d@@UEBA?AVNcGePoint3d@@AEBVNcGeCurve3d@@AEAV2@AEBVMcGeTol@@@Z
  ?closestPointTo@NcGeCurve2d@@UEBA?AVNcGePoint2d@@AEBV1@AEAV2@AEBVMcGeTol@@@Z
  ?closestPointTo@NcGeCurve2d@@UEBA?AVNcGePoint2d@@AEBV2@AEBVMcGeTol@@@Z
  ?closestPointTo@NcGeCurve3d@@UEBA?AVNcGePoint3d@@AEBV1@AEAV2@AEBVMcGeTol@@@Z
  ?closestPointTo@NcGeCurve3d@@UEBA?AVNcGePoint3d@@AEBV2@AEBVMcGeTol@@@Z
  ?closestPointTo@NcGeExternalBoundedSurface@@UEBA?AVNcGePoint3d@@AEBV2@AEBVMcGeTol@@@Z
  ?closestPointTo@NcGeRay2d@@UEBA?AVNcGePoint2d@@AEBV2@AEBVMcGeTol@@@Z
  ?closestPointTo@NcGeRay2d@@UEBA?AVNcGePoint2d@@AEBVNcGeCurve2d@@AEAV2@AEBVMcGeTol@@@Z
  ?closestPointTo@NcGeRay3d@@UEBA?AVNcGePoint3d@@AEBV2@AEBVMcGeTol@@@Z
  ?closestPointTo@NcGeRay3d@@UEBA?AVNcGePoint3d@@AEBVNcGeCurve3d@@AEAV2@AEBVMcGeTol@@@Z
  ?closestPointTo@NcGeSurface@@UEBA?AVNcGePoint3d@@AEBV2@AEBVMcGeTol@@@Z
  ?closestPointToLinearEnt@NcGePlanarEnt@@QEBA?AVNcGePoint3d@@AEBVNcGeLinearEnt3d@@AEAV2@AEBVMcGeTol@@@Z
  ?closestPointToPlanarEnt@NcGePlanarEnt@@QEBA?AVNcGePoint3d@@AEBV1@AEAV2@AEBVMcGeTol@@@Z
  ?closestPointToPlane@NcGeCircArc3d@@UEBA?AVNcGePoint3d@@AEBVNcGePlanarEnt@@AEAV2@AEBVMcGeTol@@@Z
  ?closestPointToPlane@NcGeEllipArc3d@@UEBA?AVNcGePoint3d@@AEBVNcGePlanarEnt@@AEAV2@AEBVMcGeTol@@@Z
  ?cmaterial@NcDbDatabase@@QEBA?AVNcDbObjectId@@XZ
  ?cmljust@NcDbDatabase@@QEBAFXZ
  ?cmlscale@NcDbDatabase@@QEBANXZ
  ?cmlstyleID@NcDbDatabase@@QEBA?AVNcDbObjectId@@XZ
  ?cmpDTI@CNsiDT@@AEBAHAEBV1@@Z
  ?cmpeqlan@CNsiExactNum@@IEBAHPEBVCNsiNum@@@Z
  ?cmpeqlen@CNsiExactNum@@IEBAHPEBV1@@Z
  ?cmpeqlenC@CNsiExactNum@@IEBAHN@Z
  ?cmpgtean@CNsiExactNum@@IEBAHPEBVCNsiNum@@@Z
  ?cmpgteen@CNsiExactNum@@IEBAHPEBV1@@Z
  ?cmpgteenC@CNsiExactNum@@IEBAHN@Z
  ?cmpgtran@CNsiExactNum@@IEBAHPEBVCNsiNum@@@Z
  ?cmpgtren@CNsiExactNum@@IEBAHPEBV1@@Z
  ?cmpgtrenC@CNsiExactNum@@IEBAHN@Z
  ?cmpltean@CNsiExactNum@@IEBAHPEBVCNsiNum@@@Z
  ?cmplteen@CNsiExactNum@@IEBAHPEBV1@@Z
  ?cmplteenC@CNsiExactNum@@IEBAHN@Z
  ?cmpltran@CNsiExactNum@@IEBAHPEBVCNsiNum@@@Z
  ?cmpltren@CNsiExactNum@@IEBAHPEBV1@@Z
  ?cmpltrenC@CNsiExactNum@@IEBAHN@Z
  ?cmpneqan@CNsiExactNum@@IEBAHPEBVCNsiNum@@@Z
  ?cmpneqen@CNsiExactNum@@IEBAHPEBV1@@Z
  ?cmpneqenC@CNsiExactNum@@IEBAHN@Z
  ?codecCapability@BmpFormatCodec@Ntil@@UEBA?AW4CodecCapability@ImageFormatCodec@2@XZ
  ?codecCapability@ImageFormatCodec@Ntil@@UEBA?AW4CodecCapability@12@XZ
  ?codecCapability@JfifFormatCodec@Ntil@@UEBA?AW4CodecCapability@ImageFormatCodec@2@XZ
  ?codecCapability@PngFormatCodec@Ntil@@UEBA?AW4CodecCapability@ImageFormatCodec@2@XZ
  ?codecCapability@TiffFormatCodec@Ntil@@UEBA?AW4CodecCapability@ImageFormatCodec@2@XZ
  ?collapse@NcDbSubDMesh@@QEAA?AW4ErrorStatus@Nano@@AEBVNcDbSubentId@@@Z
  ?collectPersSubentNamingDataOverride@NcDbAssocActionParam@@UEBAXAEAV?$NcArray@IV?$HostObjectsAllocator@I@@@@0@Z
  ?collectPersSubentNamingDataOverride@NcDbAssocParamBasedActionBody@@UEBA?AW4ErrorStatus@Nano@@AEAV?$NcArray@IV?$HostObjectsAllocator@I@@@@0@Z
  ?collectionName@NcDbAnnotationScale@@UEBA?AVNcString@@XZ
  ?collectionName@NcDbObjectContext@@UEBA?AVNcString@@XZ
  ?collisionType@NcDbEntity@@UEBA?AW4CollisionType@NcDb@@XZ
  ?color1@NcGiWoodTexture@@UEBAAEBVNcGiMaterialColor@@XZ
  ?color2@NcGiWoodTexture@@UEBAAEBVNcGiMaterialColor@@XZ
  ?color@NcCmColorBase@@UEBAKXZ
  ?color@NcCmComplexColor@@UEBAKXZ
  ?color@NcCmEntityColor@@QEBAKXZ
  ?color@NcCmEntityColor@@SAKPEBTRGBM@1@@Z
  ?color@NcDbEntity@@QEBA?AVNcCmColor@@XZ
  ?color@NcDbLayerTableRecord@@QEBA?AVNcCmColor@@AEBVNcDbObjectId@@AEA_N@Z
  ?color@NcDbLayerTableRecord@@QEBA?AVNcCmColor@@XZ
  ?color@NcDbSectionSettings@@QEBA?AVNcCmColor@@W4SectionType@1@W4Geometry@1@@Z
  ?color@NcDbTableStyle@@QEBA?AVNcCmColor@@PEB_W@Z
  ?color@NcDbTableStyle@@UEBA?AVNcCmColor@@W4RowType@NcDb@@@Z
  ?color@NcGiMaterialColor@@UEBA?BVNcCmEntityColor@@XZ
  ?color@NcGiNonEntityTraits@@UEBAGXZ
  ?color@NcGiSubEntityTraits@@UEBAGXZ
  ?colorBleedScale@NcDbMaterial@@QEBANXZ
  ?colorBleedScale@NcGiMaterialTraits2@@UEBANXZ
  ?colorBottom@NcDbGradientBackground@@QEBA?AVNcCmEntityColor@@XZ
  ?colorBottom@NcGiGradientBackgroundTraits@@UEBA?AVNcCmEntityColor@@XZ
  ?colorChange@NcDbMText@@SAQEB_WXZ
  ?colorDepth@NcDbRasterImageDef@@UEBAHXZ
  ?colorDictionaryId@NcDbDatabase@@QEAA?AVNcDbObjectId@@XZ
  ?colorDifferentiation@NcGiToneOperatorParameters@@UEBA_NXZ
  ?colorGroundPlaneFar@NcDbGroundPlaneBackground@@QEBA?AVNcCmEntityColor@@XZ
  ?colorGroundPlaneFar@NcGiGroundPlaneBackgroundTraits@@UEBA?AVNcCmEntityColor@@XZ
  ?colorGroundPlaneNear@NcDbGroundPlaneBackground@@QEBA?AVNcCmEntityColor@@XZ
  ?colorGroundPlaneNear@NcGiGroundPlaneBackgroundTraits@@UEBA?AVNcCmEntityColor@@XZ
  ?colorIndex@NcCmColor@@UEBAGXZ
  ?colorIndex@NcCmColorBase@@UEBAGXZ
  ?colorIndex@NcCmComplexColor@@UEBAGXZ
  ?colorIndex@NcCmEntityColor@@QEBAFXZ
  ?colorIndex@NcCmEntityColor@@SAFPEBTRGBM@1@@Z
  ?colorIndex@NcDbEntity@@QEBAGXZ
  ?colorMethod@NcCmColorBase@@UEBA?AW4ColorMethod@NcCmEntityColor@@XZ
  ?colorMethod@NcCmComplexColor@@UEBA?AW4ColorMethod@NcCmEntityColor@@XZ
  ?colorMethod@NcCmEntityColor@@QEBA?AW4ColorMethod@1@XZ
  ?colorMethod@NcCmEntityColor@@SA?AW4ColorMethod@1@PEBTRGBM@1@@Z
  ?colorMiddle@NcDbGradientBackground@@QEBA?AVNcCmEntityColor@@XZ
  ?colorMiddle@NcGiGradientBackgroundTraits@@UEBA?AVNcCmEntityColor@@XZ
  ?colorName@NcCmColorBase@@UEBAPEB_WXZ
  ?colorNameForDisplay@NcCmColorBase@@UEAAPEB_WXZ
  ?colorSkyHorizon@NcDbGroundPlaneBackground@@QEBA?AVNcCmEntityColor@@XZ
  ?colorSkyHorizon@NcGiGroundPlaneBackgroundTraits@@UEBA?AVNcCmEntityColor@@XZ
  ?colorSkyZenith@NcDbGroundPlaneBackground@@QEBA?AVNcCmEntityColor@@XZ
  ?colorSkyZenith@NcGiGroundPlaneBackgroundTraits@@UEBA?AVNcCmEntityColor@@XZ
  ?colorSolid@NcDbSolidBackground@@QEBA?AVNcCmEntityColor@@XZ
  ?colorSolid@NcGiSolidBackgroundTraits@@UEBA?AVNcCmEntityColor@@XZ
  ?colorTop@NcDbGradientBackground@@QEBA?AVNcCmEntityColor@@XZ
  ?colorTop@NcGiGradientBackgroundTraits@@UEBA?AVNcCmEntityColor@@XZ
  ?colorUndergroundAzimuth@NcDbGroundPlaneBackground@@QEBA?AVNcCmEntityColor@@XZ
  ?colorUndergroundAzimuth@NcGiGroundPlaneBackgroundTraits@@UEBA?AVNcCmEntityColor@@XZ
  ?colorUndergroundHorizon@NcDbGroundPlaneBackground@@QEBA?AVNcCmEntityColor@@XZ
  ?colorUndergroundHorizon@NcGiGroundPlaneBackgroundTraits@@UEBA?AVNcCmEntityColor@@XZ
  ?colors@NcGiEdgeData@@UEBAPEAFXZ
  ?colors@NcGiFaceData@@UEBAPEAFXZ
  ?columnName@NcDbDataColumn@@UEBAPEB_WXZ
  ?columnSpacing@NcDbMInsertBlock@@QEBANXZ
  ?columnType@NcDbDataColumn@@UEBA?AW4CellType@NcDbDataCell@@XZ
  ?columnWidth@NcDbTable@@UEBANH@Z
  ?columnWidth@NcDbTableContent@@UEBANH@Z
  ?columns@NcDbMInsertBlock@@QEBAGXZ
  ?comandeered@NcRxEventReactor@@UEAAXPEAVNcDbDatabase@@VNcDbObjectId@@0@Z
  ?comments@NcDbBlockTableRecord@@QEBA?AW4ErrorStatus@Nano@@AEAPEA_W@Z
  ?comments@NcDbBlockTableRecord@@QEBA?AW4ErrorStatus@Nano@@AEAPEB_W@Z
  ?comments@NcDbLinetypeTableRecord@@QEBA?AW4ErrorStatus@Nano@@AEAPEA_W@Z
  ?comments@NcDbLinetypeTableRecord@@QEBA?AW4ErrorStatus@Nano@@AEAPEB_W@Z
  ?companyName@NcDbHostApplicationServices@@UEAAPEB_WXZ
  ?compare@NcDbHandle@@QEBAHAEBV1@@Z
  ?compare@NcString@@QEBAHAEBV1@@Z
  ?compare@NcString@@QEBAHAEBV?$CStringT@_WV?$StrTraitMFC_DLL@_WV?$ChTraitsCRT@_W@ATL@@@@@ATL@@@Z
  ?compare@NcString@@QEBAHPEBD@Z
  ?compare@NcString@@QEBAHPEBG@Z
  ?compare@NcString@@QEBAHPEB_W@Z
  ?compare@NcString@@QEBAH_W@Z
  ?compareLayerStateToDb@NcDbLayerStateManager@@QEAA_NPEB_WAEBVNcDbObjectId@@@Z
  ?compareNoCase@NcString@@QEBAHAEBV1@@Z
  ?compareNoCase@NcString@@QEBAHAEBV?$CStringT@_WV?$StrTraitMFC_DLL@_WV?$ChTraitsCRT@_W@ATL@@@@@ATL@@@Z
  ?compareNoCase@NcString@@QEBAHPEBD@Z
  ?compareNoCase@NcString@@QEBAHPEB_W@Z
  ?compareNoCase@NcString@@QEBAH_W@Z
  ?compareTo@NcLyLayerFilter@@UEBA_NPEBV1@@Z
  ?comparedTo@NcRxClass@@UEBA?AW4Ordering@NcRx@@PEBVNcRxObject@@@Z
  ?comparedTo@NcRxObject@@UEBA?AW4Ordering@NcRx@@PEBV1@@Z
  ?compile@NcFdFieldEvaluator@@UEAA?AW4ErrorStatus@Nano@@PEAVNcDbField@@PEAVNcDbDatabase@@PEAVNcFdFieldResult@@@Z
  ?complexColor@NcCmColor@@QEBAPEAVNcCmComplexColor@@XZ
  ?composeEntityText@NcDbAssocDimDependencyBodyBase@@QEBA?AVNcString@@H@Z
  ?compute@NcDbIdMapping@@UEBA_NAEAVNcDbIdPair@@@Z
  ?compute@NcDbLayerIndex@@QEAA?AW4ErrorStatus@Nano@@PEAVNcDbLayerTable@@PEAVNcDbBlockTableRecord@@@Z
  ?computeRayIntersection@NcDbSubDMesh@@QEBA?AW4ErrorStatus@Nano@@AEBVNcGePoint3d@@AEBVNcGeVector3d@@AEAV?$NcArray@VNcDbSubentId@@V?$HostObjectsAllocator@VNcDbSubentId@@@@@@AEAV?$NcArray@NV?$HostObjectsAllocator@N@@@@AEAV?$NcArray@VNcGePoint3d@@V?$HostMemoryAllocator@VNcGePoint3d@@@@@@@Z
  ?computeSurfaceArea@NcDbSubDMesh@@QEBA?AW4ErrorStatus@Nano@@AEAN@Z
  ?computeVolume@NcDbSubDMesh@@QEBA?AW4ErrorStatus@Nano@@AEAN@Z
  ?computedPoint@NcEdInputPoint@@QEBAAEBVNcGePoint3d@@XZ
  ?concat@NcString@@QEBA?AV1@AEBV1@@Z
  ?concat@NcString@@QEBA?AV1@D@Z
  ?concat@NcString@@QEBA?AV1@PEBD@Z
  ?concat@NcString@@QEBA?AV1@PEB_W@Z
  ?concat@NcString@@QEBA?AV1@_W@Z
  ?configureForType@NcGiVisualStyle@@QEAAXW4Type@1@@Z
  ?connectInput@ImageFilter@Ntil@@IEAA_NAEAPEAVRowProviderInterface@2@@Z
  ?connectInput@ImageFilter@Ntil@@IEAA_NAEAPEAVRowProviderInterface@2@AEBVDataModel@2@@Z
  ?connectTo@NcDbEvalConnectable@@UEAA?AW4ErrorStatus@Nano@@AEBVNcString@@K0@Z
  ?connectionAllowed@NcDbEvalConnectable@@UEBA_NAEBVNcString@@K0@Z
  ?connectionPoint@NcDbMLeader@@QEBA?AW4ErrorStatus@Nano@@AEBVNcGeVector3d@@AEAVNcGePoint3d@@@Z
  ?connectionPoint@NcDbMLeader@@QEBA?AW4ErrorStatus@Nano@@AEBVNcGeVector3d@@AEAVNcGePoint3d@@W4TextAttachmentDirection@NcDbMLeaderStyle@@@Z
  ?connectionString@NcDbDataLink@@QEBAPEB_WXZ
  ?constPtr@NcString@@QEBAPEB_WXZ
  ?constrType@NcRadiusDiameterConstraint@@QEBA?AW4RadiusDiameterConstrType@1@XZ
  ?constrain@NcDbHelix@@UEBA?AW4ConstrainType@1@XZ
  ?constrainedCurveId@NcConstrainedImplicitPoint@@QEBAKXZ
  ?constrainedLineId@NcDistanceConstraint@@QEBAKXZ
  ?constraint@NcDbAssocDimDependencyBodyBase@@QEBAPEAVNcExplicitConstraint@@XZ
  ?constraintAdded@NcAutoConstrainEvaluationCallback@@AEAAXPEAVNcGeomConstraint@@@Z
  ?constraintStatus@NcDbAssoc2dConstraintGroup@@QEBA?AW4SolutionStatus@1@PEBVNcGeomConstraint@@@Z
  ?construct@FileReadDescriptorRep@Ntil@@UEAAXAEBVFileSpecifier@2@PEAVFindFileInterface@2@@Z
