LIBRARY NrxHostGate.dll
EXPORTS
  ??0?$HostArray@PEAVNcEdCommand@@V?$HostObjectsAllocator@PEAVNcEdCommand@@@@@@QEAA@$$QEAV0@@Z
  ??0?$HostArray@PEAVNcEdCommand@@V?$HostObjectsAllocator@PEAVNcEdCommand@@@@@@QEAA@AEBV0@@Z
  ??0?$HostArray@PEAVNcEdCommand@@V?$HostObjectsAllocator@PEAVNcEdCommand@@@@@@QEAA@IH@Z
  ??0?$HostArray@PEAVNcEdCommand@@V?$HostObjectsAllocator@PEAVNcEdCommand@@@@@@QEAA@XZ
  ??0?$HostArray@VNcDMMWideString@@V?$HostObjectsAllocator@VNcDMMWideString@@@@@@QEAA@$$QEAV0@@Z
  ??0?$HostArray@VNcDMMWideString@@V?$HostObjectsAllocator@VNcDMMWideString@@@@@@QEAA@AEBV0@@Z
  ??0?$HostArray@VNcDMMWideString@@V?$HostObjectsAllocator@VNcDMMWideString@@@@@@QEAA@IH@Z
  ??0?$HostArray@VNcDMMWideString@@V?$HostObjectsAllocator@VNcDMMWideString@@@@@@QEAA@XZ
  ??0?$NcArray@PEAVNcEdCommand@@V?$HostObjectsAllocator@PEAVNcEdCommand@@@@@@QEAA@AEBV0@@Z
  ??0?$NcArray@PEAVNcEdCommand@@V?$HostObjectsAllocator@PEAVNcEdCommand@@@@@@QEAA@HH@Z
  ??0?$NcArray@VNcDMMWideString@@V?$HostObjectsAllocator@VNcDMMWideString@@@@@@QEAA@AEBV0@@Z
  ??0?$NcArray@VNcDMMWideString@@V?$HostObjectsAllocator@VNcDMMWideString@@@@@@QEAA@HH@Z
  ??0HostAddictedModules@@QEAA@$$QEAV0@@Z
  ??0HostAddictedModules@@QEAA@AEBV0@@Z
  ??0HostAddictedModules@@QEAA@XZ
  ??0NcApProfileManager@@QEAA@$$QEAV0@@Z
  ??0NcApProfileManager@@QEAA@AEBV0@@Z
  ??0NcApProfileManager@@QEAA@XZ
  ??0NcApProfileManagerReactor@@QEAA@$$QEAV0@@Z
  ??0NcApProfileManagerReactor@@QEAA@AEBV0@@Z
  ??0NcApProfileManagerReactor@@QEAA@XZ
  ??0NcApProfileStorage@@QEAA@$$QEAV0@@Z
  ??0NcApProfileStorage@@QEAA@AEBV0@@Z
  ??0NcApProfileStorage@@QEAA@XZ
  ??0NcDMMEPlotProperties@@QEAA@AEBV0@@Z
  ??0NcDMMEPlotProperties@@QEAA@XZ
  ??0NcDMMEPlotProperty@@QEAA@AEBV0@@Z
  ??0NcDMMEPlotProperty@@QEAA@PEB_W0@Z
  ??0NcDMMEPlotProperty@@QEAA@XZ
  ??0NcDMMEntityReactorInfo@@IEAA@XZ
  ??0NcDMMEntityReactorInfo@@QEAA@AEBV0@@Z
  ??0NcDMMNode@@QEAA@AEBV0@@Z
  ??0NcDMMNode@@QEAA@HPEA_W@Z
  ??0NcDMMNode@@QEAA@XZ
  ??0NcDMMReactor@@IEAA@XZ
  ??0NcDMMReactor@@QEAA@AEBV0@@Z
  ??0NcDMMResourceInfo@@QEAA@AEBV0@@Z
  ??0NcDMMResourceInfo@@QEAA@PEB_W00@Z
  ??0NcDMMResourceInfo@@QEAA@XZ
  ??0NcDMMSheetReactorInfo@@IEAA@XZ
  ??0NcDMMSheetReactorInfo@@QEAA@AEBV0@@Z
  ??0NcDMMWideString@@QEAA@AEBV0@@Z
  ??0NcDMMWideString@@QEAA@PEB_W@Z
  ??0NcDMMWideString@@QEAA@XZ
  ??0NcDMMXMLAttribute@@QEAA@AEBV0@@Z
  ??0NcDMMXMLAttribute@@QEAA@PEB_W000@Z
  ??0NcDMMXMLAttribute@@QEAA@XZ
  ??0NcDocManageIsolationState@@AEAA@PEAViDocManageIsolationState@@@Z
  ??0NcDocManageIsolationStateReactor@@QEAA@AEBV0@@Z
  ??0NcDocManageIsolationStateReactor@@QEAA@XZ
  ??0NcEdCommand@@QEAA@$$QEAV0@@Z
  ??0NcEdCommand@@QEAA@AEBV0@@Z
  ??0NcEdCommand@@QEAA@XZ
  ??0NcEdCommandIterator@@QEAA@$$QEAV0@@Z
  ??0NcEdCommandIterator@@QEAA@AEBV0@@Z
  ??0NcEdCommandIterator@@QEAA@PEAVOdRxObject@@@Z
  ??0NcEdCommandStack@@QEAA@AEBV0@@Z
  ??0NcEdCommandStack@@QEAA@PEAVOdEdCommandStack@@@Z
  ??0NcEdJig@@QEAA@AEBV0@@Z
  ??0NcEdJig@@QEAA@XZ
  ??0NcEdSSGetFilter2@@QEAA@$$QEAV0@@Z
  ??0NcEdSSGetFilter2@@QEAA@AEBV0@@Z
  ??0NcEdSSGetFilter2@@QEAA@XZ
  ??0NcEdSSGetFilter3@@QEAA@$$QEAV0@@Z
  ??0NcEdSSGetFilter3@@QEAA@AEBV0@@Z
  ??0NcEdSSGetFilter3@@QEAA@XZ
  ??0NcEdSSGetFilter4@@QEAA@$$QEAV0@@Z
  ??0NcEdSSGetFilter4@@QEAA@AEBV0@@Z
  ??0NcEdSSGetFilter4@@QEAA@XZ
  ??0NcEdSSGetFilter@@QEAA@AEBV0@@Z
  ??0NcEdSSGetFilter@@QEAA@XZ
  ??0NcEdSSGetSubSelectFilter@@QEAA@$$QEAV0@@Z
  ??0NcEdSSGetSubSelectFilter@@QEAA@AEBV0@@Z
  ??0NcEdSSGetSubSelectFilter@@QEAA@XZ
  ??0NcEdSelectedTransient@@QEAA@AEBV0@@Z
  ??0NcEdSelectedTransient@@QEAA@XZ
  ??0NcEdServices@@QEAA@$$QEAV0@@Z
  ??0NcEdServices@@QEAA@AEBV0@@Z
  ??0NcEdServices@@QEAA@XZ
  ??0NcEdSolidSubentitySelector@@QEAA@XZ
  ??0NcEdSubSelectFilterService@@QEAA@$$QEAV0@@Z
  ??0NcEdSubSelectFilterService@@QEAA@AEBV0@@Z
  ??0NcEdSubSelectFilterService@@QEAA@XZ
  ??0NcEdUIContext@@QEAA@AEBV0@@Z
  ??0NcEdUIContext@@QEAA@XZ
  ??0NcEdXrefFileLock@@QEAA@AEBV0@@Z
  ??0NcEdXrefFileLock@@QEAA@XZ
  ??0NcEditor@@QEAA@$$QEAV0@@Z
  ??0NcEditor@@QEAA@AEBV0@@Z
  ??0NcEditor@@QEAA@PEAVOdRxObject@@@Z
  ??0NcEditor@@QEAA@XZ
  ??0NcEditorReactor2@@QEAA@$$QEAV0@@Z
  ??0NcEditorReactor2@@QEAA@AEBV0@@Z
  ??0NcEditorReactor2@@QEAA@XZ
  ??0NcEditorReactor@@QEAA@AEBV0@@Z
  ??0NcEditorReactor@@QEAA@PEAVOdRxObject@@@Z
  ??0NcEditorReactor@@QEAA@XZ
  ??0NcNameValuePair@@QEAA@AEBV0@@Z
  ??0NcNameValuePair@@QEAA@PEB_W0@Z
  ??0NcNameValuePair@@QEAA@XZ
  ??0NcPlDSDData@@QEAA@AEBV0@@Z
  ??0NcPlDSDData@@QEAA@XZ
  ??0NcPlDSDEntry@@QEAA@AEBV0@@Z
  ??0NcPlDSDEntry@@QEAA@XZ
  ??0NcPlPlotConfigInfo@@QEAA@AEBV0@@Z
  ??0NcPlPlotConfigInfo@@QEAA@PEB_W0W4DeviceType@@@Z
  ??0NcPlPlotConfigInfo@@QEAA@XZ
  ??0NcPlPlotErrorHandler@@QEAA@XZ
  ??0NcPlPlotErrorHandlerLock@@QEAA@PEAVNcPlPlotErrorHandler@@PEB_W@Z
  ??0NcPlPlotErrorHandlerLock@@QEAA@XZ
  ??0NcPlPlotInfo@@QEAA@XZ
  ??0NcPlPlotInfoValidator@@QEAA@XZ
  ??0NcPlPlotLoggingErrorHandler@@QEAA@PEAVNcPlPlotLogger@@@Z
  ??0NcPlPlotLoggingErrorHandler@@QEAA@XZ
  ??0NcPlPlotPageInfo@@QEAA@XZ
  ??0NcPlPlotReactor@@IEAA@XZ
  ??0NcPlPrecisionEntry@@QEAA@AEBV0@@Z
  ??0NcPlPrecisionEntry@@QEAA@XZ
  ??0NcPublishAggregationInfo@@QEAA@AEBV0@@Z
  ??0NcPublishAggregationInfo@@QEAA@XZ
  ??0NcPublishBeforeJobInfo@@QEAA@AEBV0@@Z
  ??0NcPublishBeforeJobInfo@@QEAA@XZ
  ??0NcPublishBeginJobInfo@@QEAA@AEBV0@@Z
  ??0NcPublishBeginJobInfo@@QEAA@XZ
  ??0NcPublishReactor@@IEAA@XZ
  ??0NcPublishReactor@@QEAA@AEBV0@@Z
  ??0NcPublishReactorInfo@@QEAA@AEBV0@@Z
  ??0NcPublishReactorInfo@@QEAA@XZ
  ??0NcPublishSheetInfo@@QEAA@AEBV0@@Z
  ??0NcPublishSheetInfo@@QEAA@XZ
  ??0NcPublishUIReactor2@@IEAA@XZ
  ??0NcPublishUIReactor2@@QEAA@AEBV0@@Z
  ??0NcPublishUIReactor@@IEAA@XZ
  ??0NcPublishUIReactor@@QEAA@AEBV0@@Z
  ??0NcPublishUIReactorInfo@@QEAA@AEBV0@@Z
  ??0NcPublishUIReactorInfo@@QEAA@XZ
  ??0NrxAppInfo@@QEAA@AEBV0@@Z
  ??0NrxAppInfo@@QEAA@PEAVOdRxObject@@@Z
  ??0NrxAppInfo@@QEAA@XZ
  ??1?$HostArray@PEAVNcEdCommand@@V?$HostObjectsAllocator@PEAVNcEdCommand@@@@@@QEAA@XZ
  ??1?$HostArray@VNcDMMWideString@@V?$HostObjectsAllocator@VNcDMMWideString@@@@@@QEAA@XZ
  ??1?$NcArray@PEAVNcEdCommand@@V?$HostObjectsAllocator@PEAVNcEdCommand@@@@@@QEAA@XZ
  ??1?$NcArray@VNcDMMWideString@@V?$HostObjectsAllocator@VNcDMMWideString@@@@@@QEAA@XZ
  ??1HostAddictedModules@@QEAA@XZ
  ??1NcDMMEPlotProperties@@QEAA@XZ
  ??1NcDMMEPlotProperty@@QEAA@XZ
  ??1NcDMMEntityReactorInfo@@QEAA@XZ
  ??1NcDMMNode@@QEAA@XZ
  ??1NcDMMReactor@@UEAA@XZ
  ??1NcDMMResourceInfo@@QEAA@XZ
  ??1NcDMMSheetReactorInfo@@UEAA@XZ
  ??1NcDMMWideString@@UEAA@XZ
  ??1NcDMMXMLAttribute@@QEAA@XZ
  ??1NcDocManageIsolationStateReactor@@UEAA@XZ
  ??1NcEdCommand@@UEAA@XZ
  ??1NcEdCommandIterator@@UEAA@XZ
  ??1NcEdCommandStack@@UEAA@XZ
  ??1NcEdJig@@UEAA@XZ
  ??1NcEdSSGetFilter2@@UEAA@XZ
  ??1NcEdSSGetFilter3@@UEAA@XZ
  ??1NcEdSSGetFilter4@@UEAA@XZ
  ??1NcEdSSGetFilter@@UEAA@XZ
  ??1NcEdSSGetSubSelectFilter@@UEAA@XZ
  ??1NcEdSelectedTransient@@QEAA@XZ
  ??1NcEdServices@@UEAA@XZ
  ??1NcEdSolidSubentitySelector@@QEAA@XZ
  ??1NcEdUIContext@@UEAA@XZ
  ??1NcEdXrefFileLock@@QEAA@XZ
  ??1NcEditor@@UEAA@XZ
  ??1NcEditorReactor2@@UEAA@XZ
  ??1NcEditorReactor@@UEAA@XZ
  ??1NcNameValuePair@@QEAA@XZ
  ??1NcPlDSDData@@UEAA@XZ
  ??1NcPlDSDEntry@@UEAA@XZ
  ??1NcPlObject@@UEAA@XZ
  ??1NcPlPlotConfig@@UEAA@XZ
  ??1NcPlPlotConfigInfo@@UEAA@XZ
  ??1NcPlPlotErrorHandler@@UEAA@XZ
  ??1NcPlPlotInfo@@UEAA@XZ
  ??1NcPlPlotInfoValidator@@UEAA@XZ
  ??1NcPlPlotLoggingErrorHandler@@UEAA@XZ
  ??1NcPlPlotPageInfo@@UEAA@XZ
  ??1NcPlPlotReactor@@UEAA@XZ
  ??1NcPlPrecisionEntry@@UEAA@XZ
  ??1NcPublishAggregationInfo@@UEAA@XZ
  ??1NcPublishBeforeJobInfo@@UEAA@XZ
  ??1NcPublishBeginJobInfo@@UEAA@XZ
  ??1NcPublishReactor@@UEAA@XZ
  ??1NcPublishReactorInfo@@UEAA@XZ
  ??1NcPublishSheetInfo@@UEAA@XZ
  ??1NcPublishUIReactor2@@UEAA@XZ
  ??1NcPublishUIReactor@@UEAA@XZ
  ??1NcPublishUIReactorInfo@@UEAA@XZ
  ??1NrxAppInfo@@UEAA@XZ
  ??4?$HostArray@PEAVNcEdCommand@@V?$HostObjectsAllocator@PEAVNcEdCommand@@@@@@QEAAAEAV0@$$QEAV0@@Z
  ??4?$HostArray@PEAVNcEdCommand@@V?$HostObjectsAllocator@PEAVNcEdCommand@@@@@@QEAAAEAV0@AEBV0@@Z
  ??4?$HostArray@VNcDMMWideString@@V?$HostObjectsAllocator@VNcDMMWideString@@@@@@QEAAAEAV0@$$QEAV0@@Z
  ??4?$HostArray@VNcDMMWideString@@V?$HostObjectsAllocator@VNcDMMWideString@@@@@@QEAAAEAV0@AEBV0@@Z
  ??4?$NcArray@PEAVNcEdCommand@@V?$HostObjectsAllocator@PEAVNcEdCommand@@@@@@QEAAAEAV0@AEBV0@@Z
  ??4?$NcArray@VNcDMMWideString@@V?$HostObjectsAllocator@VNcDMMWideString@@@@@@QEAAAEAV0@AEBV0@@Z
  ??4HostAddictedModules@@QEAAAEAV0@$$QEAV0@@Z
  ??4HostAddictedModules@@QEAAAEAV0@AEBV0@@Z
  ??4NcApProfileManager@@QEAAAEAV0@$$QEAV0@@Z
  ??4NcApProfileManager@@QEAAAEAV0@AEBV0@@Z
  ??4NcApProfileManagerReactor@@QEAAAEAV0@$$QEAV0@@Z
  ??4NcApProfileManagerReactor@@QEAAAEAV0@AEBV0@@Z
  ??4NcApProfileStorage@@QEAAAEAV0@$$QEAV0@@Z
  ??4NcApProfileStorage@@QEAAAEAV0@AEBV0@@Z
  ??4NcDMMEPlotProperties@@QEAAAEAV0@AEBV0@@Z
  ??4NcDMMEPlotProperty@@QEAAAEAV0@AEBV0@@Z
  ??4NcDMMEntityReactorInfo@@QEAAAEAV0@AEBV0@@Z
  ??4NcDMMNode@@QEAAAEAV0@AEBV0@@Z
  ??4NcDMMReactor@@QEAAAEAV0@AEBV0@@Z
  ??4NcDMMResourceInfo@@QEAAAEAV0@AEBV0@@Z
  ??4NcDMMSheetReactorInfo@@QEAAAEAV0@AEBV0@@Z
  ??4NcDMMWideString@@QEAAAEBV0@AEBV0@@Z
  ??4NcDMMWideString@@QEAAAEBV0@PEB_W@Z
  ??4NcDMMXMLAttribute@@QEAAAEBV0@AEBV0@@Z
  ??4NcDocManageIsolationState@@QEAAAEAV0@$$QEAV0@@Z
  ??4NcDocManageIsolationState@@QEAAAEAV0@AEBV0@@Z
  ??4NcDocManageIsolationStateReactor@@QEAAAEAV0@AEBV0@@Z
  ??4NcEdCommand@@QEAAAEAV0@$$QEAV0@@Z
  ??4NcEdCommand@@QEAAAEAV0@AEBV0@@Z
  ??4NcEdCommandIterator@@QEAAAEAV0@$$QEAV0@@Z
  ??4NcEdCommandIterator@@QEAAAEAV0@AEBV0@@Z
  ??4NcEdCommandStack@@QEAAAEAV0@AEBV0@@Z
  ??4NcEdJig@@QEAAAEAV0@AEBV0@@Z
  ??4NcEdSSGetFilter2@@QEAAAEAV0@$$QEAV0@@Z
  ??4NcEdSSGetFilter2@@QEAAAEAV0@AEBV0@@Z
  ??4NcEdSSGetFilter3@@QEAAAEAV0@$$QEAV0@@Z
  ??4NcEdSSGetFilter3@@QEAAAEAV0@AEBV0@@Z
  ??4NcEdSSGetFilter4@@QEAAAEAV0@$$QEAV0@@Z
  ??4NcEdSSGetFilter4@@QEAAAEAV0@AEBV0@@Z
  ??4NcEdSSGetFilter@@QEAAAEAV0@AEBV0@@Z
  ??4NcEdSSGetSubSelectFilter@@QEAAAEAV0@$$QEAV0@@Z
  ??4NcEdSSGetSubSelectFilter@@QEAAAEAV0@AEBV0@@Z
  ??4NcEdSelectedTransient@@QEAAAEAV0@AEBV0@@Z
  ??4NcEdServices@@QEAAAEAV0@$$QEAV0@@Z
  ??4NcEdServices@@QEAAAEAV0@AEBV0@@Z
  ??4NcEdSolidSubentitySelector@@QEAAAEAV0@AEBV0@@Z
  ??4NcEdSubSelectFilterService@@QEAAAEAV0@$$QEAV0@@Z
  ??4NcEdSubSelectFilterService@@QEAAAEAV0@AEBV0@@Z
  ??4NcEdUIContext@@QEAAAEAV0@AEBV0@@Z
  ??4NcEdXrefFileLock@@QEAAAEAV0@AEBV0@@Z
  ??4NcEditor@@QEAAAEAV0@$$QEAV0@@Z
  ??4NcEditor@@QEAAAEAV0@AEBV0@@Z
  ??4NcEditorReactor2@@QEAAAEAV0@$$QEAV0@@Z
  ??4NcEditorReactor2@@QEAAAEAV0@AEBV0@@Z
  ??4NcEditorReactor@@QEAAAEAV0@AEBV0@@Z
  ??4NcNameValuePair@@QEAAAEAV0@AEBV0@@Z
  ??4NcPlDSDData@@QEAAAEAV0@AEBV0@@Z
  ??4NcPlDSDEntry@@QEAAAEAV0@AEBV0@@Z
  ??4NcPlPlotConfigInfo@@QEAAAEBV0@AEBV0@@Z
  ??4NcPlPrecisionEntry@@QEAAAEAV0@AEBV0@@Z
  ??4NcPublishAggregationInfo@@QEAAAEAV0@AEBV0@@Z
  ??4NcPublishBeforeJobInfo@@QEAAAEAV0@AEBV0@@Z
  ??4NcPublishBeginJobInfo@@QEAAAEAV0@AEBV0@@Z
  ??4NcPublishReactor@@QEAAAEAV0@AEBV0@@Z
  ??4NcPublishReactorInfo@@QEAAAEAV0@AEBV0@@Z
  ??4NcPublishSheetInfo@@QEAAAEAV0@AEBV0@@Z
  ??4NcPublishUIReactor2@@QEAAAEAV0@AEBV0@@Z
  ??4NcPublishUIReactor@@QEAAAEAV0@AEBV0@@Z
  ??4NcPublishUIReactorInfo@@QEAAAEAV0@AEBV0@@Z
  ??4NrxAppInfo@@QEAAAEAV0@AEBV0@@Z
  ??8?$HostArray@PEAVNcEdCommand@@V?$HostObjectsAllocator@PEAVNcEdCommand@@@@@@QEBA_NAEBV0@@Z
  ??8?$HostArray@VNcDMMWideString@@V?$HostObjectsAllocator@VNcDMMWideString@@@@@@QEBA_NAEBV0@@Z
  ??8?$NcArray@PEAVNcEdCommand@@V?$HostObjectsAllocator@PEAVNcEdCommand@@@@@@QEBA_NAEBV0@@Z
  ??8?$NcArray@VNcDMMWideString@@V?$HostObjectsAllocator@VNcDMMWideString@@@@@@QEBA_NAEBV0@@Z
  ??9?$HostArray@PEAVNcEdCommand@@V?$HostObjectsAllocator@PEAVNcEdCommand@@@@@@QEBA_NAEBV0@@Z
  ??9?$HostArray@VNcDMMWideString@@V?$HostObjectsAllocator@VNcDMMWideString@@@@@@QEBA_NAEBV0@@Z
  ??A?$HostArray@PEAVNcEdCommand@@V?$HostObjectsAllocator@PEAVNcEdCommand@@@@@@QEAAAEAPEAVNcEdCommand@@I@Z
  ??A?$HostArray@PEAVNcEdCommand@@V?$HostObjectsAllocator@PEAVNcEdCommand@@@@@@QEBAAEBQEAVNcEdCommand@@I@Z
  ??A?$HostArray@VNcDMMWideString@@V?$HostObjectsAllocator@VNcDMMWideString@@@@@@QEAAAEAVNcDMMWideString@@I@Z
  ??A?$HostArray@VNcDMMWideString@@V?$HostObjectsAllocator@VNcDMMWideString@@@@@@QEBAAEBVNcDMMWideString@@I@Z
  ??A?$NcArray@PEAVNcEdCommand@@V?$HostObjectsAllocator@PEAVNcEdCommand@@@@@@QEAAAEAPEAVNcEdCommand@@H@Z
  ??A?$NcArray@PEAVNcEdCommand@@V?$HostObjectsAllocator@PEAVNcEdCommand@@@@@@QEBAAEBQEAVNcEdCommand@@H@Z
  ??A?$NcArray@VNcDMMWideString@@V?$HostObjectsAllocator@VNcDMMWideString@@@@@@QEAAAEAVNcDMMWideString@@H@Z
  ??A?$NcArray@VNcDMMWideString@@V?$HostObjectsAllocator@VNcDMMWideString@@@@@@QEBAAEBVNcDMMWideString@@H@Z
  ??BNcDMMWideString@@QEBAPEB_WXZ
  ??YNcDMMWideString@@QEAAAEBV0@V0@@Z
  ??_4@YAAEAW4NcEdCommandStatusFlags@@AEAW40@H@Z
  ??_5@YAAEAW4NcEdCommandStatusFlags@@AEAW40@H@Z
  ??_7HostAddictedModules@@6B@
  ??_7NcApProfileManager@@6B@
  ??_7NcApProfileManagerReactor@@6B@
  ??_7NcApProfileStorage@@6B@
  ??_7NcDMMEntityReactorInfo@@6B@
  ??_7NcDMMReactor@@6B@
  ??_7NcDMMSheetReactorInfo@@6B@
  ??_7NcDMMWideString@@6B@
  ??_7NcDocManageIsolationStateReactor@@6B@
  ??_7NcEdCommand@@6B@
  ??_7NcEdCommandIterator@@6B@
  ??_7NcEdCommandStack@@6B@
  ??_7NcEdJig@@6B@
  ??_7NcEdSSGetFilter2@@6B@
  ??_7NcEdSSGetFilter3@@6B@
  ??_7NcEdSSGetFilter4@@6B@
  ??_7NcEdSSGetFilter@@6B@
  ??_7NcEdSSGetSubSelectFilter@@6B@
  ??_7NcEdServices@@6B@
  ??_7NcEdSubSelectFilterService@@6B@
  ??_7NcEdUIContext@@6B@
  ??_7NcEditor@@6B@
  ??_7NcEditorReactor2@@6B@
  ??_7NcEditorReactor@@6B@
  ??_7NcPublishAggregationInfo@@6B@
  ??_7NcPublishBeforeJobInfo@@6B@
  ??_7NcPublishBeginJobInfo@@6B@
  ??_7NcPublishReactor@@6B@
  ??_7NcPublishReactorInfo@@6B@
  ??_7NcPublishSheetInfo@@6B@
  ??_7NcPublishUIReactor2@@6B@
  ??_7NcPublishUIReactor@@6B@
  ??_7NcPublishUIReactorInfo@@6B@
  ??_7NrxAppInfo@@6B@
  ??_F?$NcArray@PEAVNcEdCommand@@V?$HostObjectsAllocator@PEAVNcEdCommand@@@@@@QEAAXXZ
  ??_F?$NcArray@VNcDMMWideString@@V?$HostObjectsAllocator@VNcDMMWideString@@@@@@QEAAXXZ
  ?AddGlobalProperties@NcPublishAggregationInfo@@UEAAXV?$NcArray@VNcDMMEPlotProperty@@V?$HostObjectsAllocator@VNcDMMEPlotProperty@@@@@@@Z
  ?AddGlobalResources@NcPublishAggregationInfo@@UEAAXV?$NcArray@VNcDMMResourceInfo@@V?$HostObjectsAllocator@VNcDMMResourceInfo@@@@@@@Z
  ?AddNodeToMap@NcDMMEntityReactorInfo@@UEAA_NVNcDbObjectId@@V?$NcArray@VNcDbObjectId@@V?$HostObjectsAllocator@VNcDbObjectId@@@@@@H@Z
  ?AddPageProperties@NcDMMSheetReactorInfo@@UEAAXV?$NcArray@VNcDMMEPlotProperty@@V?$HostObjectsAllocator@VNcDMMEPlotProperty@@@@@@@Z
  ?AddPageResources@NcDMMSheetReactorInfo@@UEAAXV?$NcArray@VNcDMMResourceInfo@@V?$HostObjectsAllocator@VNcDMMResourceInfo@@@@@@@Z
  ?AddProperties@NcDMMEntityReactorInfo@@UEAA_NPEBVNcDMMEPlotProperties@@@Z
  ?AddPropertiesIds@NcDMMEntityReactorInfo@@UEAA_NPEAV?$NcArray@VNcDMMWideString@@V?$HostObjectsAllocator@VNcDMMWideString@@@@@@AEAVNcDMMNode@@@Z
  ?AddProperty@NcDMMEPlotProperties@@QEAAXPEA_W0@Z
  ?AddProperty@NcDMMEPlotProperties@@QEAAXPEBVNcDMMEPlotProperty@@@Z
  ?AddXMLAttribute@NcDMMEPlotProperty@@QEAAXPEBVNcDMMXMLAttribute@@@Z
  ?AddXMLAttribute@NcDMMEPlotProperty@@QEAAXPEB_W000@Z
  ?Alloc@NcDMMWideString@@AEAAXPEB_W@Z
  ?Alloc@NcDMMWideString@@AEAAXPEB_W_K@Z
  ?Alloc@NcDMMWideString@@AEAAX_K@Z
  ?DSDEntryAt@NcPlDSDData@@QEAAAEAVNcPlDSDEntry@@H@Z
  ?Empty@NcDMMWideString@@QEAAXXZ
  ?GetAttributeName@NcDMMXMLAttribute@@QEBAPEB_WXZ
  ?GetAttributeValue@NcDMMXMLAttribute@@QEBAPEB_WXZ
  ?GetCategory@NcDMMEPlotProperty@@QEBAPEB_WXZ
  ?GetCommandStack@@YAPEAVNcEdCommandStack@@XZ
  ?GetCurrentEntityNode@NcDMMEntityReactorInfo@@UEBA_NAEAVNcDMMNode@@V?$NcArray@VNcDbObjectId@@V?$HostObjectsAllocator@VNcDbObjectId@@@@@@@Z
  ?GetDSDData@NcPublishBeforeJobInfo@@UEAAPEBVNcPlDSDData@@XZ
  ?GetDSDData@NcPublishBeginJobInfo@@UEAAPEBVNcPlDSDData@@XZ
  ?GetDSDData@NcPublishUIReactorInfo@@UEAAPEBVNcPlDSDData@@XZ
  ?GetDSDEntry@NcPublishSheetInfo@@UEAAPEBVNcPlDSDEntry@@XZ
  ?GetEntityNode@NcDMMEntityReactorInfo@@UEBA_NVNcDbObjectId@@V?$NcArray@VNcDbObjectId@@V?$HostObjectsAllocator@VNcDbObjectId@@@@@@AEAH@Z
  ?GetId@NcDMMEPlotProperties@@QEBAPEB_WXZ
  ?GetLength@NcDMMWideString@@QEBAIXZ
  ?GetMime@NcDMMResourceInfo@@QEBAPEB_WXZ
  ?GetName@NcDMMEPlotProperty@@QEBAPEB_WXZ
  ?GetNamespace@NcDMMXMLAttribute@@QEBAPEB_WXZ
  ?GetNamespaceUrl@NcDMMXMLAttribute@@QEBAPEB_WXZ
  ?GetNextAvailableNodeId@NcDMMEntityReactorInfo@@UEBAHXZ
  ?GetNode@NcDMMEntityReactorInfo@@UEBAPEBVNcDMMNode@@H@Z
  ?GetPath@NcDMMResourceInfo@@QEBAPEB_WXZ
  ?GetPlotLogger@NcDMMEntityReactorInfo@@UEAAPEAVNcPlPlotLogger@@XZ
  ?GetPlotLogger@NcDMMSheetReactorInfo@@UEAAPEAVNcPlPlotLogger@@XZ
  ?GetPlotLogger@NcPublishAggregationInfo@@UEAAPEAVNcPlPlotLogger@@XZ
  ?GetPlotLogger@NcPublishBeginJobInfo@@UEAAPEAVNcPlPlotLogger@@XZ
  ?GetPlotLogger@NcPublishSheetInfo@@UEAAPEAVNcPlPlotLogger@@XZ
  ?GetPrivateData@NcPublishBeforeJobInfo@@UEAA?BV?$NcArray@VNcNameValuePair@@V?$HostObjectsAllocator@VNcNameValuePair@@@@@@PEB_W@Z
  ?GetPrivateData@NcPublishBeginJobInfo@@UEAA?BV?$NcArray@VNcNameValuePair@@V?$HostObjectsAllocator@VNcNameValuePair@@@@@@PEB_W@Z
  ?GetPrivateData@NcPublishUIReactorInfo@@UEAA?BV?$NcArray@VNcNameValuePair@@V?$HostObjectsAllocator@VNcNameValuePair@@@@@@PEB_W@Z
  ?GetProperties@NcDMMEPlotProperties@@QEBAAEBV?$NcArray@VNcDMMEPlotProperty@@V?$HostObjectsAllocator@VNcDMMEPlotProperty@@@@@@XZ
  ?GetProperty@NcDMMEPlotProperties@@QEBAPEBVNcDMMEPlotProperty@@K@Z
  ?GetRefs@NcDMMEPlotProperties@@QEBAPEBV?$NcArray@VNcDMMWideString@@V?$HostObjectsAllocator@VNcDMMWideString@@@@@@XZ
  ?GetRole@NcDMMResourceInfo@@QEBAPEB_WXZ
  ?GetType@NcDMMEPlotProperty@@QEBAPEB_WXZ
  ?GetUniqueId@NcPublishSheetInfo@@UEAAPEB_WXZ
  ?GetUnits@NcDMMEPlotProperty@@QEBAPEB_WXZ
  ?GetUserSessionContext@@YAPEAVCUserSessionData@@XZ
  ?GetValue@NcDMMEPlotProperty@@QEBAPEB_WXZ
  ?GetXMLAttributes@NcDMMEPlotProperty@@QEBAAEBV?$NcArray@VNcDMMXMLAttribute@@V?$HostObjectsAllocator@VNcDMMXMLAttribute@@@@@@XZ
  ?IsEmpty@NcDMMWideString@@QEBA_NXZ
  ?JobWillPublishInBackground@NcPublishBeforeJobInfo@@UEAA_NXZ
  ?JobWillPublishInBackground@NcPublishBeginJobInfo@@UEAA_NXZ
  ?JobWillPublishInBackground@NcPublishUIReactorInfo@@UEAA_NXZ
  ?MoveChars@NcDMMWideString@@AEAAXHPEB_W_K@Z
  ?NPS@NcPlDSDEntry@@QEBAPEB_WXZ
  ?NPSSourceDWG@NcPlDSDEntry@@QEBAPEB_WXZ
  ?NcPlGetHostAppServices@@YAPEAVNcPlHostAppServices@@XZ
  ?NcPlSetHostAppServices@@YA?AW4ErrorStatus@Nano@@PEAVNcPlHostAppServices@@@Z
  ?OnAboutToBeginBackgroundPublishing@NcPublishReactor@@UEAAXPEAVNcPublishBeforeJobInfo@@@Z
  ?OnAboutToBeginPublishing@NcPublishReactor@@UEAAXPEAVNcPublishBeginJobInfo@@@Z
  ?OnAboutToEndPublishing@NcPublishReactor@@UEAAXPEAVNcPublishReactorInfo@@@Z
  ?OnAboutToMoveFile@NcPublishReactor@@UEAAXPEAVNcPublishReactorInfo@@@Z
  ?OnBeginAggregation@NcPublishReactor@@UEAAXPEAVNcPublishAggregationInfo@@@Z
  ?OnBeginEntity@NcDMMReactor@@UEAAXPEAVNcDMMEntityReactorInfo@@@Z
  ?OnBeginPublishingSheet@NcPublishReactor@@UEAAXPEAVNcPublishSheetInfo@@@Z
  ?OnBeginSheet@NcDMMReactor@@UEAAXPEAVNcDMMSheetReactorInfo@@@Z
  ?OnCancelledOrFailedPublishing@NcPublishReactor@@UEAAXPEAVNcPublishReactorInfo@@@Z
  ?OnEndEntity@NcDMMReactor@@UEAAXPEAVNcDMMEntityReactorInfo@@@Z
  ?OnEndPublish@NcPublishReactor@@UEAAXPEAVNcPublishReactorInfo@@@Z
  ?OnEndSheet@NcDMMReactor@@UEAAXPEAVNcDMMSheetReactorInfo@@@Z
  ?OnInitAutoPublishSettingsDialog@NcPublishUIReactor@@UEAAXPEAPEAUIUnknown@@PEAVNcPublishUIReactorInfo@@@Z
  ?OnInitExportOptionsDialog@NcPublishUIReactor@@UEAAXPEAPEAUIUnknown@@PEAVNcPublishUIReactorInfo@@@Z
  ?OnInitPublishOptionsDialog@NcPublishUIReactor@@UEAAXPEAPEAUIUnknown@@PEAVNcPublishUIReactorInfo@@@Z
  ?OnUpdateMenu@NcEdUIContext@@UEAAXXZ
  ?PersistenceRegistryForAutoPublishDialog@NcPublishUIReactor@@UEAAXPEB_W_N@Z
  ?PersistenceRegistryForExportOptionsDialog@NcPublishUIReactor@@UEAAXPEB_W_N@Z
  ?PersistenceRegistryForPubishOptionsDialog@NcPublishUIReactor2@@UEAAXPEB_W_N@Z
  ?Release@NcDMMWideString@@AEAAXXZ
  ?Release@NcDMMWideString@@CAXPEA_W@Z
  ?SetAttributeName@NcDMMXMLAttribute@@QEAAXPEB_W@Z
  ?SetAttributeValue@NcDMMXMLAttribute@@QEAAXPEB_W@Z
  ?SetCategory@NcDMMEPlotProperty@@QEAAXPEB_W@Z
  ?SetCurrentNode@NcDMMEntityReactorInfo@@UEAA_NHV?$NcArray@VNcDbObjectId@@V?$HostObjectsAllocator@VNcDbObjectId@@@@@@@Z
  ?SetId@NcDMMEPlotProperties@@QEAAXPEB_W@Z
  ?SetMime@NcDMMResourceInfo@@QEAAXPEA_W@Z
  ?SetMime@NcDMMResourceInfo@@QEAAXPEB_W@Z
  ?SetName@NcDMMEPlotProperty@@QEAAXPEB_W@Z
  ?SetNamespace@NcDMMXMLAttribute@@QEAAXPEB_W@Z
  ?SetNamespaceUrl@NcDMMXMLAttribute@@QEAAXPEB_W@Z
  ?SetNodeName@NcDMMEntityReactorInfo@@UEAA_NHPEB_W@Z
  ?SetNodeName@NcDMMNode@@QEAAXPEB_W@Z
  ?SetNodeNumber@NcDMMNode@@QEAAXH@Z
  ?SetPath@NcDMMResourceInfo@@QEAAXPEA_W@Z
  ?SetPath@NcDMMResourceInfo@@QEAAXPEB_W@Z
  ?SetRefs@NcDMMEPlotProperties@@QEAAXAEBV?$NcArray@VNcDMMWideString@@V?$HostObjectsAllocator@VNcDMMWideString@@@@@@@Z
  ?SetRole@NcDMMResourceInfo@@QEAAXPEA_W@Z
  ?SetRole@NcDMMResourceInfo@@QEAAXPEB_W@Z
  ?SetType@NcDMMEPlotProperty@@QEAAXPEB_W@Z
  ?SetUnits@NcDMMEPlotProperty@@QEAAXPEB_W@Z
  ?SetValue@NcDMMEPlotProperty@@QEAAXPEB_W@Z
  ?UniqueEntityId@NcDMMEntityReactorInfo@@UEAAPEB_WXZ
  ?UniqueLayoutId@NcDMMSheetReactorInfo@@UEAAPEB_WXZ
  ?WritePrivateSection@NcPublishBeforeJobInfo@@UEAA_NPEB_WV?$NcArray@VNcNameValuePair@@V?$HostObjectsAllocator@VNcNameValuePair@@@@@@@Z
  ?WritePrivateSection@NcPublishBeginJobInfo@@UEAA_NPEB_WV?$NcArray@VNcNameValuePair@@V?$HostObjectsAllocator@VNcNameValuePair@@@@@@@Z
  ?WritePrivateSection@NcPublishUIReactorInfo@@UEAA_NPEB_WV?$NcArray@VNcNameValuePair@@V?$HostObjectsAllocator@VNcNameValuePair@@@@@@@Z
  ?_g_pHostAddictedModules@@3PEAVHostAddictedModules@@EA
  ?abortAttach@NcEditorReactor@@UEAAXPEAVNcDbDatabase@@@Z
  ?abortDeepClone@NcEditorReactor@@UEAAXAEAVNcDbIdMapping@@@Z
  ?abortDxfIn@NcEditorReactor@@UEAAXPEAVNcDbDatabase@@@Z
  ?abortDxfOut@NcEditorReactor@@UEAAXPEAVNcDbDatabase@@@Z
  ?abortInsert@NcEditorReactor@@UEAAXPEAVNcDbDatabase@@@Z
  ?abortRestore@NcEditorReactor@@UEAAXPEAVNcDbDatabase@@@Z
  ?abortSave@NcEditorReactor@@UEAAXPEAVNcDbDatabase@@@Z
  ?abortWblock@NcEditorReactor@@UEAAXPEAVNcDbDatabase@@@Z
  ?acquireAngle@NcEdJig@@QEAA?AW4DragStatus@1@AEAN@Z
  ?acquireAngle@NcEdJig@@QEAA?AW4DragStatus@1@AEANAEBVNcGePoint3d@@@Z
  ?acquireDist@NcEdJig@@QEAA?AW4DragStatus@1@AEAN@Z
  ?acquireDist@NcEdJig@@QEAA?AW4DragStatus@1@AEANAEBVNcGePoint3d@@@Z
  ?acquirePoint@NcEdJig@@QEAA?AW4DragStatus@1@AEAVNcGePoint3d@@@Z
  ?acquirePoint@NcEdJig@@QEAA?AW4DragStatus@1@AEAVNcGePoint3d@@AEBV3@@Z
  ?acquireString@NcEdJig@@QEAA?AW4DragStatus@1@PEA_W@Z
  ?add3DDwfAttribute@NcDMMEntityReactorInfo@@UEAA_NPEB_W00000@Z
  ?add3DDwfProperty@NcDMMEntityReactorInfo@@UEAA_NPEB_W00@Z
  ?add@NcEdSubSelectFilterService@@UEAA?AW4ErrorStatus@Nano@@PEAUresbuf@@AEBVNcDbFullSubentPath@@@Z
  ?addAddictedModule@HostAddictedModules@@UEAAXXZ
  ?addCommand@NcEdCommandStack@@UEAA?AW4ErrorStatus@Nano@@PEB_W00JP6AXXZPEAVNcEdUIContext@@HPEAUHINSTANCE__@@PEAPEAVNcEdCommand@@@Z
  ?addIsolationStateReactor@NcDocManageIsolationState@@QEAAXPEAVNcDocManageIsolationStateReactor@@@Z
  ?addReactor@NcEdCommand@@QEAAXPEAVNcEdCommandReactor@@@Z
  ?addReactor@NcEdCommandStack@@QEAAXPEAVNcEdCommandStackReactor@@@Z
  ?addReactor@NcEditor@@UEAAXPEAVNcRxEventReactor@@@Z
  ?addReactor@NcPlPlotReactorMgr@@QEAAXPEAVNcPlPlotReactor@@@Z
  ?addSSgetFilterInputContextReactor@@YA?AW4ErrorStatus@Nano@@PEAVNcApDocument@@PEAVNcEdSSGetFilter2@@@Z
  ?addSSgetFilterInputContextReactor@@YA?AW4ErrorStatus@Nano@@PEAVNcApDocument@@PEAVNcEdSSGetFilter3@@@Z
  ?addSSgetFilterInputContextReactor@@YA?AW4ErrorStatus@Nano@@PEAVNcApDocument@@PEAVNcEdSSGetFilter4@@@Z
  ?addSSgetFilterInputContextReactor@@YA?AW4ErrorStatus@Nano@@PEAVNcApDocument@@PEAVNcEdSSGetFilter@@@Z
  ?addSSgetFilterInputContextReactor@@YA?AW4ErrorStatus@Nano@@PEAVNcApDocument@@PEAVNcEdSSGetSubSelectFilter@@@Z
  ?appARIError@NcPlPlotErrorHandler@@IEAA?AW4ErrorResult@1@_KIPEB_W11@Z
  ?appDesc@NrxAppInfo@@QEBAPEB_WXZ
  ?appError@NcPlPlotErrorHandler@@IEAA?AW4ErrorResult@1@_KIPEB_W11@Z
  ?appImplements@NrxAppInfo@@QEBA_NPEB_W@Z
  ?appInfo@NcPlPlotErrorHandler@@IEAAX_KIPEB_W11@Z
  ?appInfoMessage@NcPlPlotErrorHandler@@IEAAXPEB_W@Z
  ?appLogMessage@NcPlPlotErrorHandler@@IEAAXPEB_W0@Z
  ?appMessageBox@NcPlPlotErrorHandler@@IEAAHPEB_W0IH@Z
  ?appName@NcPlPlotErrorHandlerLock@@QEBAPEB_WXZ
  ?appName@NrxAppInfo@@QEBAPEB_WXZ
  ?appSetLogHandle@NcPlPlotErrorHandler@@IEAA_NPEB_W@Z
  ?appSevereError@NcPlPlotErrorHandler@@IEAAX_KIPEB_W11@Z
  ?appTerminalError@NcPlPlotErrorHandler@@IEAAX_KIPEB_W11@Z
  ?appWarning@NcPlPlotErrorHandler@@IEAA?AW4ErrorResult@1@_KIPEB_W11@Z
  ?append@?$HostArray@PEAVNcEdCommand@@V?$HostObjectsAllocator@PEAVNcEdCommand@@@@@@QEAAAEAV1@$$QEAV1@@Z
  ?append@?$HostArray@PEAVNcEdCommand@@V?$HostObjectsAllocator@PEAVNcEdCommand@@@@@@QEAAAEAV1@AEBV1@@Z
  ?append@?$HostArray@PEAVNcEdCommand@@V?$HostObjectsAllocator@PEAVNcEdCommand@@@@@@QEAAI$$QEAPEAVNcEdCommand@@@Z
  ?append@?$HostArray@PEAVNcEdCommand@@V?$HostObjectsAllocator@PEAVNcEdCommand@@@@@@QEAAIAEBQEAVNcEdCommand@@@Z
  ?append@?$HostArray@PEAVNcEdCommand@@V?$HostObjectsAllocator@PEAVNcEdCommand@@@@@@QEAAPEAPEAVNcEdCommand@@XZ
  ?append@?$HostArray@VNcDMMWideString@@V?$HostObjectsAllocator@VNcDMMWideString@@@@@@QEAAAEAV1@$$QEAV1@@Z
  ?append@?$HostArray@VNcDMMWideString@@V?$HostObjectsAllocator@VNcDMMWideString@@@@@@QEAAAEAV1@AEBV1@@Z
  ?append@?$HostArray@VNcDMMWideString@@V?$HostObjectsAllocator@VNcDMMWideString@@@@@@QEAAI$$QEAVNcDMMWideString@@@Z
  ?append@?$HostArray@VNcDMMWideString@@V?$HostObjectsAllocator@VNcDMMWideString@@@@@@QEAAIAEBVNcDMMWideString@@@Z
  ?append@?$HostArray@VNcDMMWideString@@V?$HostObjectsAllocator@VNcDMMWideString@@@@@@QEAAPEAVNcDMMWideString@@XZ
  ?append@?$NcArray@PEAVNcEdCommand@@V?$HostObjectsAllocator@PEAVNcEdCommand@@@@@@QEAAAEAV1@AEBV1@@Z
  ?append@?$NcArray@PEAVNcEdCommand@@V?$HostObjectsAllocator@PEAVNcEdCommand@@@@@@QEAAHAEBQEAVNcEdCommand@@@Z
  ?append@?$NcArray@VNcDMMWideString@@V?$HostObjectsAllocator@VNcDMMWideString@@@@@@QEAAAEAV1@AEBV1@@Z
  ?append@?$NcArray@VNcDMMWideString@@V?$HostObjectsAllocator@VNcDMMWideString@@@@@@QEAAHAEBVNcDMMWideString@@@Z
  ?append@NcEdJig@@QEAA?AVNcDbObjectId@@XZ
  ?appendMove@?$HostArray@PEAVNcEdCommand@@V?$HostObjectsAllocator@PEAVNcEdCommand@@@@@@QEAAAEAV1@$$QEAV1@@Z
  ?appendMove@?$HostArray@PEAVNcEdCommand@@V?$HostObjectsAllocator@PEAVNcEdCommand@@@@@@QEAAI$$QEAPEAVNcEdCommand@@@Z
  ?appendMove@?$HostArray@VNcDMMWideString@@V?$HostObjectsAllocator@VNcDMMWideString@@@@@@QEAAAEAV1@$$QEAV1@@Z
  ?appendMove@?$HostArray@VNcDMMWideString@@V?$HostObjectsAllocator@VNcDMMWideString@@@@@@QEAAI$$QEAVNcDMMWideString@@@Z
  ?appendRep@?$HostArray@PEAVNcEdCommand@@V?$HostObjectsAllocator@PEAVNcEdCommand@@@@@@QEAAAEAV1@AEBQEAVNcEdCommand@@I@Z
  ?appendRep@?$HostArray@VNcDMMWideString@@V?$HostObjectsAllocator@VNcDMMWideString@@@@@@QEAAAEAV1@AEBVNcDMMWideString@@I@Z
  ?applyCurDwgLayerTableChanges@@YA?AW4ErrorStatus@Nano@@XZ
  ?areLinesHidden@NcDMMSheetReactorInfo@@UEBA_NXZ
  ?arePlottingLineWeights@NcDMMSheetReactorInfo@@UEBA_NXZ
  ?areScalingLineWeights@NcDMMSheetReactorInfo@@UEBA_NXZ
  ?ariError@NcPlPlotErrorHandler@@UEAA?AW4ErrorResult@1@_KIPEB_W11@Z
  ?ariError@NcPlPlotLoggingErrorHandler@@UEAA?AW4ErrorResult@NcPlPlotErrorHandler@@_KIPEB_W11@Z
  ?ariTitle@NcPlPlotErrorHandler@@UEBAPEB_WXZ
  ?asArrayPtr@?$HostArray@PEAVNcEdCommand@@V?$HostObjectsAllocator@PEAVNcEdCommand@@@@@@QEAAPEAPEAVNcEdCommand@@XZ
  ?asArrayPtr@?$HostArray@PEAVNcEdCommand@@V?$HostObjectsAllocator@PEAVNcEdCommand@@@@@@QEBAPEBQEAVNcEdCommand@@XZ
  ?asArrayPtr@?$HostArray@VNcDMMWideString@@V?$HostObjectsAllocator@VNcDMMWideString@@@@@@QEAAPEAVNcDMMWideString@@XZ
  ?asArrayPtr@?$HostArray@VNcDMMWideString@@V?$HostObjectsAllocator@VNcDMMWideString@@@@@@QEBAPEBVNcDMMWideString@@XZ
  ?asArrayPtr@?$NcArray@PEAVNcEdCommand@@V?$HostObjectsAllocator@PEAVNcEdCommand@@@@@@QEAAPEAPEAVNcEdCommand@@XZ
  ?asArrayPtr@?$NcArray@PEAVNcEdCommand@@V?$HostObjectsAllocator@PEAVNcEdCommand@@@@@@QEBAPEBQEAVNcEdCommand@@XZ
  ?asArrayPtr@?$NcArray@VNcDMMWideString@@V?$HostObjectsAllocator@VNcDMMWideString@@@@@@QEAAPEAVNcDMMWideString@@XZ
  ?asArrayPtr@?$NcArray@VNcDMMWideString@@V?$HostObjectsAllocator@VNcDMMWideString@@@@@@QEBAPEBVNcDMMWideString@@XZ
  ?assertValid@?$HostArray@PEAVNcEdCommand@@V?$HostObjectsAllocator@PEAVNcEdCommand@@@@@@AEBAXI@Z
  ?assertValid@?$HostArray@VNcDMMWideString@@V?$HostObjectsAllocator@VNcDMMWideString@@@@@@AEBAXI@Z
  ?assign@?$HostArray@PEAVNcEdCommand@@V?$HostObjectsAllocator@PEAVNcEdCommand@@@@@@QEAAXPEBQEAVNcEdCommand@@0@Z
  ?assign@?$HostArray@VNcDMMWideString@@V?$HostObjectsAllocator@VNcDMMWideString@@@@@@QEAAXPEBVNcDMMWideString@@0@Z
  ?assignMove@?$HostArray@PEAVNcEdCommand@@V?$HostObjectsAllocator@PEAVNcEdCommand@@@@@@QEAAXPEAPEAVNcEdCommand@@0@Z
  ?assignMove@?$HostArray@VNcDMMWideString@@V?$HostObjectsAllocator@VNcDMMWideString@@@@@@QEAAXPEAVNcDMMWideString@@0@Z
  ?at@?$HostArray@PEAVNcEdCommand@@V?$HostObjectsAllocator@PEAVNcEdCommand@@@@@@QEAAAEAPEAVNcEdCommand@@I@Z
  ?at@?$HostArray@PEAVNcEdCommand@@V?$HostObjectsAllocator@PEAVNcEdCommand@@@@@@QEBAAEBQEAVNcEdCommand@@I@Z
  ?at@?$HostArray@VNcDMMWideString@@V?$HostObjectsAllocator@VNcDMMWideString@@@@@@QEAAAEAVNcDMMWideString@@I@Z
  ?at@?$HostArray@VNcDMMWideString@@V?$HostObjectsAllocator@VNcDMMWideString@@@@@@QEBAAEBVNcDMMWideString@@I@Z
  ?at@?$NcArray@PEAVNcEdCommand@@V?$HostObjectsAllocator@PEAVNcEdCommand@@@@@@QEAAAEAPEAVNcEdCommand@@H@Z
  ?at@?$NcArray@PEAVNcEdCommand@@V?$HostObjectsAllocator@PEAVNcEdCommand@@@@@@QEBAAEBQEAVNcEdCommand@@H@Z
  ?at@?$NcArray@VNcDMMWideString@@V?$HostObjectsAllocator@VNcDMMWideString@@@@@@QEAAAEAVNcDMMWideString@@H@Z
  ?at@?$NcArray@VNcDMMWideString@@V?$HostObjectsAllocator@VNcDMMWideString@@@@@@QEBAAEBVNcDMMWideString@@H@Z
  ?atPut@NcEdCommandStack@@UEAA_NPEB_WAEAPEAVNcRxDictionary@@PEAV2@@Z
  ?begin@?$HostArray@PEAVNcEdCommand@@V?$HostObjectsAllocator@PEAVNcEdCommand@@@@@@QEAAPEAPEAVNcEdCommand@@XZ
  ?begin@?$HostArray@PEAVNcEdCommand@@V?$HostObjectsAllocator@PEAVNcEdCommand@@@@@@QEBAPEBQEAVNcEdCommand@@XZ
  ?begin@?$HostArray@VNcDMMWideString@@V?$HostObjectsAllocator@VNcDMMWideString@@@@@@QEAAPEAVNcDMMWideString@@XZ
  ?begin@?$HostArray@VNcDMMWideString@@V?$HostObjectsAllocator@VNcDMMWideString@@@@@@QEBAPEBVNcDMMWideString@@XZ
  ?beginAttach@NcEditorReactor@@UEAAXPEAVNcDbDatabase@@PEB_W0@Z
  ?beginClose@NcEditorReactor@@UEAAXPEAVNcDbDatabase@@@Z
  ?beginDeepClone@NcEditorReactor@@UEAAXPEAVNcDbDatabase@@AEAVNcDbIdMapping@@@Z
  ?beginDeepCloneXlation@NcEditorReactor@@UEAAXAEAVNcDbIdMapping@@PEAW4ErrorStatus@Nano@@@Z
  ?beginDocClose@NcEditorReactor2@@UEAAXPEAVNcDbDatabase@@@Z
  ?beginDocument@NcPlPlotReactor@@UEAAXAEAVNcPlPlotInfo@@PEB_WJ_N1@Z
  ?beginDoubleClick@NcEditorReactor@@UEAAXAEBVNcGePoint3d@@@Z
  ?beginDwgOpen@NcEditorReactor@@UEAAXPEA_W@Z
  ?beginDxfIn@NcEditorReactor@@UEAAXPEAVNcDbDatabase@@@Z
  ?beginDxfOut@NcEditorReactor@@UEAAXPEAVNcDbDatabase@@@Z
  ?beginInsert@NcEditorReactor@@UEAAXPEAVNcDbDatabase@@AEBVNcGeMatrix3d@@0@Z
  ?beginInsert@NcEditorReactor@@UEAAXPEAVNcDbDatabase@@PEB_W0@Z
  ?beginPage@NcPlPlotReactor@@UEAAXAEAVNcPlPlotPageInfo@@AEAVNcPlPlotInfo@@_N@Z
  ?beginPlot@NcPlPlotReactor@@UEAAXPEAVNcPlPlotProgress@@W4PlotType@1@@Z
  ?beginQuit@NcEditorReactor@@UEAAXXZ
  ?beginRestore@NcEditorReactor@@UEAAXPEAVNcDbDatabase@@PEB_W0@Z
  ?beginRightClick@NcEditorReactor@@UEAAXAEBVNcGePoint3d@@@Z
  ?beginSSGetCustomKeywordCallback@NcEdSSGetFilter4@@UEAAXPEB_W@Z
  ?beginSave@NcEditorReactor@@UEAAXPEAVNcDbDatabase@@PEB_W@Z
  ?beginWblock@NcEditorReactor@@UEAAXPEAVNcDbDatabase@@0@Z
  ?beginWblock@NcEditorReactor@@UEAAXPEAVNcDbDatabase@@0AEAPEBVNcGePoint3d@@@Z
  ?beginWblock@NcEditorReactor@@UEAAXPEAVNcDbDatabase@@0VNcDbObjectId@@@Z
  ?beginWblockObjects@NcEditorReactor@@UEAAXPEAVNcDbDatabase@@AEAVNcDbIdMapping@@@Z
  ?begin_const@?$HostArray@PEAVNcEdCommand@@V?$HostObjectsAllocator@PEAVNcEdCommand@@@@@@AEBAPEBQEAVNcEdCommand@@XZ
  ?begin_const@?$HostArray@VNcDMMWideString@@V?$HostObjectsAllocator@VNcDMMWideString@@@@@@AEBAPEBVNcDMMWideString@@XZ
  ?begin_non_const@?$HostArray@PEAVNcEdCommand@@V?$HostObjectsAllocator@PEAVNcEdCommand@@@@@@AEAAPEAPEAVNcEdCommand@@XZ
  ?begin_non_const@?$HostArray@VNcDMMWideString@@V?$HostObjectsAllocator@VNcDMMWideString@@@@@@AEAAPEAVNcDMMWideString@@XZ
  ?buffer@?$HostArray@PEAVNcEdCommand@@V?$HostObjectsAllocator@PEAVNcEdCommand@@@@@@AEBAPEAUBuffer@1@XZ
  ?buffer@?$HostArray@VNcDMMWideString@@V?$HostObjectsAllocator@VNcDMMWideString@@@@@@AEBAPEAUBuffer@1@XZ
  ?cancelTheJob@NcDMMEntityReactorInfo@@UEAAXXZ
  ?canonicalMediaName@NcDMMSheetReactorInfo@@UEBAPEB_WXZ
  ?capacity@?$HostArray@PEAVNcEdCommand@@V?$HostObjectsAllocator@PEAVNcEdCommand@@@@@@QEBAIXZ
  ?capacity@?$HostArray@VNcDMMWideString@@V?$HostObjectsAllocator@VNcDMMWideString@@@@@@QEBAIXZ
  ?cast@NcEdCommand@@SAPEAV1@PEBVNcRxObject@@@Z
  ?cast@NcEdCommandIterator@@SAPEAV1@PEBVNcRxObject@@@Z
  ?cast@NcEdCommandStack@@SAPEAV1@PEBVNcRxObject@@@Z
  ?cast@NcEdJig@@SAPEAV1@PEBVNcRxObject@@@Z
  ?cast@NcEdServices@@SAPEAV1@PEBVNcRxObject@@@Z
  ?cast@NcEdUIContext@@SAPEAV1@PEBVNcRxObject@@@Z
  ?cast@NcEditor@@SAPEAV1@PEBVNcRxObject@@@Z
  ?cast@NcEditorReactor2@@SAPEAV1@PEBVNcRxObject@@@Z
  ?cast@NcEditorReactor@@SAPEAV1@PEBVNcRxObject@@@Z
  ?cast@NcPlDSDData@@SAPEAV1@PEBVNcRxObject@@@Z
  ?cast@NcPlDSDEntry@@SAPEAV1@PEBVNcRxObject@@@Z
  ?cast@NcPlPlotConfig@@SAPEAV1@PEBVNcRxObject@@@Z
  ?cast@NcPlPlotConfigImpl@@SAPEAV1@PEBVNcRxObject@@@Z
  ?cast@NcPlPlotConfigInfo@@SAPEAV1@PEBVNcRxObject@@@Z
  ?cast@NcPlPlotErrorHandler@@SAPEAV1@PEBVNcRxObject@@@Z
  ?cast@NcPlPlotErrorHandlerLock@@SAPEAV1@PEBVNcRxObject@@@Z
  ?cast@NcPlPlotInfo@@SAPEAV1@PEBVNcRxObject@@@Z
  ?cast@NcPlPlotInfoValidator@@SAPEAV1@PEBVNcRxObject@@@Z
  ?cast@NcPlPlotLoggingErrorHandler@@SAPEAV1@PEBVNcRxObject@@@Z
  ?cast@NcPlPlotPageInfo@@SAPEAV1@PEBVNcRxObject@@@Z
  ?cast@NcPlPrecisionEntry@@SAPEAV1@PEBVNcRxObject@@@Z
  ?categoryName@NcPlDSDData@@QEBAPEB_WXZ
  ?clear@?$HostArray@PEAVNcEdCommand@@V?$HostObjectsAllocator@PEAVNcEdCommand@@@@@@QEAAXXZ
  ?clear@?$HostArray@VNcDMMWideString@@V?$HostObjectsAllocator@VNcDMMWideString@@@@@@QEAAXXZ
  ?cmdIUnkModified@NcEditorReactor@@UEAAXPEB_W@Z
  ?colorResolution@NcPlPrecisionEntry@@QEBA?BHXZ
  ?comandeered@NcEditorReactor@@UEAAXPEAVNcDbDatabase@@VNcDbObjectId@@0@Z
  ?commandCancelled@NcEditorReactor@@UEAAXPEB_W@Z
  ?commandEnded@NcEditorReactor@@UEAAXPEB_W@Z
  ?commandFailed@NcEditorReactor@@UEAAXPEB_W@Z
  ?commandWillStart@NcEditorReactor@@UEAAXPEB_W@Z
  ?configuration@NcDMMSheetReactorInfo@@UEBAPEB_WXZ
  ?consistencyCheck@NcEdXrefFileLock@@QEAA?AW4ErrorStatus@Nano@@AEAHAEBVNcDbObjectId@@@Z
  ?consistencyCheck@NcEdXrefFileLock@@QEAA?AW4ErrorStatus@Nano@@AEAHAEBVNcDbObjectId@@AEAV?$NcArray@VNcDbObjectId@@V?$HostObjectsAllocator@VNcDbObjectId@@@@@@@Z
  ?consistencyChecklocal@NcEdXrefFileLock@@QEAA?AW4ErrorStatus@Nano@@AEAHAEBVNcDbObjectId@@@Z
  ?contains@?$HostArray@PEAVNcEdCommand@@V?$HostObjectsAllocator@PEAVNcEdCommand@@@@@@QEBA_NAEBQEBVNcEdCommand@@I@Z
  ?contains@?$HostArray@VNcDMMWideString@@V?$HostObjectsAllocator@VNcDMMWideString@@@@@@QEBA_NAEBVNcDMMWideString@@I@Z
  ?contains@?$NcArray@PEAVNcEdCommand@@V?$HostObjectsAllocator@PEAVNcEdCommand@@@@@@QEBA_NAEBQEAVNcEdCommand@@H@Z
  ?contains@?$NcArray@VNcDMMWideString@@V?$HostObjectsAllocator@VNcDMMWideString@@@@@@QEBA_NAEBVNcDMMWideString@@H@Z
  ?copyFrom@NcPlPlotConfig@@UEAA?AW4ErrorStatus@Nano@@PEBVNcRxObject@@@Z
  ?copyFrom@NcPlPlotConfigInfo@@UEAA?AW4ErrorStatus@Nano@@PEBVNcRxObject@@@Z
  ?copyFrom@NcPlPlotInfo@@UEAA?AW4ErrorStatus@Nano@@PEBVNcRxObject@@@Z
  ?copy_before_write@?$HostArray@PEAVNcEdCommand@@V?$HostObjectsAllocator@PEAVNcEdCommand@@@@@@AEAAXI_N@Z
  ?copy_before_write@?$HostArray@VNcDMMWideString@@V?$HostObjectsAllocator@VNcDMMWideString@@@@@@AEAAXI_N@Z
  ?copy_buffer@?$HostArray@PEAVNcEdCommand@@V?$HostObjectsAllocator@PEAVNcEdCommand@@@@@@AEAAXI_N00@Z
  ?copy_buffer@?$HostArray@VNcDMMWideString@@V?$HostObjectsAllocator@VNcDMMWideString@@@@@@AEAAXI_N00@Z
  ?copy_if_referenced@?$HostArray@PEAVNcEdCommand@@V?$HostObjectsAllocator@PEAVNcEdCommand@@@@@@AEAAXXZ
  ?copy_if_referenced@?$HostArray@VNcDMMWideString@@V?$HostObjectsAllocator@VNcDMMWideString@@@@@@AEAAXXZ
  ?create@?$HostArray@PEAVNcEdCommand@@V?$HostObjectsAllocator@PEAVNcEdCommand@@@@@@SA?AV1@PEAPEAVNcEdCommand@@H@Z
  ?create@?$HostArray@VNcDMMWideString@@V?$HostObjectsAllocator@VNcDMMWideString@@@@@@SA?AV1@PEAVNcDMMWideString@@H@Z
  ?createPreviewEngine@NcPlPlotFactory@@SA?AW4ErrorStatus@Nano@@AEAPEAVNcPlPlotEngine@@J@Z
  ?createPublishEngine@NcPlPlotFactory@@SA?AW4ErrorStatus@Nano@@AEAPEAVNcPlPlotEngine@@@Z
  ?currentPrecision@NcPlDSDData@@QEBAPEB_WXZ
  ?currentProfileChanged@NcApProfileManagerReactor@@UEAAXPEB_W@Z
  ?currentProfileReset@NcApProfileManagerReactor@@UEAAXPEB_W@Z
  ?currentProfileSaved@NcApProfileManagerReactor@@UEAAXPEB_W@Z
  ?currentProfileWillBeReset@NcApProfileManagerReactor@@UEAAXPEB_W@Z
  ?currentProfileWillBeSaved@NcApProfileManagerReactor@@UEAAXPEB_W@Z
  ?currentProfileWillChange@NcApProfileManagerReactor@@UEAAXPEB_W@Z
  ?data@?$HostArray@PEAVNcEdCommand@@V?$HostObjectsAllocator@PEAVNcEdCommand@@@@@@AEAAPEAPEAVNcEdCommand@@XZ
  ?data@?$HostArray@PEAVNcEdCommand@@V?$HostObjectsAllocator@PEAVNcEdCommand@@@@@@AEBAPEBQEAVNcEdCommand@@XZ
  ?data@?$HostArray@VNcDMMWideString@@V?$HostObjectsAllocator@VNcDMMWideString@@@@@@AEAAPEAVNcDMMWideString@@XZ
  ?data@?$HostArray@VNcDMMWideString@@V?$HostObjectsAllocator@VNcDMMWideString@@@@@@AEBAPEBVNcDMMWideString@@XZ
  ?database@NcDMMSheetReactorInfo@@UEBAPEAVNcDbDatabase@@XZ
  ?databaseConstructed@NcEditorReactor@@UEAAXPEAVNcDbDatabase@@@Z
  ?databaseToBeDestroyed@NcEditorReactor@@UEAAXPEAVNcDbDatabase@@@Z
  ?defaultCommandVersion@NcEdCommand@@QEBAEXZ
  ?delFromRegistry@NrxAppInfo@@QEAA?AW4ErrorStatus@NcadApp@@_N@Z
  ?desc@NcEdCommand@@SAPEAVNcRxClass@@XZ
  ?desc@NcEdCommandIterator@@SAPEAVNcRxClass@@XZ
  ?desc@NcEdCommandStack@@SAPEAVNcRxClass@@XZ
  ?desc@NcEdJig@@SAPEAVNcRxClass@@XZ
  ?desc@NcEdServices@@SAPEAVNcRxClass@@XZ
  ?desc@NcEdUIContext@@SAPEAVNcRxClass@@XZ
  ?desc@NcEditor@@SAPEAVNcRxClass@@XZ
  ?desc@NcEditorReactor2@@SAPEAVNcRxClass@@XZ
  ?desc@NcEditorReactor@@SAPEAVNcRxClass@@XZ
  ?desc@NcPlDSDData@@SAPEAVNcRxClass@@XZ
  ?desc@NcPlDSDEntry@@SAPEAVNcRxClass@@XZ
  ?desc@NcPlPlotConfig@@SAPEAVNcRxClass@@XZ
  ?desc@NcPlPlotConfigImpl@@SAPEAVNcRxClass@@XZ
  ?desc@NcPlPlotConfigInfo@@SAPEAVNcRxClass@@XZ
  ?desc@NcPlPlotErrorHandler@@SAPEAVNcRxClass@@XZ
  ?desc@NcPlPlotErrorHandlerLock@@SAPEAVNcRxClass@@XZ
  ?desc@NcPlPlotInfo@@SAPEAVNcRxClass@@XZ
  ?desc@NcPlPlotInfoValidator@@SAPEAVNcRxClass@@XZ
  ?desc@NcPlPlotLoggingErrorHandler@@SAPEAVNcRxClass@@XZ
  ?desc@NcPlPlotPageInfo@@SAPEAVNcRxClass@@XZ
  ?desc@NcPlPrecisionEntry@@SAPEAVNcRxClass@@XZ
  ?description@NcPlPrecisionEntry@@QEBAPEB_WXZ
  ?desiredPrecision@NcPlPrecisionEntry@@QEBA?BNXZ
  ?destinationName@NcPlDSDData@@QEBAPEB_WXZ
  ?deviceName@NcPlPlotConfig@@UEBAPEB_WXZ
  ?deviceName@NcPlPlotConfigInfo@@QEBAPEB_WXZ
  ?deviceOverride@NcPlPlotInfo@@QEBAPEBVNcPlPlotConfig@@XZ
  ?deviceType@NcPlPlotConfig@@UEBAKXZ
  ?deviceType@NcPlPlotConfigInfo@@QEBA?AW4DeviceType@@XZ
  ?dimData@NcEdJig@@UEAAPEAV?$NcArray@PEAVNcDbDimData@@V?$HostMemoryAllocator@PEAVNcDbDimData@@@@@@N@Z
  ?dimensionalWeight@NcPlPlotInfoValidator@@QEBAIXZ
  ?dispPrompt@NcEdJig@@QEAAPEB_WXZ
  ?displayMaxX@NcDMMSheetReactorInfo@@UEBANXZ
  ?displayMaxY@NcDMMSheetReactorInfo@@UEBANXZ
  ?displayMinX@NcDMMSheetReactorInfo@@UEBANXZ
  ?displayMinY@NcDMMSheetReactorInfo@@UEBANXZ
  ?docCloseAborted@NcEditorReactor2@@UEAAXPEAVNcDbDatabase@@@Z
  ?docCloseWillStart@NcEditorReactor2@@UEAAXPEAVNcDbDatabase@@@Z
  ?docFrameMovedOrResized@NcEditorReactor@@UEAAX_J_N@Z
  ?drag@NcEdJig@@QEAA?AW4DragStatus@1@XZ
  ?drawable@NcEdSelectedTransient@@QEAAPEAVNcGiDrawable@@XZ
  ?drawingScale@NcDMMSheetReactorInfo@@UEBANXZ
  ?duplicateSelectionsAllowed@@YA_NPEAVNcApDocument@@@Z
  ?dwfFileName@NcPublishAggregationInfo@@UEAAPEB_WXZ
  ?dwfFileName@NcPublishReactorInfo@@UEAAPEB_WXZ
  ?dwfPassword@NcPublishAggregationInfo@@UEAAPEB_WXZ
  ?dwfPassword@NcPublishReactorInfo@@UEAAPEB_WXZ
  ?dwgFileOpened@NcEditorReactor@@UEAAXPEAVNcDbDatabase@@PEA_W@Z
  ?dwgName@NcPlDSDEntry@@QEBAPEB_WXZ
  ?dwgViewResized@NcEditorReactor2@@UEAAXJ@Z
  ?dxfInComplete@NcEditorReactor@@UEAAXPEAVNcDbDatabase@@@Z
  ?dxfOutComplete@NcEditorReactor@@UEAAXPEAVNcDbDatabase@@@Z
  ?effectiveBlockLayerId@NcDMMEntityReactorInfo@@UEBA?AVNcDbObjectId@@XZ
  ?effectivePlotOffsetX@NcDMMSheetReactorInfo@@UEBANXZ
  ?effectivePlotOffsetXdevice@NcDMMSheetReactorInfo@@UEBAHXZ
  ?effectivePlotOffsetY@NcDMMSheetReactorInfo@@UEBANXZ
  ?effectivePlotOffsetYdevice@NcDMMSheetReactorInfo@@UEBAHXZ
  ?empty@?$HostArray@PEAVNcEdCommand@@V?$HostObjectsAllocator@PEAVNcEdCommand@@@@@@QEBA_NXZ
  ?empty@?$HostArray@VNcDMMWideString@@V?$HostObjectsAllocator@VNcDMMWideString@@@@@@QEBA_NXZ
  ?end@?$HostArray@PEAVNcEdCommand@@V?$HostObjectsAllocator@PEAVNcEdCommand@@@@@@QEAAPEAPEAVNcEdCommand@@XZ
  ?end@?$HostArray@PEAVNcEdCommand@@V?$HostObjectsAllocator@PEAVNcEdCommand@@@@@@QEBAPEBQEAVNcEdCommand@@XZ
  ?end@?$HostArray@VNcDMMWideString@@V?$HostObjectsAllocator@VNcDMMWideString@@@@@@QEAAPEAVNcDMMWideString@@XZ
  ?end@?$HostArray@VNcDMMWideString@@V?$HostObjectsAllocator@VNcDMMWideString@@@@@@QEBAPEBVNcDMMWideString@@XZ
  ?endAttach@NcEditorReactor@@UEAAXPEAVNcDbDatabase@@@Z
  ?endDeepClone@NcEditorReactor@@UEAAXAEAVNcDbIdMapping@@@Z
  ?endDocument@NcPlPlotReactor@@UEAAXW4PlotCancelStatus@NcPlPlotProgress@@@Z
  ?endDwgOpen@NcEditorReactor@@UEAAXPEB_WPEAVNcDbDatabase@@@Z
  ?endEntsel@NcEdSSGetFilter@@UEAAXW4PromptStatus@Nano@@AEBVNcDbObjectId@@AEBVNcGePoint3d@@AEAVNcEdSelectionSetService@@@Z
  ?endInsert@NcEditorReactor@@UEAAXPEAVNcDbDatabase@@@Z
  ?endIsolationStateChanging@NcDocManageIsolationState@@QEAAXXZ
  ?endNEntsel@NcEdSSGetFilter4@@UEAAXW4PromptStatus@Nano@@AEBVNcDbObjectId@@AEBVNcGePoint3d@@QEAY02NPEAPEAUresbuf@@AEAVNcEdSelectionSetService@@@Z
  ?endPage@NcPlPlotReactor@@UEAAXW4SheetCancelStatus@NcPlPlotProgress@@@Z
  ?endPlot@NcPlPlotReactor@@UEAAXW4PlotCancelStatus@NcPlPlotProgress@@@Z
  ?endRestore@NcEditorReactor@@UEAAXPEAVNcDbDatabase@@@Z
  ?endSSGet@NcEdSSGetFilter@@UEAAXW4PromptStatus@Nano@@HAEAVNcEdSelectionSetService@@AEBV?$NcArray@VNcDbObjectId@@V?$HostObjectsAllocator@VNcDbObjectId@@@@@@@Z
  ?endSSGetCustomKeywordCallback@NcEdSSGetFilter4@@UEAAXPEB_W@Z
  ?endWblock@NcEditorReactor@@UEAAXPEAVNcDbDatabase@@@Z
  ?end_const@?$HostArray@PEAVNcEdCommand@@V?$HostObjectsAllocator@PEAVNcEdCommand@@@@@@AEAAPEBQEAVNcEdCommand@@XZ
  ?end_const@?$HostArray@VNcDMMWideString@@V?$HostObjectsAllocator@VNcDMMWideString@@@@@@AEAAPEBVNcDMMWideString@@XZ
  ?end_non_const@?$HostArray@PEAVNcEdCommand@@V?$HostObjectsAllocator@PEAVNcEdCommand@@@@@@AEAAPEAPEAVNcEdCommand@@XZ
  ?end_non_const@?$HostArray@VNcDMMWideString@@V?$HostObjectsAllocator@VNcDMMWideString@@@@@@AEAAPEAVNcDMMWideString@@XZ
  ?entity@NcDMMEntityReactorInfo@@UEBAPEAVNcDbEntity@@XZ
  ?entity@NcEdJig@@UEBAPEAVNcDbEntity@@XZ
  ?entityCount@NcPlPlotPageInfo@@QEBAJXZ
  ?erase@?$HostArray@PEAVNcEdCommand@@V?$HostObjectsAllocator@PEAVNcEdCommand@@@@@@QEAAPEAPEAVNcEdCommand@@PEAPEAV2@0@Z
  ?erase@?$HostArray@PEAVNcEdCommand@@V?$HostObjectsAllocator@PEAVNcEdCommand@@@@@@QEAAPEAPEAVNcEdCommand@@PEAPEAV2@@Z
  ?erase@?$HostArray@VNcDMMWideString@@V?$HostObjectsAllocator@VNcDMMWideString@@@@@@QEAAPEAVNcDMMWideString@@PEAV2@0@Z
  ?erase@?$HostArray@VNcDMMWideString@@V?$HostObjectsAllocator@VNcDMMWideString@@@@@@QEAAPEAVNcDMMWideString@@PEAV2@@Z
  ?error@NcPlPlotErrorHandler@@UEAA?AW4ErrorResult@1@_KIPEB_W11@Z
  ?error@NcPlPlotLoggingErrorHandler@@UEAA?AW4ErrorResult@NcPlPlotErrorHandler@@_KIPEB_W11@Z
  ?errorTitle@NcPlPlotErrorHandler@@UEBAPEB_WXZ
  ?find@?$HostArray@PEAVNcEdCommand@@V?$HostObjectsAllocator@PEAVNcEdCommand@@@@@@QEBA_NAEBQEBVNcEdCommand@@AEAII@Z
  ?find@?$HostArray@VNcDMMWideString@@V?$HostObjectsAllocator@VNcDMMWideString@@@@@@QEBA_NAEBVNcDMMWideString@@AEAII@Z
  ?find@?$NcArray@PEAVNcEdCommand@@V?$HostObjectsAllocator@PEAVNcEdCommand@@@@@@QEBAHAEBQEAVNcEdCommand@@@Z
  ?find@?$NcArray@PEAVNcEdCommand@@V?$HostObjectsAllocator@PEAVNcEdCommand@@@@@@QEBA_NAEBQEAVNcEdCommand@@AEAHH@Z
  ?find@?$NcArray@VNcDMMWideString@@V?$HostObjectsAllocator@VNcDMMWideString@@@@@@QEBAHAEBVNcDMMWideString@@@Z
  ?find@?$NcArray@VNcDMMWideString@@V?$HostObjectsAllocator@VNcDMMWideString@@@@@@QEBA_NAEBVNcDMMWideString@@AEAHH@Z
  ?findFrom@?$NcArray@PEAVNcEdCommand@@V?$HostObjectsAllocator@PEAVNcEdCommand@@@@@@QEBAHAEBQEAVNcEdCommand@@H@Z
  ?findFrom@?$NcArray@VNcDMMWideString@@V?$HostObjectsAllocator@VNcDMMWideString@@@@@@QEBAHAEBVNcDMMWideString@@H@Z
  ?first@?$HostArray@PEAVNcEdCommand@@V?$HostObjectsAllocator@PEAVNcEdCommand@@@@@@QEAAAEAPEAVNcEdCommand@@XZ
  ?first@?$HostArray@PEAVNcEdCommand@@V?$HostObjectsAllocator@PEAVNcEdCommand@@@@@@QEBAAEBQEAVNcEdCommand@@XZ
  ?first@?$HostArray@VNcDMMWideString@@V?$HostObjectsAllocator@VNcDMMWideString@@@@@@QEAAAEAVNcDMMWideString@@XZ
  ?first@?$HostArray@VNcDMMWideString@@V?$HostObjectsAllocator@VNcDMMWideString@@@@@@QEBAAEBVNcDMMWideString@@XZ
  ?first@?$NcArray@PEAVNcEdCommand@@V?$HostObjectsAllocator@PEAVNcEdCommand@@@@@@QEAAAEAPEAVNcEdCommand@@XZ
  ?first@?$NcArray@PEAVNcEdCommand@@V?$HostObjectsAllocator@PEAVNcEdCommand@@@@@@QEBAAEBQEAVNcEdCommand@@XZ
  ?first@?$NcArray@VNcDMMWideString@@V?$HostObjectsAllocator@VNcDMMWideString@@@@@@QEAAAEAVNcDMMWideString@@XZ
  ?first@?$NcArray@VNcDMMWideString@@V?$HostObjectsAllocator@VNcDMMWideString@@@@@@QEBAAEBVNcDMMWideString@@XZ
  ?flush@NcDMMEntityReactorInfo@@UEAAXXZ
  ?fullPath@NcPlPlotConfig@@UEBAPEB_WXZ
  ?fullPath@NcPlPlotConfigInfo@@QEBAPEB_WXZ
  ?get3dDwfNavigationTreeNode@NcDMMSheetReactorInfo@@UEAAPEAVNc3dDwfNavTreeNode@@XZ
  ?get3dDwfOptions@NcPlDSDData@@QEBAAEBUNcPl3dDwfOptions@@XZ
  ?getAt@?$HostArray@PEAVNcEdCommand@@V?$HostObjectsAllocator@PEAVNcEdCommand@@@@@@QEBAAEBQEAVNcEdCommand@@I@Z
  ?getAt@?$HostArray@VNcDMMWideString@@V?$HostObjectsAllocator@VNcDMMWideString@@@@@@QEBAAEBVNcDMMWideString@@I@Z
  ?getCanonicalMediaNameList@NcPlPlotConfig@@UEBAXAEAV?$NcArray@PEA_WV?$HostObjectsAllocator@PEA_W@@@@@Z
  ?getCompanyString@NcPlPlotErrorHandler@@QEBAXAEAPEA_W@Z
  ?getDSDEntries@NcPlDSDData@@QEBAXAEAV?$NcArray@VNcPlDSDEntry@@V?$HostObjectsAllocator@VNcPlDSDEntry@@@@@@@Z
  ?getDefaultFileExtension@NcPlPlotConfig@@UEBA?AW4ErrorStatus@Nano@@AEAPEB_W@Z
  ?getDescriptionFields@NcPlPlotConfig@@UEBAXAEAPEA_W00000@Z
  ?getEntityBlockRefPath@NcDMMEntityReactorInfo@@UEAAAEBV?$NcArray@VNcDbObjectId@@V?$HostObjectsAllocator@VNcDbObjectId@@@@@@XZ
  ?getErrorHandler@NcPlPlotErrorHandlerLock@@QEBAXAEAPEAVNcPlPlotErrorHandler@@@Z
  ?getGraphicIDs@NcDMMEntityReactorInfo@@UEAAAEBV?$NcArray@JV?$HostObjectsAllocator@J@@@@XZ
  ?getLocalMediaName@NcPlPlotConfig@@UEBAXPEB_WAEAPEA_W@Z
  ?getLockBtrId@NcEdXrefFileLock@@QEAA?AVNcDbObjectId@@XZ
  ?getMediaBounds@NcPlPlotConfig@@UEBAXPEB_WAEAVNcGePoint2d@@AEAVNcGeBoundBlock2d@@@Z
  ?getMenuContext@NcEdUIContext@@UEAAPEAXPEBVNcRxClass@@AEBV?$NcArray@VNcDbObjectId@@V?$HostObjectsAllocator@VNcDbObjectId@@@@@@AEBV?$NcArray@V?$NcArray@VNcDbFullSubentPath@@V?$HostObjectsAllocator@VNcDbFullSubentPath@@@@@@V?$HostMemoryAllocator@V?$NcArray@VNcDbFullSubentPath@@V?$HostObjectsAllocator@VNcDbFullSubentPath@@@@@@@@@@@Z
  ?getMenuContext@NcEdUIContext@@UEAAPEAXPEBVNcRxClass@@AEBV?$NcArray@VNcDbObjectId@@V?$HostObjectsAllocator@VNcDbObjectId@@@@@@AEBV?$NcArray@V?$NcArray@VNcDbFullSubentPath@@V?$HostObjectsAllocator@VNcDbFullSubentPath@@@@@@V?$HostObjectsAllocator@V?$NcArray@VNcDbFullSubentPath@@V?$HostObjectsAllocator@VNcDbFullSubentPath@@@@@@@@@@@Z
  ?getPersistentInvisibleObjectsCount@NcDocManageIsolationState@@QEBAKXZ
  ?getPrecisionEntries@NcPlDSDData@@QEBAXAEAV?$NcArray@VNcPlPrecisionEntry@@V?$HostObjectsAllocator@VNcPlPrecisionEntry@@@@@@@Z
  ?getProductString@NcPlPlotErrorHandler@@QEBAXAEAPEA_W@Z
  ?getProgramString@NcPlPlotErrorHandler@@QEBAXAEAPEA_W@Z
  ?getPtr@?$HostArray@PEAVNcEdCommand@@V?$HostObjectsAllocator@PEAVNcEdCommand@@@@@@QEBAPEBQEAVNcEdCommand@@XZ
  ?getPtr@?$HostArray@VNcDMMWideString@@V?$HostObjectsAllocator@VNcDMMWideString@@@@@@QEBAPEBVNcDMMWideString@@XZ
  ?getSubentPathsAtGsMarker@NcEdSSGetSubSelectFilter@@UEAA?AW4ErrorStatus@Nano@@PEAVNcDbEntity@@_NAEBV?$NcArray@VNcDbFullSubentPath@@V?$HostObjectsAllocator@VNcDbFullSubentPath@@@@@@K_JAEBVNcGePoint3d@@AEBVNcGeMatrix3d@@AEAHAEAPEAVNcDbFullSubentPath@@HPEAVNcDbObjectId@@@Z
  ?getTemporaryInvisibleObjectsCount@NcDocManageIsolationState@@QEBAKXZ
  ?getUnrecognizedData@NcPlDSDData@@QEBAXAEAV?$NcArray@PEA_WV?$HostObjectsAllocator@PEA_W@@@@0@Z
  ?getUnrecognizedData@NcPlDSDData@@QEBAXAEAV?$NcArray@VNcString@@V?$HostObjectsAllocator@VNcString@@@@@@0@Z
  ?getlockxloadctlType@NcEdXrefFileLock@@QEBAHXZ
  ?getoutofSyncIdArray@NcEdXrefFileLock@@QEBAAEBV?$NcArray@VNcDbObjectId@@V?$HostObjectsAllocator@VNcDbObjectId@@@@@@XZ
  ?gpDesc@NcEdCommand@@2PEAVNcRxClass@@EA
  ?gpDesc@NcEdCommandIterator@@2PEAVNcRxClass@@EA
  ?gpDesc@NcEdCommandStack@@2PEAVNcRxClass@@EA
  ?gpDesc@NcEdJig@@2PEAVNcRxClass@@EA
  ?gpDesc@NcEdServices@@2PEAVNcRxClass@@EA
  ?gpDesc@NcEdUIContext@@2PEAVNcRxClass@@EA
  ?gpDesc@NcEditor@@2PEAVNcRxClass@@EA
  ?gpDesc@NcEditorReactor2@@2PEAVNcRxClass@@EA
  ?gpDesc@NcEditorReactor@@2PEAVNcRxClass@@EA
  ?gpDesc@NcPlDSDData@@2PEAVNcRxClass@@EA
  ?gpDesc@NcPlDSDEntry@@2PEAVNcRxClass@@EA
  ?gpDesc@NcPlPlotConfig@@2PEAVNcRxClass@@EA
  ?gpDesc@NcPlPlotConfigImpl@@2PEAVNcRxClass@@EA
  ?gpDesc@NcPlPlotConfigInfo@@2PEAVNcRxClass@@EA
  ?gpDesc@NcPlPlotErrorHandler@@2PEAVNcRxClass@@EA
  ?gpDesc@NcPlPlotErrorHandlerLock@@2PEAVNcRxClass@@EA
  ?gpDesc@NcPlPlotInfo@@2PEAVNcRxClass@@EA
  ?gpDesc@NcPlPlotInfoValidator@@2PEAVNcRxClass@@EA
  ?gpDesc@NcPlPlotLoggingErrorHandler@@2PEAVNcRxClass@@EA
  ?gpDesc@NcPlPlotPageInfo@@2PEAVNcRxClass@@EA
  ?gpDesc@NcPlPrecisionEntry@@2PEAVNcRxClass@@EA
  ?gradientCount@NcPlPlotPageInfo@@QEBAJXZ
  ?gradientResolution@NcPlPrecisionEntry@@QEBA?BHXZ
  ?growLength@?$HostArray@PEAVNcEdCommand@@V?$HostObjectsAllocator@PEAVNcEdCommand@@@@@@QEBAHXZ
  ?growLength@?$HostArray@VNcDMMWideString@@V?$HostObjectsAllocator@VNcDMMWideString@@@@@@QEBAHXZ
  ?growLength@?$NcArray@PEAVNcEdCommand@@V?$HostObjectsAllocator@PEAVNcEdCommand@@@@@@QEBAHXZ
  ?growLength@?$NcArray@VNcDMMWideString@@V?$HostObjectsAllocator@VNcDMMWideString@@@@@@QEBAHXZ
  ?has3dDwfSetup@NcPlDSDEntry@@QEBA_NXZ
  ?hasRedoItems@NcDocManageIsolationState@@QEAA_NXZ
  ?hasUndoItems@NcDocManageIsolationState@@QEAA_NXZ
  ?hideObjects@NcDocManageIsolationState@@SAXAEAVNcApDocument@@AEBV?$NcArray@VNcDbObjectId@@V?$HostObjectsAllocator@VNcDbObjectId@@@@@@@Z
  ?hideObjectsParam@NcDocManageIsolationState@@SAXAEAVNcApDocument@@AEBV?$NcArray@VNcDbObjectId@@V?$HostObjectsAllocator@VNcDbObjectId@@@@@@_N@Z
  ?includeLayerInfo@NcPlDSDData@@QEBA_NXZ
  ?info@NcPlPlotErrorHandler@@UEAAX_KIPEB_W11@Z
  ?info@NcPlPlotLoggingErrorHandler@@UEAAX_KIPEB_W11@Z
  ?infoMessage@NcPlPlotErrorHandler@@UEAAXPEB_W@Z
  ?infoMessage@NcPlPlotLoggingErrorHandler@@UEAAXPEB_W@Z
  ?infoTitle@NcPlPlotErrorHandler@@UEBAPEB_WXZ
  ?initialDwgFileOpenComplete@NcEditorReactor@@UEAAXPEAVNcDbDatabase@@@Z
  ?insert@?$HostArray@PEAVNcEdCommand@@V?$HostObjectsAllocator@PEAVNcEdCommand@@@@@@QEAAPEAPEAVNcEdCommand@@PEAPEAV2@$$QEAPEAV2@@Z
  ?insert@?$HostArray@PEAVNcEdCommand@@V?$HostObjectsAllocator@PEAVNcEdCommand@@@@@@QEAAPEAPEAVNcEdCommand@@PEAPEAV2@AEBQEAV2@@Z
  ?insert@?$HostArray@PEAVNcEdCommand@@V?$HostObjectsAllocator@PEAVNcEdCommand@@@@@@QEAAPEAPEAVNcEdCommand@@PEAPEAV2@IAEBQEAV2@@Z
  ?insert@?$HostArray@PEAVNcEdCommand@@V?$HostObjectsAllocator@PEAVNcEdCommand@@@@@@QEAAXPEAPEAVNcEdCommand@@PEBQEAV2@1@Z
  ?insert@?$HostArray@VNcDMMWideString@@V?$HostObjectsAllocator@VNcDMMWideString@@@@@@QEAAPEAVNcDMMWideString@@PEAV2@$$QEAV2@@Z
  ?insert@?$HostArray@VNcDMMWideString@@V?$HostObjectsAllocator@VNcDMMWideString@@@@@@QEAAPEAVNcDMMWideString@@PEAV2@AEBV2@@Z
  ?insert@?$HostArray@VNcDMMWideString@@V?$HostObjectsAllocator@VNcDMMWideString@@@@@@QEAAPEAVNcDMMWideString@@PEAV2@IAEBV2@@Z
  ?insert@?$HostArray@VNcDMMWideString@@V?$HostObjectsAllocator@VNcDMMWideString@@@@@@QEAAXPEAVNcDMMWideString@@PEBV2@1@Z
  ?insertAt@?$HostArray@PEAVNcEdCommand@@V?$HostObjectsAllocator@PEAVNcEdCommand@@@@@@QEAAAEAV1@I$$QEAPEAVNcEdCommand@@@Z
  ?insertAt@?$HostArray@PEAVNcEdCommand@@V?$HostObjectsAllocator@PEAVNcEdCommand@@@@@@QEAAAEAV1@IAEBQEAVNcEdCommand@@@Z
  ?insertAt@?$HostArray@VNcDMMWideString@@V?$HostObjectsAllocator@VNcDMMWideString@@@@@@QEAAAEAV1@I$$QEAVNcDMMWideString@@@Z
  ?insertAt@?$HostArray@VNcDMMWideString@@V?$HostObjectsAllocator@VNcDMMWideString@@@@@@QEAAAEAV1@IAEBVNcDMMWideString@@@Z
  ?insertAt@?$NcArray@PEAVNcEdCommand@@V?$HostObjectsAllocator@PEAVNcEdCommand@@@@@@QEAAAEAV1@HAEBQEAVNcEdCommand@@@Z
  ?insertAt@?$NcArray@VNcDMMWideString@@V?$HostObjectsAllocator@VNcDMMWideString@@@@@@QEAAAEAV1@HAEBVNcDMMWideString@@@Z
  ?insertAtMove@?$HostArray@PEAVNcEdCommand@@V?$HostObjectsAllocator@PEAVNcEdCommand@@@@@@QEAAAEAV1@I$$QEAPEAVNcEdCommand@@@Z
  ?insertAtMove@?$HostArray@VNcDMMWideString@@V?$HostObjectsAllocator@VNcDMMWideString@@@@@@QEAAAEAV1@I$$QEAVNcDMMWideString@@@Z
  ?insertMove@?$HostArray@PEAVNcEdCommand@@V?$HostObjectsAllocator@PEAVNcEdCommand@@@@@@QEAAXPEAPEAVNcEdCommand@@00@Z
  ?insertMove@?$HostArray@VNcDMMWideString@@V?$HostObjectsAllocator@VNcDMMWideString@@@@@@QEAAXPEAVNcDMMWideString@@00@Z
  ?instance@NcDocManageIsolationState@@SA?AV1@AEAVNcDbDatabase@@@Z
  ?instance@NcEditor@@SAPEAV1@XZ
  ?isA@NcEdCommand@@UEBAPEAVNcRxClass@@XZ
  ?isA@NcEdCommandIterator@@UEBAPEAVNcRxClass@@XZ
  ?isA@NcEdCommandStack@@UEBAPEAVNcRxClass@@XZ
  ?isA@NcEdJig@@UEBAPEAVNcRxClass@@XZ
  ?isA@NcEdServices@@UEBAPEAVNcRxClass@@XZ
  ?isA@NcEdUIContext@@UEBAPEAVNcRxClass@@XZ
  ?isA@NcEditor@@UEBAPEAVNcRxClass@@XZ
  ?isA@NcEditorReactor2@@UEBAPEAVNcRxClass@@XZ
  ?isA@NcEditorReactor@@UEBAPEAVNcRxClass@@XZ
  ?isA@NcPlDSDData@@UEBAPEAVNcRxClass@@XZ
  ?isA@NcPlDSDEntry@@UEBAPEAVNcRxClass@@XZ
  ?isA@NcPlPlotConfig@@UEBAPEAVNcRxClass@@XZ
  ?isA@NcPlPlotConfigImpl@@UEBAPEAVNcRxClass@@XZ
  ?isA@NcPlPlotConfigInfo@@UEBAPEAVNcRxClass@@XZ
  ?isA@NcPlPlotErrorHandler@@UEBAPEAVNcRxClass@@XZ
  ?isA@NcPlPlotErrorHandlerLock@@UEBAPEAVNcRxClass@@XZ
  ?isA@NcPlPlotInfo@@UEBAPEAVNcRxClass@@XZ
  ?isA@NcPlPlotInfoValidator@@UEBAPEAVNcRxClass@@XZ
  ?isA@NcPlPlotLoggingErrorHandler@@UEBAPEAVNcRxClass@@XZ
  ?isA@NcPlPlotPageInfo@@UEBAPEAVNcRxClass@@XZ
  ?isA@NcPlPrecisionEntry@@UEBAPEAVNcRxClass@@XZ
  ?isCancelled@NcDMMEntityReactorInfo@@UEBA_NXZ
  ?isCompatibleDocument@NcPlPlotInfo@@QEBA_NPEBV1@@Z
  ?isCustomPossible@NcPlPlotConfig@@UEBAKNN_N0HPEB_W@Z
  ?isCustomPossible@NcPlPlotInfoValidator@@UEBAKAEAVNcPlPlotInfo@@@Z
  ?isEmpty@?$HostArray@PEAVNcEdCommand@@V?$HostObjectsAllocator@PEAVNcEdCommand@@@@@@QEBA_NXZ
  ?isEmpty@?$HostArray@VNcDMMWideString@@V?$HostObjectsAllocator@VNcDMMWideString@@@@@@QEBA_NXZ
  ?isEmpty@?$NcArray@PEAVNcEdCommand@@V?$HostObjectsAllocator@PEAVNcEdCommand@@@@@@QEBA_NXZ
  ?isEmpty@?$NcArray@VNcDMMWideString@@V?$HostObjectsAllocator@VNcDMMWideString@@@@@@QEBA_NXZ
  ?isHomogeneous@NcPlDSDData@@QEBA_NXZ
  ?isInvisibleByIsolation@NcDocManageIsolationState@@QEAA_NAEBVNcDbObjectId@@@Z
  ?isInvisibleByIsolation@NcDocManageIsolationState@@QEAA_NPEAVNcDbEntity@@@Z
  ?isModelLayout@NcDMMSheetReactorInfo@@UEBA_NXZ
  ?isMultiSheetDwf@NcPublishReactorInfo@@UEAA_NXZ
  ?isNeedToUpdateIsolation@NcDocManageIsolationState@@QEAA_NXZ
  ?isPersistentInvisibleByIsolation@NcDocManageIsolationState@@QEAA_NAEBVNcDbObjectId@@@Z
  ?isPersistentInvisibleByIsolation@NcDocManageIsolationState@@QEAA_NPEAVNcDbEntity@@@Z
  ?isPlotJobCancelled@NcDMMSheetReactorInfo@@UEBA_NXZ
  ?isPlotToFile@NcPlPlotConfig@@UEBA_NXZ
  ?isScaleSpecified@NcDMMSheetReactorInfo@@UEBA_NXZ
  ?isSheetSet@NcPlDSDData@@QEBA_NXZ
  ?isTemporaryInvisibleByIsolation@NcDocManageIsolationState@@QEAA_NAEBVNcDbObjectId@@@Z
  ?isTemporaryInvisibleByIsolation@NcDocManageIsolationState@@QEAA_NPEAVNcDbEntity@@@Z
  ?isUsedIsolation@NcDocManageIsolationState@@QEBA_NXZ
  ?isValid@?$HostArray@PEAVNcEdCommand@@V?$HostObjectsAllocator@PEAVNcEdCommand@@@@@@AEBA_NI@Z
  ?isValid@?$HostArray@VNcDMMWideString@@V?$HostObjectsAllocator@VNcDMMWideString@@@@@@AEBA_NI@Z
  ?isValidated@NcPlPlotInfo@@QEBA_NXZ
  ?isolateObjects@NcDocManageIsolationState@@SAXAEAVNcApDocument@@AEBV?$NcArray@VNcDbObjectId@@V?$HostObjectsAllocator@VNcDbObjectId@@@@@@@Z
  ?isolateObjectsParam@NcDocManageIsolationState@@SAXAEAVNcApDocument@@AEBV?$NcArray@VNcDbObjectId@@V?$HostObjectsAllocator@VNcDbObjectId@@@@@@_N2@Z
  ?iterator@NcEdCommandStack@@UEAAPEAVNcEdCommandIterator@@XZ
  ?keywordList@NcEdJig@@QEAAPEB_WXZ
  ?last@?$HostArray@PEAVNcEdCommand@@V?$HostObjectsAllocator@PEAVNcEdCommand@@@@@@QEAAAEAPEAVNcEdCommand@@XZ
  ?last@?$HostArray@PEAVNcEdCommand@@V?$HostObjectsAllocator@PEAVNcEdCommand@@@@@@QEBAAEBQEAVNcEdCommand@@XZ
  ?last@?$HostArray@VNcDMMWideString@@V?$HostObjectsAllocator@VNcDMMWideString@@@@@@QEAAAEAVNcDMMWideString@@XZ
  ?last@?$HostArray@VNcDMMWideString@@V?$HostObjectsAllocator@VNcDMMWideString@@@@@@QEBAAEBVNcDMMWideString@@XZ
  ?last@?$NcArray@PEAVNcEdCommand@@V?$HostObjectsAllocator@PEAVNcEdCommand@@@@@@QEAAAEAPEAVNcEdCommand@@XZ
  ?last@?$NcArray@PEAVNcEdCommand@@V?$HostObjectsAllocator@PEAVNcEdCommand@@@@@@QEBAAEBQEAVNcEdCommand@@XZ
  ?last@?$NcArray@VNcDMMWideString@@V?$HostObjectsAllocator@VNcDMMWideString@@@@@@QEAAAEAVNcDMMWideString@@XZ
  ?last@?$NcArray@VNcDMMWideString@@V?$HostObjectsAllocator@VNcDMMWideString@@@@@@QEBAAEBVNcDMMWideString@@XZ
  ?layout@NcPlDSDEntry@@QEBAPEB_WXZ
  ?layout@NcPlPlotInfo@@QEBA?AVNcDbObjectId@@XZ
  ?layoutBoundsMaxX@NcDMMSheetReactorInfo@@UEBANXZ
  ?layoutBoundsMaxY@NcDMMSheetReactorInfo@@UEBANXZ
  ?layoutBoundsMinX@NcDMMSheetReactorInfo@@UEBANXZ
  ?layoutBoundsMinY@NcDMMSheetReactorInfo@@UEBANXZ
  ?layoutMarginMaxX@NcDMMSheetReactorInfo@@UEBANXZ
  ?layoutMarginMaxY@NcDMMSheetReactorInfo@@UEBANXZ
  ?layoutMarginMinX@NcDMMSheetReactorInfo@@UEBANXZ
  ?layoutMarginMinY@NcDMMSheetReactorInfo@@UEBANXZ
  ?layoutSwitched@NcEditorReactor@@UEAAXPEB_W@Z
  ?layoutToBeSwitched@NcEditorReactor2@@UEAAXPEB_W0@Z
  ?length@?$HostArray@PEAVNcEdCommand@@V?$HostObjectsAllocator@PEAVNcEdCommand@@@@@@QEBAIXZ
  ?length@?$HostArray@VNcDMMWideString@@V?$HostObjectsAllocator@VNcDMMWideString@@@@@@QEBAIXZ
  ?length@?$NcArray@PEAVNcEdCommand@@V?$HostObjectsAllocator@PEAVNcEdCommand@@@@@@QEBAHXZ
  ?length@?$NcArray@VNcDMMWideString@@V?$HostObjectsAllocator@VNcDMMWideString@@@@@@QEBAHXZ
  ?lineMerge@NcPlDSDData@@QEBA_NXZ
  ?lispCancelled@NcEditorReactor@@UEAAXXZ
  ?lispEnded@NcEditorReactor@@UEAAXXZ
  ?lispWillStart@NcEditorReactor@@UEAAXPEB_W@Z
  ?loadReason@NrxAppInfo@@QEAA?AW4LoadReasons@NcadApp@@XZ
  ?lock@NcPlPlotErrorHandlerLock@@QEAA_NPEAVNcPlPlotErrorHandler@@PEB_W@Z
  ?lockFile@NcEdXrefFileLock@@QEAA?AW4ErrorStatus@Nano@@AEAHAEBVNcDbObjectId@@@Z
  ?logFilePath@NcPlDSDData@@QEBAPEB_WXZ
  ?logMessage@NcPlPlotErrorHandler@@UEAAXPEB_W0@Z
  ?logMessage@NcPlPlotLoggingErrorHandler@@UEAAXPEB_W0@Z
  ?logMode@NcPlPlotErrorHandler@@UEBA_NXZ
  ?logicalLength@?$HostArray@PEAVNcEdCommand@@V?$HostObjectsAllocator@PEAVNcEdCommand@@@@@@QEBAIXZ
  ?logicalLength@?$HostArray@VNcDMMWideString@@V?$HostObjectsAllocator@VNcDMMWideString@@@@@@QEBAIXZ
  ?logicalLength@?$NcArray@PEAVNcEdCommand@@V?$HostObjectsAllocator@PEAVNcEdCommand@@@@@@QEBAHXZ
  ?logicalLength@?$NcArray@VNcDMMWideString@@V?$HostObjectsAllocator@VNcDMMWideString@@@@@@QEBAHXZ
  ?lookupCmd2@NcEdCommandStack@@UEAAPEAVNcEdCommand@@PEB_W_N1H1@Z
  ?lookupCmd@NcEdCommandStack@@UEAAPEAVNcEdCommand@@PEB_W_N11@Z
  ?lookupCmd@NcEdCommandStack@@UEAAPEAVNcEdCommand@@PEB_W_N1@Z
  ?lookupCmd@NcEdCommandStack@@UEAAPEAVNcEdCommand@@PEB_W_N@Z
  ?lookupGlobalCmd@NcEdCommandStack@@UEAAPEAVNcEdCommand@@PEB_W@Z
  ?lookupLocalCmd@NcEdCommandStack@@UEAAPEAVNcEdCommand@@PEB_W@Z
  ?mainFrameMovedOrResized@NcEditorReactor@@UEAAX_J_N@Z
  ?majorVersion@NcPlDSDData@@QEBAIXZ
  ?makeCustomMediaFromSizeDesc@NcPlPlotConfig@@UEAA?AW4ErrorStatus@Nano@@PEAVHT_Media_Size@@PEAVHT_Media_Description@@_N2PEB_W3AEAPEA_W444HAEAN@Z
  ?managed@NrxAppInfo@@QEBA_NXZ
  ?marker@NcEdSelectedTransient@@QEAA_JXZ
  ?matchMediaSize@NcPlPlotConfig@@UEAA_NNNNNW4PlotPaperUnits@NcDbPlotSettings@@_NHPEB_WAEAPEA_W3AEAN@Z
  ?matchingPolicy@NcPlPlotInfoValidator@@QEBA?AW4MatchingPolicy@1@XZ
  ?maxBoundsX@NcDMMSheetReactorInfo@@UEBANXZ
  ?maxBoundsY@NcDMMSheetReactorInfo@@UEBANXZ
  ?maxDeviceDPI@NcPlPlotConfig@@UEBAIXZ
  ?mediaBoundsWeight@NcPlPlotInfoValidator@@QEBAIXZ
  ?mediaGroupWeight@NcPlPlotInfoValidator@@QEBAIXZ
  ?mediaMatchingThreshold@NcPlPlotInfoValidator@@QEBAIXZ
  ?mergeStatus@NcPlPlotInfo@@QEBAKXZ
  ?messageBox@NcPlPlotErrorHandler@@UEAAHPEB_W0IH@Z
  ?messageBox@NcPlPlotLoggingErrorHandler@@UEAAHPEB_W0IH@Z
  ?minorVersion@NcPlDSDData@@QEBAIXZ
  ?mode@NcEdSelectedTransient@@QEAA?AW4NcGiTransientDrawingMode@@XZ
  ?modelessOperationEnded@NcEditorReactor@@UEAAXPEB_W@Z
  ?modelessOperationWillStart@NcEditorReactor@@UEAAXPEB_W@Z
  ?moduleName@NrxAppInfo@@QEBAPEB_WXZ
  ?monoResolution@NcPlPrecisionEntry@@QEBA?BHXZ
  ?name@NcNameValuePair@@QEBAPEB_WXZ
  ?native@NcEdCommandStack@@QEAAPEAVOdEdCommandStack@@XZ
  ?native@NcEdJig@@QEBAPEAVHostEdJig@@XZ
  ?native@NcEdSSGetFilter@@QEBAPEAVHostEdSSGetFilter@@XZ
  ?native@NcEditor@@QEBAPEAVHostEditor@@XZ
  ?ncProfileManagerPtr@@YAPEAVNcApProfileManager@@XZ
  ?ncadErrorStatusText@@YAPEB_WW4ErrorStatus@Nano@@@Z
  ?nccmGetColorFromACIName@@YA?AW4ErrorStatus@Nano@@AEAVNcCmColor@@PEB_W@Z
  ?nccmGetColorFromColorBookName@@YA?AW4ErrorStatus@Nano@@AEAVNcCmColor@@PEB_W1@Z
  ?nccmGetColorFromRGBName@@YA?AW4ErrorStatus@Nano@@AEAVNcCmColor@@PEB_W@Z
  ?nccmGetLocalizedColorNames@@YAXQEAPEB_W@Z
  ?ncdbAngToF@@YAHPEB_WHPEAN@Z
  ?ncdbAngToS@@YAHNHHPEA_W@Z
  ?ncdbDictAdd@@YAHQEB_JPEB_W0@Z
  ?ncdbDictNext@@YAPEAUresbuf@@QEB_JH@Z
  ?ncdbDictRemove@@YAHQEB_JPEB_W@Z
  ?ncdbDictRename@@YAHQEB_JPEB_W1@Z
  ?ncdbDictSearch@@YAPEAUresbuf@@QEB_JPEB_WH@Z
  ?ncdbDisToF@@YAHPEB_WHPEAN@Z
  ?ncdbDisplayPreviewFromDwg@@YA_NPEB_WPEAXPEBK@Z
  ?ncdbEntDel@@YAHQEB_J@Z
  ?ncdbEntLast@@YAHQEA_J@Z
  ?ncdbEntMake@@YAHPEBUresbuf@@@Z
  ?ncdbEntMakeX@@YAHPEBUresbuf@@QEA_J@Z
  ?ncdbEntMod@@YAHPEBUresbuf@@@Z
  ?ncdbEntNext@@YAHQEB_JQEA_J@Z
  ?ncdbEntUpd@@YAHQEB_J@Z
  ?ncdbFail@@YAXPEB_W@Z
  ?ncdbFreeResBufContents@@YAXPEAUresbuf@@@Z
  ?ncdbHandEnt@@YAHPEB_WQEA_J@Z
  ?ncdbInters@@YAHQEBN000HQEAN@Z
  ?ncdbNamedObjDict@@YAHQEA_J@Z
  ?ncdbRToS@@YAHNHHPEA_W@Z
  ?ncdbSNValid@@YAHPEB_WH@Z
  ?ncdbTblNext@@YAPEAUresbuf@@PEB_WH@Z
  ?ncdbTblObjName@@YAHPEB_W0QEA_J@Z
  ?ncdbTblSearch@@YAPEAUresbuf@@PEB_W0H@Z
  ?ncdbXdRoom@@YAHQEB_JPEAJ@Z
  ?ncdbXdSize@@YAHPEBUresbuf@@PEAJ@Z
  ?ncedActiveViewportId@@YA?AVNcDbObjectId@@XZ
  ?ncedAddDefaultContextMenu@@YAHPEAVNcEdUIContext@@PEBXPEB_W@Z
  ?ncedAddDropTarget@@YAHPEAVCOleDropTarget@@@Z
  ?ncedAddObjectContextMenu@@YAHPEBVNcRxClass@@PEAVNcEdUIContext@@PEBX@Z
  ?ncedAlert@@YAHPEB_W@Z
  ?ncedClearOLELock@@YAHH@Z
  ?ncedCmd@@YAHPEBUresbuf@@@Z
  ?ncedCmdLookup2@@YAHPEB_WHPEAUNcEdCommandStruc@@H@Z
  ?ncedCmdLookup@@YAHPEB_WHPEAUNcEdCommandStruc@@H@Z
  ?ncedCmdUndefine@@YAHPEB_WH@Z
  ?ncedCommand@@YAHHZZ
  ?ncedCompareToCurrentViewport@@YA_NPEBVNcDbViewTableRecord@@@Z
  ?ncedConvertEntityToHatch@@YA?AW4ErrorStatus@Nano@@PEAVNcDbHatch@@AEAPEAVNcDbEntity@@_N@Z
  ?ncedCoordFromPixelToWorld@@YAHHVCPoint@@QEAN@Z
  ?ncedCoordFromPixelToWorld@@YAXAEBVCPoint@@QEAN@Z
  ?ncedCoordFromWorldToPixel@@YAHHQEBNAEAVCPoint@@@Z
  ?ncedCreateEnhancedViewportOnDrop@@YA?AW4ErrorStatus@Nano@@PEB_W0VNcGePoint2d@@NVNcDbObjectId@@AEAV4@3@Z
  ?ncedCreateEnhancedViewportOnDropDWG@@YA?AW4ErrorStatus@Nano@@PEB_WPEAVNcDbExtents@@VNcGePoint2d@@NVNcDbObjectId@@AEAV5@4@Z
  ?ncedCreateInternetShortcut@@YAHPEB_W0@Z
  ?ncedCreateSteeringWheel@@YAPEAVNcEdSteeringWheel@@XZ
  ?ncedCreateViewCube@@YAPEAVNcEdViewCube@@PEAVNcGsView@@@Z
  ?ncedCreateViewportByView@@YA?AW4ErrorStatus@Nano@@PEAVNcDbDatabase@@AEBVNcDbObjectId@@AEBVNcGePoint2d@@NAEAV4@@Z
  ?ncedDefun@@YAHPEB_WF@Z
  ?ncedDestroySteeringWheel@@YAXPEAVNcEdSteeringWheel@@@Z
  ?ncedDestroyViewCube@@YAXPEAVNcEdViewCube@@@Z
  ?ncedDisableDefaultARXExceptionHandler@@YAXH@Z
  ?ncedDisableUsrbrk@@YAXXZ
  ?ncedDragGen@@YAHQEB_JPEB_WHP6AHQEANQEAY03N@Z2@Z
  ?ncedDrawOrderInherit@@YA?AW4ErrorStatus@Nano@@VNcDbObjectId@@AEAV?$NcArray@VNcDbObjectId@@V?$HostObjectsAllocator@VNcDbObjectId@@@@@@W4NcEdDrawOrderCmdType@@@Z
  ?ncedDrawingStatusBarsVisible@@YAHXZ
  ?ncedEditDimstyleInteractiveEx@@YAHPEAVNcDbDatabase@@PEAVNcDbDimStyleTableRecord@@HPEB_WH@Z
  ?ncedEditMTextInteractive@@YAHPEAVNcDbMText@@_N1@Z
  ?ncedEditToleranceInteractive@@YAXPEAVNcDbFcf@@@Z
  ?ncedEnableUsrbrk@@YAXXZ
  ?ncedEndOverrideDropTarget@@YAHPEAVCOleDropTarget@@@Z
  ?ncedEntSel@@YAHPEB_WQEA_JQEAN@Z
  ?ncedFNSplit@@YAHPEB_WPEA_W11@Z
  ?ncedFindFile@@YAHPEB_WPEA_W@Z
  ?ncedGetAngle@@YAHQEBNPEB_WPEAN@Z
  ?ncedGetAnimationFrameId@@YAKXZ
  ?ncedGetAppName@@YAPEA_WXZ
  ?ncedGetApplicationFrame@@YAPEAVNdApplicationFrame@@XZ
  ?ncedGetArgs@@YAPEAUresbuf@@XZ
  ?ncedGetBlockEditMode@@YAIXZ
  ?ncedGetCMBaseAlias@@YAPEB_WW4NcadContextMenuMode@@@Z
  ?ncedGetCName@@YAHPEB_WPEAPEA_W@Z
  ?ncedGetCfg@@YAHPEB_WPEA_WH@Z
  ?ncedGetChildFrameSettings@@YAHPEAUtagChildFrmSettings@@PEAVCMDIChildWnd@@@Z
  ?ncedGetCommandForDocument@@YA?AW4ErrorStatus@Nano@@PEAVNcApDocument@@AEAPEA_W@Z
  ?ncedGetCommandVersion@@YAEXZ
  ?ncedGetCorner@@YAHQEBNPEB_WQEAN@Z
  ?ncedGetCurViewportObjectId@@YA?AVNcDbObjectId@@XZ
  ?ncedGetCurVportCircleSides@@YAFXZ
  ?ncedGetCurVportPixelToDisplay@@YAXAEAN0@Z
  ?ncedGetCurVportScreenToDisplay@@YAXAEAN0@Z
  ?ncedGetCurrentColors@@YAHPEAUNcColorSettings@@@Z
  ?ncedGetCurrentColorsEx2@@YAHPEAUNcColorSettings@@PEAUNcColorSettingsEx@@PEAUNcColorSettingsEx2@@@Z
  ?ncedGetCurrentColorsEx@@YAHPEAUNcColorSettings@@PEAUNcColorSettingsEx@@@Z
  ?ncedGetCurrentSelectionSet@@YA?AW4ErrorStatus@Nano@@AEAV?$NcArray@VNcDbObjectId@@V?$HostObjectsAllocator@VNcDbObjectId@@@@@@@Z
  ?ncedGetCurrentUCS@@YA?AW4ErrorStatus@Nano@@AEAVNcGeMatrix3d@@@Z
  ?ncedGetDist@@YAHQEBNPEB_WPEAN@Z
  ?ncedGetEnv@@YAHPEB_WPEA_W@Z
  ?ncedGetFileD@@YAHPEB_W00HPEAUresbuf@@@Z
  ?ncedGetFileNavDialog@@YAHPEB_W000HPEAPEAUresbuf@@@Z
  ?ncedGetFullInput@@YAHAEAPEA_W@Z
  ?ncedGetFullKword@@YAHPEB_WAEAPEA_W@Z
  ?ncedGetFullString@@YAHHPEB_WAEAPEA_W@Z
  ?ncedGetFullSubentPathsForCurrentSelection@@YA?AW4ErrorStatus@Nano@@AEBVNcDbObjectId@@AEAV?$NcArray@VNcDbFullSubentPath@@V?$HostObjectsAllocator@VNcDbFullSubentPath@@@@@@@Z
  ?ncedGetFunCode@@YAHXZ
  ?ncedGetIDispatch@@YAPEAUIDispatch@@H@Z
  ?ncedGetIUnknownForCurrentCommand@@YAHAEAPEAUIUnknown@@@Z
  ?ncedGetInput@@YAHPEA_W@Z
  ?ncedGetInput@@YAHPEA_W_K@Z
  ?ncedGetInt@@YAHPEB_WPEAH@Z
  ?ncedGetKword@@YAHPEB_WPEA_W@Z
  ?ncedGetKword@@YAHPEB_WPEA_W_K@Z
  ?ncedGetMenu@@YAPEAUHMENU__@@PEB_W@Z
  ?ncedGetNcadDoc@@YAPEAVCDocument@@XZ
  ?ncedGetNcadDockCmdLine@@YAPEAVCWnd@@XZ
  ?ncedGetNcadDwgView@@YAPEAVCView@@XZ
  ?ncedGetNcadResourceInstance@@YAPEAUHINSTANCE__@@XZ
  ?ncedGetNcadTextCmdLine@@YAPEAVCWnd@@XZ
  ?ncedGetNcadWinApp@@YAPEAVCWinApp@@XZ
  ?ncedGetOrient@@YAHQEBNPEB_WPEAN@Z
  ?ncedGetPoint@@YAHQEBNPEB_WQEAN@Z
  ?ncedGetRGB@@YAKH@Z
  ?ncedGetReal@@YAHPEB_WPEAN@Z
  ?ncedGetRegistryCompany@@YAAEBV?$CStringT@_WV?$StrTraitMFC_DLL@_WV?$ChTraitsCRT@_W@ATL@@@@@ATL@@XZ
  ?ncedGetString@@YAHHPEB_WPEA_W@Z
  ?ncedGetStringB@@YAHHPEB_WPEA_WH@Z
  ?ncedGetSym@@YAHPEB_WPEAPEAUresbuf@@@Z
  ?ncedGetSystemColors@@YAHPEAUNcColorSettings@@@Z
  ?ncedGetSystemColorsEx2@@YAHPEAUNcColorSettings@@PEAUNcColorSettingsEx@@PEAUNcColorSettingsEx2@@@Z
  ?ncedGetSystemColorsEx@@YAHPEAUNcColorSettings@@PEAUNcColorSettingsEx@@@Z
  ?ncedGetUnitsConversion@@YA_NW4UnitsValue@NcDb@@AEAN@Z
  ?ncedGetUserFavoritesDir@@YAHPEA_W@Z
  ?ncedGetVar@@YAHPEB_WPEAUresbuf@@@Z
  ?ncedGetWinNum@@YAHHH@Z
  ?ncedGrDraw@@YAHQEBN0HH@Z
  ?ncedGrRead@@YAHHPEAHPEAUresbuf@@@Z
  ?ncedGrText@@YAHHPEB_WH@Z
  ?ncedGrVecs@@YAHPEBUresbuf@@QEAY03N@Z
  ?ncedGraphScr@@YAHXZ
  ?ncedHatchPalletteDialog@@YA_NAEBVNcString@@_NAEAV1@@Z
  ?ncedHatchPalletteDialog@@YA_NPEB_W_NAEAPEA_W@Z
  ?ncedHelp@@YAHPEB_W0H@Z
  ?ncedHideConstraintBar@@YA_NAEAV?$NcArray@VNcDbFullSubentPath@@V?$HostObjectsAllocator@VNcDbFullSubentPath@@@@@@@Z
  ?ncedInitCommandVersion@@YAEE@Z
  ?ncedInitDialog@@YAHH@Z
  ?ncedInitGet@@YAHHPEB_W@Z
  ?ncedInvoke@@YAHPEBUresbuf@@PEAPEAU1@@Z
  ?ncedIsDragging@@YAHXZ
  ?ncedIsInBackgroundMode@@YA_NXZ
  ?ncedIsInputPending@@YAHXZ
  ?ncedIsMenuGroupLoaded@@YAHPEB_W@Z
  ?ncedIsUpdateDisplayPaused@@YA_NXZ
  ?ncedIsUsrbrkDisabled@@YA_NXZ
  ?ncedManageHatchEditorReactor@@YA?AW4ErrorStatus@Nano@@VNcDbObjectId@@W4NcHatchEdReact@@0W4NcHatchNotifier@@_N@Z
  ?ncedMenuCmd@@YAHPEB_W@Z
  ?ncedMspace@@YA?AW4ErrorStatus@Nano@@XZ
  ?ncedNEntSel@@YAHPEB_WQEA_JQEANQEAY02NPEAPEAUresbuf@@@Z
  ?ncedNEntSelP@@YAHPEB_WQEA_JQEANHQEAY03NPEAPEAUresbuf@@@Z
  ?ncedNrxLoad@@YAHPEB_W@Z
  ?ncedNrxLoaded@@YAPEAUresbuf@@XZ
  ?ncedNrxUnload@@YAHPEB_W@Z
  ?ncedNumberOfViewports@@YAHXZ
  ?ncedOpenDocWindowsMinimized@@YAX_N@Z
  ?ncedOsnap@@YAHQEBNPEB_WQEAN@Z
  ?ncedPopCommandDirectory@@YAHPEB_W@Z
  ?ncedPostCommandPrompt@@YAXXZ
  ?ncedPrompt@@YAHPEB_W@Z
  ?ncedPspace@@YA?AW4ErrorStatus@Nano@@XZ
  ?ncedPutSym@@YAHPEB_WPEAUresbuf@@@Z
  ?ncedRedraw@@YAHQEB_JH@Z
  ?ncedRegFunc@@YAHP6AHXZH@Z
  ?ncedRegisterCustomDropTarget@@YAHPEAUIDropTarget@@@Z
  ?ncedRegisterExtendedTab@@YAHPEB_W0@Z
  ?ncedRegisterFilterWinMsg@@YAHQ6AHPEAUtagMSG@@@Z@Z
  ?ncedRegisterMainFramePreTranslateObserver@@YAHQ6AHPEAUtagMSG@@@Z@Z
  ?ncedRegisterOnIdleWinMsg@@YAHQ6AXXZ@Z
  ?ncedRegisterOnModal@@YAHQ6AX_N@Z@Z
  ?ncedRegisterWatchWinMsg@@YAHQ6AXPEBUtagMSG@@@Z@Z
  ?ncedRemoveDefaultContextMenu@@YAHPEAVNcEdUIContext@@@Z
  ?ncedRemoveDropTarget@@YAHPEAVCOleDropTarget@@@Z
  ?ncedRemoveFilterWinMsg@@YAHQ6AHPEAUtagMSG@@@Z@Z
  ?ncedRemoveMainFramePreTranslateObserver@@YAHQ6AHPEAUtagMSG@@@Z@Z
  ?ncedRemoveObjectContextMenu@@YAHPEBVNcRxClass@@PEAVNcEdUIContext@@@Z
  ?ncedRemoveOnIdleWinMsg@@YAHQ6AXXZ@Z
  ?ncedRemoveOnModal@@YAHQ6AX_N@Z@Z
  ?ncedRemoveWatchWinMsg@@YAHQ6AXPEBUtagMSG@@@Z@Z
  ?ncedResolveInternetShortcut@@YAHPEB_WPEA_W@Z
  ?ncedResolveShortcut@@YAHPEAXPEB_WPEA_W@Z
  ?ncedRestoreCurrentView@@YA?AW4ErrorStatus@Nano@@AEBVNcDbObjectId@@@Z
  ?ncedRestorePreviousUCS@@YA?AW4ErrorStatus@Nano@@XZ
  ?ncedRestoreStatusBar@@YAXXZ
  ?ncedRetInt@@YAHH@Z
  ?ncedRetList@@YAHPEBUresbuf@@@Z
  ?ncedRetName@@YAHQEB_JH@Z
  ?ncedRetNil@@YAHXZ
  ?ncedRetPoint@@YAHQEBN@Z
  ?ncedRetReal@@YAHN@Z
  ?ncedRetStr@@YAHPEB_W@Z
  ?ncedRetT@@YAHXZ
  ?ncedRetVal@@YAHPEBUresbuf@@@Z
  ?ncedRetVoid@@YAHXZ
  ?ncedRevokeCustomDropTarget@@YAHXZ
  ?ncedSSAdd@@YAHQEB_J0QEA_J@Z
  ?ncedSSDel@@YAHQEB_J0@Z
  ?ncedSSFree@@YAHQEB_J@Z
  ?ncedSSGet@@YAHPEB_WPEBX1PEBUresbuf@@QEA_J@Z
  ?ncedSSGetFirst@@YAHPEAPEAUresbuf@@0@Z
  ?ncedSSGetKwordCallbackPtr@@YAHPEAP6APEAUresbuf@@PEB_W@Z@Z
  ?ncedSSGetOtherCallbackPtr@@YAHPEAP6APEAUresbuf@@PEB_W@Z@Z
  ?ncedSSLength@@YAHQEB_JPEAJ@Z
  ?ncedSSMemb@@YAHQEB_J0@Z
  ?ncedSSName@@YAHQEB_JJQEA_J@Z
  ?ncedSSNameX@@YAHPEAPEAUresbuf@@QEB_JJ@Z
  ?ncedSSNameXEx@@YAHPEAPEAUresbuf@@QEB_JJI@Z
  ?ncedSSSetFirst@@YAHQEB_J0@Z
  ?ncedSSSetKwordCallbackPtr@@YAHP6APEAUresbuf@@PEB_W@Z@Z
  ?ncedSSSetOtherCallbackPtr@@YAHP6APEAUresbuf@@PEB_W@Z@Z
  ?ncedSSSetSubentTypes@@YAHAEBV?$NcArray@KV?$HostObjectsAllocator@K@@@@@Z
  ?ncedSSSubentAdd@@YAHAEBVNcDbFullSubentPath@@QEB_JQEA_J@Z
  ?ncedSSSubentDel@@YAHAEBVNcDbFullSubentPath@@QEB_J@Z
  ?ncedSSSubentLength@@YAHQEB_JJPEAJ@Z
  ?ncedSSSubentMemb@@YAHAEBVNcDbFullSubentPath@@QEB_J@Z
  ?ncedSSSubentName@@YAHQEB_JJJAEAVNcDbFullSubentPath@@@Z
  ?ncedSSSubentNameX@@YAHPEAPEAUresbuf@@QEB_JJJI@Z
  ?ncedSelectTransients@@YA?AW4ErrorStatus@Nano@@AEBVNcGsDCRect@@HAEAV?$NcArray@VNcEdSelectedTransient@@V?$HostObjectsAllocator@VNcEdSelectedTransient@@@@@@@Z
  ?ncedSendModelessOperationEnded@@YAXPEB_W@Z
  ?ncedSendModelessOperationStart@@YAXPEB_W@Z
  ?ncedSetCMBaseAlias@@YA_NPEB_WW4NcadContextMenuMode@@@Z
  ?ncedSetCfg@@YAHPEB_W0@Z
  ?ncedSetChildFrameSettings@@YAHPEAUtagChildFrmSettings@@PEAVCMDIChildWnd@@@Z
  ?ncedSetColorDialog@@YAHAEAHHH@Z
  ?ncedSetColorDialogTrueColor@@YAHAEAVNcCmColor@@HAEBV1@W4DialogTabs@NcCm@@@Z
  ?ncedSetColorPrompt@@YAHPEA_WAEAVNcCmColor@@H@Z
  ?ncedSetCurrentColors@@YAHPEAUNcColorSettings@@@Z
  ?ncedSetCurrentColorsEx2@@YAHPEAUNcColorSettings@@PEAUNcColorSettingsEx@@PEAUNcColorSettingsEx2@@@Z
  ?ncedSetCurrentColorsEx@@YAHPEAUNcColorSettings@@PEAUNcColorSettingsEx@@@Z
  ?ncedSetCurrentUCS@@YA?AW4ErrorStatus@Nano@@AEBVNcGeMatrix3d@@@Z
  ?ncedSetCurrentVPort@@YA?AW4ErrorStatus@Nano@@H@Z
  ?ncedSetCurrentVPort@@YA?AW4ErrorStatus@Nano@@PEBVNcDbViewport@@@Z
  ?ncedSetCurrentView@@YA?AW4ErrorStatus@Nano@@PEAVNcDbViewTableRecord@@PEAVNcDbViewport@@@Z
  ?ncedSetEnv@@YAHPEB_W0@Z
  ?ncedSetFunHelp@@YAHPEB_W00H@Z
  ?ncedSetIUnknownForCurrentCommand@@YAHQEAUIUnknown@@@Z
  ?ncedSetOLELock@@YAHHH@Z
  ?ncedSetStatusBarProgressMeter@@YAHPEB_WHH@Z
  ?ncedSetStatusBarProgressMeterPos@@YAHH@Z
  ?ncedSetVar@@YAHPEB_WPEBUresbuf@@@Z
  ?ncedSetView@@YAHPEBUresbuf@@H@Z
  ?ncedSetXrefResolvedWithUpdateStatus@@YA?AW4ErrorStatus@Nano@@PEAVNcDbBlockTableRecord@@@Z
  ?ncedShowConstraintBar@@YA_NAEAV?$NcArray@VNcDbFullSubentPath@@V?$HostObjectsAllocator@VNcDbFullSubentPath@@@@@@@Z
  ?ncedShowConstraintBarForAll@@YA_N_N@Z
  ?ncedShowDrawingStatusBars@@YAHH@Z
  ?ncedSkipXrefNotification@@YA?AW4ErrorStatus@Nano@@PEAVNcDbDatabase@@PEB_W@Z
  ?ncedStartOverrideDropTarget@@YAHPEAVCOleDropTarget@@@Z
  ?ncedSymUtil@@YAPEBVServices@NcEdSymbolUtilities@@XZ
  ?ncedSyncFileOpen@@YA?AW4ErrorStatus@Nano@@PEB_W0@Z
  ?ncedTablet@@YAHPEBUresbuf@@PEAPEAU1@@Z
  ?ncedTextBox@@YAHPEBUresbuf@@QEAN1@Z
  ?ncedTextPage@@YAHXZ
  ?ncedTextScr@@YAHXZ
  ?ncedTraceBoundary@@YA?AW4ErrorStatus@Nano@@AEBVNcGePoint3d@@_NAEAV?$NcArray@PEAXV?$HostMemoryAllocator@PEAX@@@@@Z
  ?ncedTrans@@YAHQEBNPEBUresbuf@@1HQEAN@Z
  ?ncedUndef@@YAHPEB_WF@Z
  ?ncedUpdate@@YAHHQEAN0@Z
  ?ncedUpdateDisplay@@YAXXZ
  ?ncedUpdateDisplayPause@@YAX_N@Z
  ?ncedUsrBrk@@YAHXZ
  ?ncedVPLayer@@YA?AW4ErrorStatus@Nano@@AEBVNcDbObjectId@@AEBV?$NcArray@VNcDbObjectId@@V?$HostObjectsAllocator@VNcDbObjectId@@@@@@W4VpFreezeOps@NcDb@@@Z
  ?ncedViewportIdFromNumber@@YA?AVNcDbObjectId@@H@Z
  ?ncedVportTableRecords2Vports@@YA?AW4ErrorStatus@Nano@@XZ
  ?ncedVports2VportTableRecords@@YA?AW4ErrorStatus@Nano@@XZ
  ?ncedVports@@YAHPEAPEAUresbuf@@@Z
  ?ncedXformSS@@YAHQEB_JQEAY03N@Z
  ?ncedXrefNotifyCheckFileChanged@@YA?AW4ErrorStatus@Nano@@VNcDbObjectId@@AEA_N@Z
  ?ncplCreatePlotProgressDialog@@YAPEAVNcPlPlotProgressDialog@@PEAUHWND__@@_NHP6AXPEAV1@@Z1@Z
  ?ncplPlotConfigManagerPtr@@YAPEAVNcPlPlotConfigManager@@XZ
  ?ncplPlotReactorMgrPtr@@YAPEAVNcPlPlotReactorMgr@@XZ
  ?ncplProcessPlotState@@YA?AW4ProcessPlotState@@XZ
  ?ncrxAppIsLoaded@@YA_NPEB_W@Z
  ?ncrxApplicationIsLocked@@YA_NPEB_W@Z
  ?ncrxGetServiceSymbolAddr@@YAPEAXPEB_W0@Z
  ?ncrxIsAppMDIAware@@YA_NPEB_W@Z
  ?ncrxLoadApp@@YA_NPEB_W_N@Z
  ?ncrxLoadModule@@YA_NPEB_W_N1@Z
  ?ncrxLoadedApps@@YAPEAXXZ
  ?ncrxLockApplication@@YA_NPEAX@Z
  ?ncrxObjectDBXRegistryKey@@YAPEB_WXZ
  ?ncrxProductKey@@YAPEB_WXZ
  ?ncrxProductLCID@@YAKXZ
  ?ncrxRegisterApp@@YA?AW4ErrorStatus@NcadApp@@W4LoadReasons@2@PEB_W_N@Z
  ?ncrxRegisterAppMDIAware@@YA_NPEAX@Z
  ?ncrxRegisterAppNotMDIAware@@YA_NPEAX@Z
  ?ncrxRegisterService@@YAPEAXPEB_W@Z
  ?ncrxServiceIsRegistered@@YA_NPEB_W@Z
  ?ncrxUnloadApp@@YA_NPEB_W_N@Z
  ?ncrxUnloadModule@@YA_NPEB_W_N@Z
  ?ncrxUnlockApplication@@YA_NPEAX@Z
  ?ncrxUnregisterApp@@YA?AW4ErrorStatus@NcadApp@@PEB_W_N@Z
  ?ncrx_abort@@YAXPEB_WZZ
  ?ncutNewString@@YA?AW4ErrorStatus@Nano@@AEAPEA_WH@Z
  ?ncutNewString@@YA?AW4ErrorStatus@Nano@@PEB_WAEAPEA_W@Z
  ?ncutUpdString@@YA?AW4ErrorStatus@Nano@@PEB_WAEAPEA_W@Z
  ?ncutWcMatch@@YAHPEB_W0@Z
  ?ncutWcMatchEx@@YA_NPEB_W0_N@Z
  ?nds_queueexpr@@YAHPEA_W@Z
  ?ndsw_ncadDocWnd@@YAPEAUHWND__@@XZ
  ?newAcEdCommand@NcEdServices@@UEBAPEAVNcEdCommand@@P6AXXZJ@Z
  ?noOfCopies@NcPlDSDData@@QEBAIXZ
  ?nodeName@NcDMMNode@@QEBAPEB_WXZ
  ?nodeNumber@NcDMMNode@@QEBAHXZ
  ?notifyNeedToUpdateIsolation@NcDocManageIsolationState@@QEAAXXZ
  ?nrxGetActiveWorldToDeviceMatrix@@YA?AVNcGeMatrix3d@@XZ
  ?nrxRegen@@YAX_N@Z
  ?nrxShowToolBar@@YAXV?$CStringT@_WV?$StrTraitMFC_DLL@_WV?$ChTraitsCRT@_W@ATL@@@@@ATL@@@Z
  ?numberOfDSDEntries@NcPlDSDData@@QEBAHXZ
  ?objectChangedPersistentVisibilityByIsolation@NcDocManageIsolationStateReactor@@UEAAXPEAVNcDbObject@@_N@Z
  ?objectChangedTemporaryVisibilityByIsolation@NcDocManageIsolationStateReactor@@UEAAXPEAVNcDbObject@@_N@Z
  ?objectsLazyLoaded@NcEditorReactor@@UEAAXAEBV?$NcArray@VNcDbObjectId@@V?$HostObjectsAllocator@VNcDbObjectId@@@@@@@Z
  ?oleObjectCount@NcPlPlotPageInfo@@QEBAJXZ
  ?originX@NcDMMSheetReactorInfo@@UEBANXZ
  ?originY@NcDMMSheetReactorInfo@@UEBANXZ
  ?otherAttach@NcEditorReactor@@UEAAXPEAVNcDbDatabase@@0@Z
  ?otherInsert@NcEditorReactor@@UEAAXPEAVNcDbDatabase@@AEAVNcDbIdMapping@@0@Z
  ?otherWblock@NcEditorReactor@@UEAAXPEAVNcDbDatabase@@AEAVNcDbIdMapping@@0@Z
  ?overrideSettings@NcPlPlotInfo@@QEBAPEBVNcDbPlotSettings@@XZ
  ?pageCancelled@NcPlPlotReactor@@UEAAXXZ
  ?paperScale@NcDMMSheetReactorInfo@@UEBANXZ
  ?parent@NcEdSelectedTransient@@QEAAPEAVNcGiDrawable@@XZ
  ?partialOpenNotice@NcEditorReactor@@UEAAXPEAVNcDbDatabase@@@Z
  ?password@NcPlDSDData@@QEBAPEB_WXZ
  ?physicalLength@?$HostArray@PEAVNcEdCommand@@V?$HostObjectsAllocator@PEAVNcEdCommand@@@@@@QEBAIXZ
  ?physicalLength@?$HostArray@VNcDMMWideString@@V?$HostObjectsAllocator@VNcDMMWideString@@@@@@QEBAIXZ
  ?physicalLength@?$NcArray@PEAVNcEdCommand@@V?$HostObjectsAllocator@PEAVNcEdCommand@@@@@@QEBAHXZ
  ?physicalLength@?$NcArray@VNcDMMWideString@@V?$HostObjectsAllocator@VNcDMMWideString@@@@@@QEBAHXZ
  ?pickfirstModified@NcEditorReactor@@UEAAXXZ
  ?plotArea@NcDMMSheetReactorInfo@@UEBA?AW4PlotArea@1@XZ
  ?plotBoundsMaxX@NcDMMSheetReactorInfo@@UEBANXZ
  ?plotBoundsMaxY@NcDMMSheetReactorInfo@@UEBANXZ
  ?plotBoundsMinX@NcDMMSheetReactorInfo@@UEBANXZ
  ?plotBoundsMinY@NcDMMSheetReactorInfo@@UEBANXZ
  ?plotCancelled@NcPlPlotReactor@@UEAAXXZ
  ?plotConfig@NcPlPlotConfig@@UEBAPEAVHT_Plot_Config@@XZ
  ?plotLayoutId@NcDMMSheetReactorInfo@@UEBA?AVNcDbObjectId@@XZ
  ?plotMediaUnits@NcDMMSheetReactorInfo@@UEBA?AW4PlotMediaUnits@1@XZ
  ?plotRotation@NcDMMSheetReactorInfo@@UEBA?AW4PlotRotation@1@XZ
  ?plotStampOn@NcPlDSDData@@QEBA_NXZ
  ?plotToFileCapability@NcPlPlotConfig@@UEBA?AW4PlotToFileCapability@1@XZ
  ?plotToFileName@NcDMMSheetReactorInfo@@UEBAPEB_WXZ
  ?plotToFilePath@NcDMMSheetReactorInfo@@UEBAPEB_WXZ
  ?plotWindowMaxX@NcDMMSheetReactorInfo@@UEBANXZ
  ?plotWindowMaxY@NcDMMSheetReactorInfo@@UEBANXZ
  ?plotWindowMinX@NcDMMSheetReactorInfo@@UEBANXZ
  ?plotWindowMinY@NcDMMSheetReactorInfo@@UEBANXZ
  ?popGroupToTop@NcEdCommandStack@@UEAA?AW4ErrorStatus@Nano@@PEB_W@Z
  ?preXrefLockFile@NcEditorReactor@@UEAAXVNcDbObjectId@@@Z
  ?printableBoundsWeight@NcPlPlotInfoValidator@@QEBAIXZ
  ?printableBoundsX@NcDMMSheetReactorInfo@@UEBANXZ
  ?printableBoundsY@NcDMMSheetReactorInfo@@UEBANXZ
  ?profileReset@NcApProfileManagerReactor@@UEAAXPEB_W@Z
  ?profileSaved@NcApProfileManagerReactor@@UEAAXPEB_W@Z
  ?profileWillBeSaved@NcApProfileManagerReactor@@UEAAXPEB_W@Z
  ?profileWillReset@NcApProfileManagerReactor@@UEAAXPEB_W@Z
  ?projectPath@NcPlDSDData@@QEBAPEB_WXZ
  ?promptForDwfName@NcPlDSDData@@QEBA_NXZ
  ?promptForPassword@NcPlDSDData@@QEBA_NXZ
  ?publishingTo3DDwf@NcDMMSheetReactorInfo@@UEBA_NXZ
  ?push_back@?$HostArray@PEAVNcEdCommand@@V?$HostObjectsAllocator@PEAVNcEdCommand@@@@@@QEAAX$$QEAPEAVNcEdCommand@@@Z
  ?push_back@?$HostArray@PEAVNcEdCommand@@V?$HostObjectsAllocator@PEAVNcEdCommand@@@@@@QEAAXAEBQEAVNcEdCommand@@@Z
  ?push_back@?$HostArray@VNcDMMWideString@@V?$HostObjectsAllocator@VNcDMMWideString@@@@@@QEAAX$$QEAVNcDMMWideString@@@Z
  ?push_back@?$HostArray@VNcDMMWideString@@V?$HostObjectsAllocator@VNcDMMWideString@@@@@@QEAAXAEBVNcDMMWideString@@@Z
  ?pwdProtectPublishedDWF@NcPlDSDData@@QEBA_NXZ
  ?quietMode@NcPlPlotErrorHandler@@UEBA_NXZ
  ?quitAborted@NcEditorReactor@@UEAAXXZ
  ?quitWillStart@NcEditorReactor@@UEAAXXZ
  ?rasterCount@NcPlPlotPageInfo@@QEBAJXZ
  ?rbegin@?$HostArray@PEAVNcEdCommand@@V?$HostObjectsAllocator@PEAVNcEdCommand@@@@@@QEAA?AV?$reverse_iterator@PEAPEAVNcEdCommand@@@std@@XZ
  ?rbegin@?$HostArray@PEAVNcEdCommand@@V?$HostObjectsAllocator@PEAVNcEdCommand@@@@@@QEBA?AV?$reverse_iterator@PEBQEAVNcEdCommand@@@std@@XZ
  ?rbegin@?$HostArray@VNcDMMWideString@@V?$HostObjectsAllocator@VNcDMMWideString@@@@@@QEAA?AV?$reverse_iterator@PEAVNcDMMWideString@@@std@@XZ
  ?rbegin@?$HostArray@VNcDMMWideString@@V?$HostObjectsAllocator@VNcDMMWideString@@@@@@QEBA?AV?$reverse_iterator@PEBVNcDMMWideString@@@std@@XZ
  ?readDSD@NcPlDSDData@@QEAA_NPEB_W@Z
  ?readFromRegistry@NrxAppInfo@@QEAA?AW4ErrorStatus@NcadApp@@XZ
  ?redirected@NcEditorReactor@@UEAAXVNcDbObjectId@@0@Z
  ?redoIsolation@NcDocManageIsolationState@@SAXAEAVNcApDocument@@_N@Z
  ?redoPreviousIsolationState@NcDocManageIsolationState@@QEAA_N_N@Z
  ?referenced@?$HostArray@PEAVNcEdCommand@@V?$HostObjectsAllocator@PEAVNcEdCommand@@@@@@AEBA_NXZ
  ?referenced@?$HostArray@VNcDMMWideString@@V?$HostObjectsAllocator@VNcDMMWideString@@@@@@AEBA_NXZ
  ?refreshMediaNameList@NcPlPlotConfig@@UEAAXXZ
  ?releaseFile@NcEdXrefFileLock@@QEAA?AW4ErrorStatus@Nano@@AEAH_N1@Z
  ?reloadFile@NcEdXrefFileLock@@QEAA?AW4ErrorStatus@Nano@@AEAHAEBV?$NcArray@VNcDbObjectId@@V?$HostObjectsAllocator@VNcDbObjectId@@@@@@H@Z
  ?reloadFile@NcEdXrefFileLock@@QEAA?AW4ErrorStatus@Nano@@AEAHH@Z
  ?remove@?$HostArray@PEAVNcEdCommand@@V?$HostObjectsAllocator@PEAVNcEdCommand@@@@@@QEAA_NAEBQEAVNcEdCommand@@I@Z
  ?remove@?$HostArray@VNcDMMWideString@@V?$HostObjectsAllocator@VNcDMMWideString@@@@@@QEAA_NAEBVNcDMMWideString@@I@Z
  ?remove@?$NcArray@PEAVNcEdCommand@@V?$HostObjectsAllocator@PEAVNcEdCommand@@@@@@QEAA_NAEBQEAVNcEdCommand@@H@Z
  ?remove@?$NcArray@VNcDMMWideString@@V?$HostObjectsAllocator@VNcDMMWideString@@@@@@QEAA_NAEBVNcDMMWideString@@H@Z
  ?remove@NcEdSubSelectFilterService@@UEAA?AW4ErrorStatus@Nano@@_NH@Z
  ?removeAll@?$NcArray@PEAVNcEdCommand@@V?$HostObjectsAllocator@PEAVNcEdCommand@@@@@@QEAAAEAV1@XZ
  ?removeAll@?$NcArray@VNcDMMWideString@@V?$HostObjectsAllocator@VNcDMMWideString@@@@@@QEAAAEAV1@XZ
  ?removeAt@?$HostArray@PEAVNcEdCommand@@V?$HostObjectsAllocator@PEAVNcEdCommand@@@@@@QEAAAEAV1@I@Z
  ?removeAt@?$HostArray@VNcDMMWideString@@V?$HostObjectsAllocator@VNcDMMWideString@@@@@@QEAAAEAV1@I@Z
  ?removeAt@?$NcArray@PEAVNcEdCommand@@V?$HostObjectsAllocator@PEAVNcEdCommand@@@@@@QEAAAEAV1@H@Z
  ?removeAt@?$NcArray@VNcDMMWideString@@V?$HostObjectsAllocator@VNcDMMWideString@@@@@@QEAAAEAV1@H@Z
  ?removeByNameAddictedModule@HostAddictedModules@@UEAAXVNcString@@@Z
  ?removeCmd@NcEdCommandStack@@UEAA?AW4ErrorStatus@Nano@@PEB_W0@Z
  ?removeFirst@?$HostArray@PEAVNcEdCommand@@V?$HostObjectsAllocator@PEAVNcEdCommand@@@@@@QEAAAEAV1@XZ
  ?removeFirst@?$HostArray@VNcDMMWideString@@V?$HostObjectsAllocator@VNcDMMWideString@@@@@@QEAAAEAV1@XZ
  ?removeFirst@?$NcArray@PEAVNcEdCommand@@V?$HostObjectsAllocator@PEAVNcEdCommand@@@@@@QEAAAEAV1@XZ
  ?removeFirst@?$NcArray@VNcDMMWideString@@V?$HostObjectsAllocator@VNcDMMWideString@@@@@@QEAAAEAV1@XZ
  ?removeGroup@NcEdCommandStack@@UEAA?AW4ErrorStatus@Nano@@PEB_W@Z
  ?removeIsolationStateReactor@NcDocManageIsolationState@@QEAAXPEAVNcDocManageIsolationStateReactor@@@Z
  ?removeLast@?$HostArray@PEAVNcEdCommand@@V?$HostObjectsAllocator@PEAVNcEdCommand@@@@@@QEAAAEAV1@XZ
  ?removeLast@?$HostArray@VNcDMMWideString@@V?$HostObjectsAllocator@VNcDMMWideString@@@@@@QEAAAEAV1@XZ
  ?removeLast@?$NcArray@PEAVNcEdCommand@@V?$HostObjectsAllocator@PEAVNcEdCommand@@@@@@QEAAAEAV1@XZ
  ?removeLast@?$NcArray@VNcDMMWideString@@V?$HostObjectsAllocator@VNcDMMWideString@@@@@@QEAAAEAV1@XZ
  ?removeReactor@NcEdCommand@@QEAAXPEAVNcEdCommandReactor@@@Z
  ?removeReactor@NcEdCommandStack@@QEAAXPEAVNcEdCommandStackReactor@@@Z
  ?removeReactor@NcEditor@@UEAAXPEAVNcRxEventReactor@@@Z
  ?removeReactor@NcPlPlotReactorMgr@@QEAAXPEAVNcPlPlotReactor@@@Z
  ?removeSSgetFilterInputContextReactor@@YA?AW4ErrorStatus@Nano@@PEAVNcApDocument@@PEAVNcEdSSGetFilter2@@@Z
  ?removeSSgetFilterInputContextReactor@@YA?AW4ErrorStatus@Nano@@PEAVNcApDocument@@PEAVNcEdSSGetFilter3@@@Z
  ?removeSSgetFilterInputContextReactor@@YA?AW4ErrorStatus@Nano@@PEAVNcApDocument@@PEAVNcEdSSGetFilter4@@@Z
  ?removeSSgetFilterInputContextReactor@@YA?AW4ErrorStatus@Nano@@PEAVNcApDocument@@PEAVNcEdSSGetFilter@@@Z
  ?removeSSgetFilterInputContextReactor@@YA?AW4ErrorStatus@Nano@@PEAVNcApDocument@@PEAVNcEdSSGetSubSelectFilter@@@Z
  ?removeSubArray@?$HostArray@PEAVNcEdCommand@@V?$HostObjectsAllocator@PEAVNcEdCommand@@@@@@QEAAAEAV1@II@Z
  ?removeSubArray@?$HostArray@VNcDMMWideString@@V?$HostObjectsAllocator@VNcDMMWideString@@@@@@QEAAAEAV1@II@Z
  ?removeSubArray@?$NcArray@PEAVNcEdCommand@@V?$HostObjectsAllocator@PEAVNcEdCommand@@@@@@QEAAAEAV1@HH@Z
  ?removeSubArray@?$NcArray@VNcDMMWideString@@V?$HostObjectsAllocator@VNcDMMWideString@@@@@@QEAAAEAV1@HH@Z
  ?rend@?$HostArray@PEAVNcEdCommand@@V?$HostObjectsAllocator@PEAVNcEdCommand@@@@@@QEAA?AV?$reverse_iterator@PEAPEAVNcEdCommand@@@std@@XZ
  ?rend@?$HostArray@PEAVNcEdCommand@@V?$HostObjectsAllocator@PEAVNcEdCommand@@@@@@QEBA?AV?$reverse_iterator@PEBQEAVNcEdCommand@@@std@@XZ
  ?rend@?$HostArray@VNcDMMWideString@@V?$HostObjectsAllocator@VNcDMMWideString@@@@@@QEAA?AV?$reverse_iterator@PEAVNcDMMWideString@@@std@@XZ
  ?rend@?$HostArray@VNcDMMWideString@@V?$HostObjectsAllocator@VNcDMMWideString@@@@@@QEBA?AV?$reverse_iterator@PEBVNcDMMWideString@@@std@@XZ
  ?reserve@?$HostArray@PEAVNcEdCommand@@V?$HostObjectsAllocator@PEAVNcEdCommand@@@@@@QEAAXI@Z
  ?reserve@?$HostArray@VNcDMMWideString@@V?$HostObjectsAllocator@VNcDMMWideString@@@@@@QEAAXI@Z
  ?resetUndo@NcDocManageIsolationState@@QEAAXXZ
  ?resize@?$HostArray@PEAVNcEdCommand@@V?$HostObjectsAllocator@PEAVNcEdCommand@@@@@@QEAAXI@Z
  ?resize@?$HostArray@PEAVNcEdCommand@@V?$HostObjectsAllocator@PEAVNcEdCommand@@@@@@QEAAXIAEBQEAVNcEdCommand@@@Z
  ?resize@?$HostArray@VNcDMMWideString@@V?$HostObjectsAllocator@VNcDMMWideString@@@@@@QEAAXI@Z
  ?resize@?$HostArray@VNcDMMWideString@@V?$HostObjectsAllocator@VNcDMMWideString@@@@@@QEAAXIAEBVNcDMMWideString@@@Z
  ?reverse@?$HostArray@PEAVNcEdCommand@@V?$HostObjectsAllocator@PEAVNcEdCommand@@@@@@QEAAAEAV1@XZ
  ?reverse@?$HostArray@VNcDMMWideString@@V?$HostObjectsAllocator@VNcDMMWideString@@@@@@QEAAAEAV1@XZ
  ?reverse@?$NcArray@PEAVNcEdCommand@@V?$HostObjectsAllocator@PEAVNcEdCommand@@@@@@QEAAAEAV1@XZ
  ?reverse@?$NcArray@VNcDMMWideString@@V?$HostObjectsAllocator@VNcDMMWideString@@@@@@QEAAAEAV1@XZ
  ?rise_error@?$HostArray@PEAVNcEdCommand@@V?$HostObjectsAllocator@PEAVNcEdCommand@@@@@@CAXW4ErrorStatus@Nano@@@Z
  ?rise_error@?$HostArray@VNcDMMWideString@@V?$HostObjectsAllocator@VNcDMMWideString@@@@@@CAXW4ErrorStatus@Nano@@@Z
  ?runAppLoader@NrxAppInfo@@QEAA?AW4CmdStatus@1@XZ
  ?rxInit@NcPlPlotConfigImpl@@SAXXZ
  ?sampler@NcEdJig@@UEAA?AW4DragStatus@1@XZ
  ?saveComplete@NcEditorReactor@@UEAAXPEAVNcDbDatabase@@PEB_W@Z
  ?saveCurrentIsolationStateAsUndoItem@NcDocManageIsolationState@@QEAAXXZ
  ?saveToPC3@NcPlPlotConfig@@UEAA_NPEB_W@Z
  ?selectFaces@NcEdSolidSubentitySelector@@QEAA?AW4ErrorStatus@Nano@@AEAVNcDbObjectId@@AEAV?$NcArray@PEAVNcDbSubentId@@V?$HostObjectsAllocator@PEAVNcDbSubentId@@@@@@@Z
  ?selectionSetName@NcPlDSDData@@QEBAPEB_WXZ
  ?set3dDwfNavigationTreeNode@NcDMMSheetReactorInfo@@UEAA_NPEBVNc3dDwfNavTreeNode@@@Z
  ?set3dDwfOptions@NcPlDSDData@@QEAAXAEBUNcPl3dDwfOptions@@@Z
  ?setAll@?$HostArray@PEAVNcEdCommand@@V?$HostObjectsAllocator@PEAVNcEdCommand@@@@@@QEAAAEAV1@AEBQEAVNcEdCommand@@@Z
  ?setAll@?$HostArray@VNcDMMWideString@@V?$HostObjectsAllocator@VNcDMMWideString@@@@@@QEAAAEAV1@AEBVNcDMMWideString@@@Z
  ?setAll@?$NcArray@PEAVNcEdCommand@@V?$HostObjectsAllocator@PEAVNcEdCommand@@@@@@QEAAAEAV1@AEBQEAVNcEdCommand@@@Z
  ?setAll@?$NcArray@VNcDMMWideString@@V?$HostObjectsAllocator@VNcDMMWideString@@@@@@QEAAAEAV1@AEBVNcDMMWideString@@@Z
  ?setAllowDuplicateSelection@@YA?AW4ErrorStatus@Nano@@PEAVNcApDocument@@E@Z
  ?setAppDesc@NrxAppInfo@@QEAAXPEB_W@Z
  ?setAppLoader@NrxAppInfo@@QEAAXP6A?AW4CmdStatus@1@PEAX@Z@Z
  ?setAppName@NrxAppInfo@@QEAAXPEB_W@Z
  ?setAt@?$HostArray@PEAVNcEdCommand@@V?$HostObjectsAllocator@PEAVNcEdCommand@@@@@@QEAAAEAV1@IAEBQEAVNcEdCommand@@@Z
  ?setAt@?$HostArray@VNcDMMWideString@@V?$HostObjectsAllocator@VNcDMMWideString@@@@@@QEAAAEAV1@IAEBVNcDMMWideString@@@Z
  ?setAt@?$NcArray@PEAVNcEdCommand@@V?$HostObjectsAllocator@PEAVNcEdCommand@@@@@@QEAAAEAV1@HAEBQEAVNcEdCommand@@@Z
  ?setAt@?$NcArray@VNcDMMWideString@@V?$HostObjectsAllocator@VNcDMMWideString@@@@@@QEAAAEAV1@HAEBVNcDMMWideString@@@Z
  ?setCategoryName@NcPlDSDData@@QEAAXPEB_W@Z
  ?setColorResolution@NcPlPrecisionEntry@@QEAAXH@Z
  ?setCurrentPrecision@NcPlDSDData@@QEAAXPEB_W@Z
  ?setDSDEntries@NcPlDSDData@@QEAAXAEBV?$NcArray@VNcPlDSDEntry@@V?$HostObjectsAllocator@VNcPlDSDEntry@@@@@@@Z
  ?setDescription@NcPlPrecisionEntry@@QEAAXPEB_W@Z
  ?setDesiredPrecision@NcPlPrecisionEntry@@QEAAXN@Z
  ?setDestinationName@NcPlDSDData@@QEAAXPEB_W@Z
  ?setDeviceName@NcPlPlotConfigInfo@@QEAAXPEB_W@Z
  ?setDeviceOverride@NcPlPlotInfo@@QEAAXPEBVNcPlPlotConfig@@@Z
  ?setDeviceType@NcPlPlotConfigInfo@@QEAAXW4DeviceType@@@Z
  ?setDimValue@NcEdJig@@UEAA?AW4ErrorStatus@Nano@@PEBVNcDbDimData@@N@Z
  ?setDimensionalWeight@NcPlPlotInfoValidator@@QEAAXI@Z
  ?setDispPrompt@NcEdJig@@QEAAXPEB_WZZ
  ?setDwgName@NcPlDSDEntry@@QEAAXPEB_W@Z
  ?setFullPath@NcPlPlotConfigInfo@@QEAAXPEB_W@Z
  ?setGradientResolution@NcPlPrecisionEntry@@QEAAXH@Z
  ?setGrowLength@?$HostArray@PEAVNcEdCommand@@V?$HostObjectsAllocator@PEAVNcEdCommand@@@@@@QEAAAEAV1@H@Z
  ?setGrowLength@?$HostArray@VNcDMMWideString@@V?$HostObjectsAllocator@VNcDMMWideString@@@@@@QEAAAEAV1@H@Z
  ?setGrowLength@?$NcArray@PEAVNcEdCommand@@V?$HostObjectsAllocator@PEAVNcEdCommand@@@@@@QEAAAEAV1@H@Z
  ?setGrowLength@?$NcArray@VNcDMMWideString@@V?$HostObjectsAllocator@VNcDMMWideString@@@@@@QEAAAEAV1@H@Z
  ?setHas3dDwfSetup@NcPlDSDEntry@@QEAAX_N@Z
  ?setIncludeLayerInfo@NcPlDSDData@@QEAAX_N@Z
  ?setInternalTNmgmt@NcEdXrefFileLock@@QEAAX_N@Z
  ?setInvisibleByIsolation@NcDocManageIsolationState@@QEAAXAEBVNcDbObjectId@@@Z
  ?setInvisibleByIsolation@NcDocManageIsolationState@@QEAAXPEAVNcDbEntity@@@Z
  ?setIsHomogeneous@NcPlDSDData@@QEAAX_N@Z
  ?setIsSheetSet@NcPlDSDData@@QEAAX_N@Z
  ?setKeywordList@NcEdJig@@QEAAXPEB_W@Z
  ?setLayout@NcPlDSDEntry@@QEAAXPEB_W@Z
  ?setLayout@NcPlPlotInfo@@QEAAXAEAVNcDbObjectId@@@Z
  ?setLineMerge@NcPlDSDData@@QEAAX_N@Z
  ?setLoadReason@NrxAppInfo@@QEAAXW4LoadReasons@NcadApp@@@Z
  ?setLogFilePath@NcPlDSDData@@QEAAXPEB_W@Z
  ?setLogHandle@NcPlPlotErrorHandler@@UEAA_NPEB_W@Z
  ?setLogMode@NcPlPlotErrorHandler@@UEAAX_N@Z
  ?setLogicalLength@?$HostArray@PEAVNcEdCommand@@V?$HostObjectsAllocator@PEAVNcEdCommand@@@@@@QEAAAEAV1@I@Z
  ?setLogicalLength@?$HostArray@VNcDMMWideString@@V?$HostObjectsAllocator@VNcDMMWideString@@@@@@QEAAAEAV1@I@Z
  ?setLogicalLength@?$NcArray@PEAVNcEdCommand@@V?$HostObjectsAllocator@PEAVNcEdCommand@@@@@@QEAAAEAV1@H@Z
  ?setLogicalLength@?$NcArray@VNcDMMWideString@@V?$HostObjectsAllocator@VNcDMMWideString@@@@@@QEAAAEAV1@H@Z
  ?setMajorVersion@NcPlDSDData@@QEAAXI@Z
  ?setManaged@NrxAppInfo@@QEAAX_N@Z
  ?setMediaBoundsWeight@NcPlPlotInfoValidator@@QEAAXI@Z
  ?setMediaGroupWeight@NcPlPlotInfoValidator@@QEAAXI@Z
  ?setMediaMatchingPolicy@NcPlPlotInfoValidator@@QEAAXW4MatchingPolicy@1@@Z
  ?setMediaMatchingThreshold@NcPlPlotInfoValidator@@QEAAXI@Z
  ?setMinorVersion@NcPlDSDData@@QEAAXI@Z
  ?setModuleName@NrxAppInfo@@QEAAXPEB_W@Z
  ?setMonoResolution@NcPlPrecisionEntry@@QEAAXH@Z
  ?setNPS@NcPlDSDEntry@@QEAAXPEB_W@Z
  ?setNPSSourceDWG@NcPlDSDEntry@@QEAAXPEB_W@Z
  ?setName@NcNameValuePair@@QEAAXPEB_W@Z
  ?setNoOfCopies@NcPlDSDData@@QEAAXI@Z
  ?setNull@NcDMMXMLAttribute@@AEAAXXZ
  ?setOverrideSettings@NcPlPlotInfo@@QEAAXPEBVNcDbPlotSettings@@@Z
  ?setPassword@NcPlDSDData@@QEAAXPEB_W@Z
  ?setPersistentInvisibleByIsolation@NcDocManageIsolationState@@QEAAXAEBVNcDbObjectId@@@Z
  ?setPersistentInvisibleByIsolation@NcDocManageIsolationState@@QEAAXPEAVNcDbEntity@@@Z
  ?setPhysicalLength@?$HostArray@PEAVNcEdCommand@@V?$HostObjectsAllocator@PEAVNcEdCommand@@@@@@QEAAAEAV1@I@Z
  ?setPhysicalLength@?$HostArray@VNcDMMWideString@@V?$HostObjectsAllocator@VNcDMMWideString@@@@@@QEAAAEAV1@I@Z
  ?setPhysicalLength@?$NcArray@PEAVNcEdCommand@@V?$HostObjectsAllocator@PEAVNcEdCommand@@@@@@QEAAAEAV1@H@Z
  ?setPhysicalLength@?$NcArray@VNcDMMWideString@@V?$HostObjectsAllocator@VNcDMMWideString@@@@@@QEAAAEAV1@H@Z
  ?setPlotStampOn@NcPlDSDData@@QEAAX_N@Z
  ?setPlotToFile@NcPlPlotConfig@@UEAA?AW4ErrorStatus@Nano@@_N@Z
  ?setPrecisionEntries@NcPlDSDData@@QEAAXAEBV?$NcArray@VNcPlPrecisionEntry@@V?$HostObjectsAllocator@VNcPlPrecisionEntry@@@@@@@Z
  ?setPrintableBoundsWeight@NcPlPlotInfoValidator@@QEAAXI@Z
  ?setProjectPath@NcPlDSDData@@QEAAXPEB_W@Z
  ?setPromptForDwfName@NcPlDSDData@@QEAAX_N@Z
  ?setPromptForPassword@NcPlDSDData@@QEAAX_N@Z
  ?setPwdProtectPublishedDWF@NcPlDSDData@@QEAAX_N@Z
  ?setQuietMode@NcPlPlotErrorHandler@@UEAAX_N@Z
  ?setSelectionSetName@NcPlDSDData@@QEAAXPEB_W@Z
  ?setSetupType@NcPlDSDEntry@@QEAAXW4SetupType@1@@Z
  ?setSheetDimensionalWeight@NcPlPlotInfoValidator@@QEAAXI@Z
  ?setSheetMediaGroupWeight@NcPlPlotInfoValidator@@QEAAXI@Z
  ?setSheetSetName@NcPlDSDData@@QEAAXPEB_W@Z
  ?setSheetType@NcPlDSDData@@QEAAXW4SheetType@NcPlDSDEntry@@@Z
  ?setSpecialCursorType@NcEdJig@@QEAAXW4CursorType@1@@Z
  ?setTemporaryInvisibleByIsolation@NcDocManageIsolationState@@QEAAXAEBVNcDbObjectId@@@Z
  ?setTemporaryInvisibleByIsolation@NcDocManageIsolationState@@QEAAXPEAVNcDbEntity@@@Z
  ?setTitle@NcPlDSDEntry@@QEAAXPEB_W@Z
  ?setTitle@NcPlPrecisionEntry@@QEAAXPEB_W@Z
  ?setUnitScale@NcPlPrecisionEntry@@QEAAXPEB_W@Z
  ?setUnitType@NcPlPrecisionEntry@@QEAAXPEB_W@Z
  ?setUnrecognizedData@NcPlDSDData@@QEAAXAEBV?$NcArray@PEA_WV?$HostObjectsAllocator@PEA_W@@@@0@Z
  ?setUnrecognizedData@NcPlDSDData@@QEAAXAEBV?$NcArray@VNcString@@V?$HostObjectsAllocator@VNcString@@@@@@0@Z
  ?setUnrecognizedData@NcPlDSDData@@QEAAXPEB_W0@Z
  ?setUserInputControls@NcEdJig@@QEAAXW4UserInputControls@1@@Z
  ?setValidatedConfig@NcPlPlotInfo@@QEAAXPEBVNcPlPlotConfig@@@Z
  ?setValidatedSettings@NcPlPlotInfo@@QEAA?AW4ErrorStatus@Nano@@PEBVNcDbPlotSettings@@@Z
  ?setValue@NcNameValuePair@@QEAAXPEB_W@Z
  ?setViewFile@NcPlDSDData@@QEAAX_N@Z
  ?setVisibleByIsolation@NcDocManageIsolationState@@QEAAXAEBVNcDbObjectId@@@Z
  ?setVisibleByIsolation@NcDocManageIsolationState@@QEAAXPEAVNcDbEntity@@@Z
  ?setupType@NcPlDSDEntry@@QEBA?AW4SetupType@1@XZ
  ?severeError@NcPlPlotErrorHandler@@UEAAX_KIPEB_W11@Z
  ?severeError@NcPlPlotLoggingErrorHandler@@UEAAX_KIPEB_W11@Z
  ?severeTitle@NcPlPlotErrorHandler@@UEBAPEB_WXZ
  ?shadedViewportType@NcPlPlotPageInfo@@QEBAJXZ
  ?sheetDimensionalWeight@NcPlPlotInfoValidator@@QEBAIXZ
  ?sheetMediaGroupWeight@NcPlPlotInfoValidator@@QEBAIXZ
  ?sheetSetName@NcPlDSDData@@QEBAPEB_WXZ
  ?sheetType@NcPlDSDData@@QEBA?AW4SheetType@NcPlDSDEntry@@XZ
  ?size@?$HostArray@PEAVNcEdCommand@@V?$HostObjectsAllocator@PEAVNcEdCommand@@@@@@QEBAIXZ
  ?size@?$HostArray@VNcDMMWideString@@V?$HostObjectsAllocator@VNcDMMWideString@@@@@@QEBAIXZ
  ?specialCursorType@NcEdJig@@QEAA?AW4CursorType@1@XZ
  ?ssNameX@NcEdSubSelectFilterService@@UEAA?AW4ErrorStatus@Nano@@_NHAEAPEAUresbuf@@@Z
  ?ssgetAddFailed@NcEdSSGetFilter@@UEAAXHHAEAVNcEdSelectionSetService@@AEBV?$NcArray@VNcDbObjectId@@V?$HostObjectsAllocator@VNcDbObjectId@@@@@@PEAUresbuf@@@Z
  ?ssgetAddFilter@NcEdSSGetFilter@@UEAAXHAEAVNcEdSelectionSetService@@AEBV?$NcArray@VNcDbObjectId@@V?$HostObjectsAllocator@VNcDbObjectId@@@@@@1@Z
  ?ssgetAddFilter@NcEdSSGetSubSelectFilter@@UEAAXHAEAVNcEdSubSelectFilterService@@AEBVNcDbObjectId@@AEBV?$NcArray@VNcDbFullSubentPath@@V?$HostObjectsAllocator@VNcDbFullSubentPath@@@@@@2@Z
  ?ssgetRemoveFailed@NcEdSSGetFilter@@UEAAXHHAEAVNcEdSelectionSetService@@AEBV?$NcArray@VNcDbObjectId@@V?$HostObjectsAllocator@VNcDbObjectId@@@@@@PEAUresbuf@@AEAV?$NcArray@HV?$HostMemoryAllocator@H@@@@AEAV?$NcArray@V?$NcArray@HV?$HostMemoryAllocator@H@@@@V?$HostObjectsAllocator@V?$NcArray@HV?$HostMemoryAllocator@H@@@@@@@@@Z
  ?ssgetRemoveFilter@NcEdSSGetFilter@@UEAAXHAEAVNcEdSelectionSetService@@AEBV?$NcArray@VNcDbObjectId@@V?$HostObjectsAllocator@VNcDbObjectId@@@@@@1AEAV?$NcArray@HV?$HostMemoryAllocator@H@@@@AEAV?$NcArray@V?$NcArray@HV?$HostMemoryAllocator@H@@@@V?$HostObjectsAllocator@V?$NcArray@HV?$HostMemoryAllocator@H@@@@@@@@@Z
  ?ssgetRemoveFilter@NcEdSSGetSubSelectFilter@@UEAAXHAEAVNcEdSubSelectFilterService@@AEBVNcDbObjectId@@AEBV?$NcArray@VNcDbFullSubentPath@@V?$HostObjectsAllocator@VNcDbFullSubentPath@@@@@@2@Z
  ?ssgetRolloverFilter@NcEdSSGetFilter2@@UEAAXAEBVNcDbFullSubentPath@@AEAV2@@Z
  ?ssgetRolloverFilter@NcEdSSGetFilter3@@UEAAXAEBVNcDbFullSubentPath@@AEAV?$NcArray@VNcDbFullSubentPath@@V?$HostObjectsAllocator@VNcDbFullSubentPath@@@@@@@Z
  ?startIsolationStateChanging@NcDocManageIsolationState@@QEAAXXZ
  ?status@NcPlPlotErrorHandlerLock@@QEBA?AW4LockStatus@1@XZ
  ?status@NrxAppInfo@@QEBA?AW4ErrorStatus@NcadApp@@XZ
  ?stepsPerInch@NcDMMSheetReactorInfo@@UEBANXZ
  ?subDrawingMode@NcEdSelectedTransient@@QEAAHXZ
  ?subSelectClassList@NcEdSSGetSubSelectFilter@@UEAA?AW4ErrorStatus@Nano@@AEAV?$NcArray@PEAVNcRxClass@@V?$HostObjectsAllocator@PEAVNcRxClass@@@@@@@Z
  ?swap@?$HostArray@PEAVNcEdCommand@@V?$HostObjectsAllocator@PEAVNcEdCommand@@@@@@QEAAAEAV1@II@Z
  ?swap@?$HostArray@PEAVNcEdCommand@@V?$HostObjectsAllocator@PEAVNcEdCommand@@@@@@QEAAXAEAV1@@Z
  ?swap@?$HostArray@VNcDMMWideString@@V?$HostObjectsAllocator@VNcDMMWideString@@@@@@QEAAAEAV1@II@Z
  ?swap@?$HostArray@VNcDMMWideString@@V?$HostObjectsAllocator@VNcDMMWideString@@@@@@QEAAXAEAV1@@Z
  ?swap@?$NcArray@PEAVNcEdCommand@@V?$HostObjectsAllocator@PEAVNcEdCommand@@@@@@QEAAAEAV1@HH@Z
  ?swap@?$NcArray@VNcDMMWideString@@V?$HostObjectsAllocator@VNcDMMWideString@@@@@@QEAAAEAV1@HH@Z
  ?sysVarChanged@NcEditorReactor@@UEAAXPEB_WH@Z
  ?sysVarWillChange@NcEditorReactor@@UEAAXPEB_W@Z
  ?takeResponsibility@NcPlPlotErrorHandler@@UEAA_NW4Handler@1@@Z
  ?tempDwfFileName@NcPublishReactorInfo@@UEAAPEB_WXZ
  ?terminalError@NcPlPlotErrorHandler@@UEAAX_KIPEB_W11@Z
  ?terminalError@NcPlPlotLoggingErrorHandler@@UEAAX_KIPEB_W11@Z
  ?terminalTitle@NcPlPlotErrorHandler@@UEBAPEB_WXZ
  ?title@NcPlDSDEntry@@QEBAPEB_WXZ
  ?title@NcPlPrecisionEntry@@QEBAPEB_WXZ
  ?toolbarBitmapSizeChanged@NcEditorReactor@@UEAAXH@Z
  ?toolbarBitmapSizeWillChange@NcEditorReactor@@UEAAXH@Z
  ?ucsNormalVector@@YAXAEAVNcGeVector3d@@@Z
  ?ucsXDir@@YA?AVNcGeVector3d@@XZ
  ?ucsYDir@@YA?AVNcGeVector3d@@XZ
  ?unLock@NcPlPlotErrorHandlerLock@@QEAA_NPEAVNcPlPlotErrorHandler@@@Z
  ?undoCurrentIsolationState@NcDocManageIsolationState@@QEAA_N_N@Z
  ?undoIsolation@NcDocManageIsolationState@@SAXAEAVNcApDocument@@_N@Z
  ?undoSubcommandAuto@NcEditorReactor@@UEAAXHH@Z
  ?undoSubcommandBack@NcEditorReactor@@UEAAXH@Z
  ?undoSubcommandBegin@NcEditorReactor@@UEAAXH@Z
  ?undoSubcommandControl@NcEditorReactor@@UEAAXHH@Z
  ?undoSubcommandEnd@NcEditorReactor@@UEAAXH@Z
  ?undoSubcommandMark@NcEditorReactor@@UEAAXH@Z
  ?undoSubcommandNumber@NcEditorReactor@@UEAAXHH@Z
  ?unisolateObjectsInAllLayouts@NcDocManageIsolationState@@SAIAEAVNcApDocument@@@Z
  ?unisolateObjectsInCurrentLayout@NcDocManageIsolationState@@SAIAEAVNcApDocument@@@Z
  ?unitScale@NcPlPrecisionEntry@@QEBAPEB_WXZ
  ?unitType@NcPlPrecisionEntry@@QEBAPEB_WXZ
  ?unknownCommand@NcEditorReactor@@UEAAXPEB_WPEAV?$NcArray@PEAXV?$HostMemoryAllocator@PEAX@@@@@Z
  ?unloadAddictedModules@HostAddictedModules@@UEAAXXZ
  ?update@NcEdJig@@UEAAHXZ
  ?userInputControls@NcEdJig@@QEAA?AW4UserInputControls@1@XZ
  ?validate@NcPlPlotInfoValidator@@UEAA?AW4ErrorStatus@Nano@@AEAVNcPlPlotInfo@@@Z
  ?validatedConfig@NcPlPlotInfo@@QEBAPEBVNcPlPlotConfig@@XZ
  ?validatedSettings@NcPlPlotInfo@@QEBAPEBVNcDbPlotSettings@@XZ
  ?value@NcNameValuePair@@QEBAPEB_WXZ
  ?variadicAssignHelper@?$HostArray@PEAVNcEdCommand@@V?$HostObjectsAllocator@PEAVNcEdCommand@@@@@@AEAAAEAV1@I@Z
  ?variadicAssignHelper@?$HostArray@PEAVNcEdCommand@@V?$HostObjectsAllocator@PEAVNcEdCommand@@@@@@AEAAAEAV1@IAEBQEAVNcEdCommand@@@Z
  ?variadicAssignHelper@?$HostArray@VNcDMMWideString@@V?$HostObjectsAllocator@VNcDMMWideString@@@@@@AEAAAEAV1@I@Z
  ?variadicAssignHelper@?$HostArray@VNcDMMWideString@@V?$HostObjectsAllocator@VNcDMMWideString@@@@@@AEAAAEAV1@IAEBVNcDMMWideString@@@Z
  ?veto@NcEditorReactor@@IEAA?AW4ErrorStatus@Nano@@XZ
  ?viewChanged@NcEditorReactor@@UEAAXXZ
  ?viewFile@NcPlDSDData@@QEBA_NXZ
  ?viewPlotted@NcDMMSheetReactorInfo@@UEBAPEB_WXZ
  ?warning@NcPlPlotErrorHandler@@UEAA?AW4ErrorResult@1@_KIPEB_W11@Z
  ?warning@NcPlPlotLoggingErrorHandler@@UEAA?AW4ErrorResult@NcPlPlotErrorHandler@@_KIPEB_W11@Z
  ?warningTitle@NcPlPlotErrorHandler@@UEBAPEB_WXZ
  ?wblockNotice@NcEditorReactor@@UEAAXPEAVNcDbDatabase@@@Z
  ?writeCommandNameToRegistry@NrxAppInfo@@QEAA?AW4ErrorStatus@NcadApp@@PEB_W0@Z
  ?writeDSD@NcPlDSDData@@QEAA_NPEB_W@Z
  ?writeGroupNameToRegistry@NrxAppInfo@@QEAA?AW4ErrorStatus@NcadApp@@PEB_W@Z
  ?writeToRegistry@NrxAppInfo@@QEAA?AW4ErrorStatus@NcadApp@@_N0@Z
  ?xloadctlType@NcEdXrefFileLock@@QEAA?AW4ErrorStatus@Nano@@AEAHAEBVNcDbObjectId@@@Z
  ?xrefSubCommandStart@NcEditorReactor@@UEAA?AW4ErrorStatus@Nano@@W4NcXrefSubCommand@@AEBV?$NcArray@VNcDbObjectId@@V?$HostObjectsAllocator@VNcDbObjectId@@@@@@PEBQEB_W2@Z
  ?xrefSubcommandAttachItem@NcEditorReactor@@UEAAXPEAVNcDbDatabase@@HPEB_W@Z
  ?xrefSubcommandBindItem@NcEditorReactor@@UEAAXPEAVNcDbDatabase@@HVNcDbObjectId@@@Z
  ?xrefSubcommandDetachItem@NcEditorReactor@@UEAAXPEAVNcDbDatabase@@HVNcDbObjectId@@@Z
  ?xrefSubcommandOverlayItem@NcEditorReactor@@UEAAXPEAVNcDbDatabase@@HPEB_W@Z
  ?xrefSubcommandPathItem@NcEditorReactor@@UEAAXHVNcDbObjectId@@PEB_W@Z
  ?xrefSubcommandReloadItem@NcEditorReactor@@UEAAXPEAVNcDbDatabase@@HVNcDbObjectId@@@Z
  ?xrefSubcommandUnloadItem@NcEditorReactor@@UEAAXPEAVNcDbDatabase@@HVNcDbObjectId@@@Z
  ndsw_ncadMainWnd
  odrxCreateModuleObject
  odrxGetAPIVersion